SF:/Users/solovey/Documents/dev/rusty_intervals_mcp/crates/intervals_icu_mcp/src/auth.rs
FN:381,_RNvNtNtCsgTXWXfwjzne_17intervals_icu_mcp4auth5tests12repeated_hex
FN:385,_RNvNtNtCsgTXWXfwjzne_17intervals_icu_mcp4auth5tests19create_test_manager
FN:592,_RNvNtNtCsgTXWXfwjzne_17intervals_icu_mcp4auth5testss_20test_app_state_clone
FN:620,_RNvNtNtCsgTXWXfwjzne_17intervals_icu_mcp4auth5testss_24test_http_base_url_clone
FN:434,_RNvNtNtCsgTXWXfwjzne_17intervals_icu_mcp4auth5testss_24test_issue_token_success
FN:392,_RNvNtNtCsgTXWXfwjzne_17intervals_icu_mcp4auth5testss_25test_jwt_manager_creation
FN:444,_RNvNtNtCsgTXWXfwjzne_17intervals_icu_mcp4auth5testss_25test_verify_token_success
FN:401,_RNvNtNtCsgTXWXfwjzne_17intervals_icu_mcp4auth5testss_31test_encrypt_decrypt_round_trip
FN:660,_RNvNtNtCsgTXWXfwjzne_17intervals_icu_mcp4auth5testss_31test_master_key_config_from_hex
FN:455,_RNvNtNtCsgTXWXfwjzne_17intervals_icu_mcp4auth5testss_31test_verify_invalid_token_fails
FN:608,_RNvNtNtCsgTXWXfwjzne_17intervals_icu_mcp4auth5testss_32test_decrypted_credentials_clone
FN:475,_RNvNtNtCsgTXWXfwjzne_17intervals_icu_mcp4auth5testss_32test_issue_and_verify_round_trip
FN:712,_RNvNtNtCsgTXWXfwjzne_17intervals_icu_mcp4auth5testss_32test_jwt_manager_from_master_key
FN:526,_RNvNtNtCsgTXWXfwjzne_17intervals_icu_mcp4auth5testss_32test_multiple_tokens_independent
FN:462,_RNvNtNtCsgTXWXfwjzne_17intervals_icu_mcp4auth5testss_32test_verify_tampered_token_fails
FN:419,_RNvNtNtCsgTXWXfwjzne_17intervals_icu_mcp4auth5testss_33test_decrypt_with_wrong_key_fails
FN:697,_RNvNtNtCsgTXWXfwjzne_17intervals_icu_mcp4auth5testss_33test_hkdf_produces_different_keys
FN:674,_RNvNtNtCsgTXWXfwjzne_17intervals_icu_mcp4auth5testss_34test_master_key_config_invalid_hex
FN:540,_RNvNtNtCsgTXWXfwjzne_17intervals_icu_mcp4auth5testss_34test_special_characters_in_api_key
FN:724,_RNvNtNtCsgTXWXfwjzne_17intervals_icu_mcp4auth5testss_35test_jwt_issue_and_verify_with_hkdf
FN:685,_RNvNtNtCsgTXWXfwjzne_17intervals_icu_mcp4auth5testss_35test_master_key_config_wrong_length
FN:627,_RNvNtNtCsgTXWXfwjzne_17intervals_icu_mcp4auth5testss_38test_auth_endpoint_invalid_credentials
FN:486,_RNvNtNtCsgTXWXfwjzne_17intervals_icu_mcp4auth5testss_38test_verify_token_rejects_wrong_issuer
FN:585,_RNvNtNtCsgTXWXfwjzne_17intervals_icu_mcp4auth5testss_39test_auth_error_into_response_jwt_error
FN:506,_RNvNtNtCsgTXWXfwjzne_17intervals_icu_mcp4auth5testss_40test_verify_token_rejects_wrong_audience
FN:410,_RNvNtNtCsgTXWXfwjzne_17intervals_icu_mcp4auth5testss_41test_encryption_produces_different_output
FN:555,_RNvNtNtCsgTXWXfwjzne_17intervals_icu_mcp4auth5testss_43test_auth_error_into_response_invalid_token
FN:579,_RNvNtNtCsgTXWXfwjzne_17intervals_icu_mcp4auth5testss_43test_auth_error_into_response_server_config
FN:561,_RNvNtNtCsgTXWXfwjzne_17intervals_icu_mcp4auth5testss_43test_auth_error_into_response_token_expired
FN:573,_RNvNtNtCsgTXWXfwjzne_17intervals_icu_mcp4auth5testss_46test_auth_error_into_response_encryption_error
FN:567,_RNvNtNtCsgTXWXfwjzne_17intervals_icu_mcp4auth5testss_49test_auth_error_into_response_invalid_credentials
FN:549,_RNvNtNtCsgTXWXfwjzne_17intervals_icu_mcp4auth5testss_49test_auth_error_into_response_missing_credentials
FN:745,_RNvNtNtCsgTXWXfwjzne_17intervals_icu_mcp4auth5testss_51test_different_master_keys_produce_different_tokens
FN:68,_RNvMNtCsgTXWXfwjzne_17intervals_icu_mcp4authNtB2_15MasterKeyConfig8from_hex
FN:135,_RNvMs_NtCsgTXWXfwjzne_17intervals_icu_mcp4authNtB4_10JwtManager11issue_token
FN:158,_RNvMs_NtCsgTXWXfwjzne_17intervals_icu_mcp4authNtB4_10JwtManager12verify_token
FN:199,_RNvMs_NtCsgTXWXfwjzne_17intervals_icu_mcp4authNtB4_10JwtManager15decrypt_api_key
FN:185,_RNvMs_NtCsgTXWXfwjzne_17intervals_icu_mcp4authNtB4_10JwtManager15encrypt_api_key
FN:126,_RNvMs_NtCsgTXWXfwjzne_17intervals_icu_mcp4authNtB4_10JwtManager15from_master_key
FN:117,_RNvMs_NtCsgTXWXfwjzne_17intervals_icu_mcp4authNtB4_10JwtManager3new
FN:22,_RNvNtCsgTXWXfwjzne_17intervals_icu_mcp4auth11fill_random
FN:265,_RNvNtCsgTXWXfwjzne_17intervals_icu_mcp4auth13auth_endpoint
FN:313,_RNvNtCsgTXWXfwjzne_17intervals_icu_mcp4auth15auth_middleware
FN:246,_RNvXs0_NtCsgTXWXfwjzne_17intervals_icu_mcp4authNtB5_9AuthErrorNtNtNtCskJx53GFsbuZ_9axum_core8response13into_response12IntoResponse13into_response
FN:280,_RNCNCNvNtCsgTXWXfwjzne_17intervals_icu_mcp4auth13auth_endpoint00B7_
FN:325,_RNCNCNvNtCsgTXWXfwjzne_17intervals_icu_mcp4auth15auth_middleware00B7_
FN:333,_RNCNCNvNtCsgTXWXfwjzne_17intervals_icu_mcp4auth15auth_middleware0s1_0B7_
FN:334,_RNCNCNvNtCsgTXWXfwjzne_17intervals_icu_mcp4auth15auth_middleware0s2_0B7_
FN:326,_RNCNCNvNtCsgTXWXfwjzne_17intervals_icu_mcp4auth15auth_middleware0s_0B7_
FN:169,_RNCNvMs_NtCsgTXWXfwjzne_17intervals_icu_mcp4authNtB6_10JwtManager12verify_token0B8_
FN:269,_RNCNvNtCsgTXWXfwjzne_17intervals_icu_mcp4auth13auth_endpoint0B5_
FN:317,_RNCNvNtCsgTXWXfwjzne_17intervals_icu_mcp4auth15auth_middleware0B5_
FN:627,_RNCNvNtNtCsgTXWXfwjzne_17intervals_icu_mcp4auth5testss_38test_auth_endpoint_invalid_credentials0B7_
FNDA:7,_RNvNtNtCsgTXWXfwjzne_17intervals_icu_mcp4auth5tests12repeated_hex
FNDA:12,_RNvNtNtCsgTXWXfwjzne_17intervals_icu_mcp4auth5tests19create_test_manager
FNDA:1,_RNvNtNtCsgTXWXfwjzne_17intervals_icu_mcp4auth5testss_20test_app_state_clone
FNDA:1,_RNvNtNtCsgTXWXfwjzne_17intervals_icu_mcp4auth5testss_24test_http_base_url_clone
FNDA:1,_RNvNtNtCsgTXWXfwjzne_17intervals_icu_mcp4auth5testss_24test_issue_token_success
FNDA:1,_RNvNtNtCsgTXWXfwjzne_17intervals_icu_mcp4auth5testss_25test_jwt_manager_creation
FNDA:1,_RNvNtNtCsgTXWXfwjzne_17intervals_icu_mcp4auth5testss_25test_verify_token_success
FNDA:1,_RNvNtNtCsgTXWXfwjzne_17intervals_icu_mcp4auth5testss_31test_encrypt_decrypt_round_trip
FNDA:1,_RNvNtNtCsgTXWXfwjzne_17intervals_icu_mcp4auth5testss_31test_master_key_config_from_hex
FNDA:1,_RNvNtNtCsgTXWXfwjzne_17intervals_icu_mcp4auth5testss_31test_verify_invalid_token_fails
FNDA:1,_RNvNtNtCsgTXWXfwjzne_17intervals_icu_mcp4auth5testss_32test_decrypted_credentials_clone
FNDA:1,_RNvNtNtCsgTXWXfwjzne_17intervals_icu_mcp4auth5testss_32test_issue_and_verify_round_trip
FNDA:1,_RNvNtNtCsgTXWXfwjzne_17intervals_icu_mcp4auth5testss_32test_jwt_manager_from_master_key
FNDA:1,_RNvNtNtCsgTXWXfwjzne_17intervals_icu_mcp4auth5testss_32test_multiple_tokens_independent
FNDA:1,_RNvNtNtCsgTXWXfwjzne_17intervals_icu_mcp4auth5testss_32test_verify_tampered_token_fails
FNDA:1,_RNvNtNtCsgTXWXfwjzne_17intervals_icu_mcp4auth5testss_33test_decrypt_with_wrong_key_fails
FNDA:1,_RNvNtNtCsgTXWXfwjzne_17intervals_icu_mcp4auth5testss_33test_hkdf_produces_different_keys
FNDA:1,_RNvNtNtCsgTXWXfwjzne_17intervals_icu_mcp4auth5testss_34test_master_key_config_invalid_hex
FNDA:1,_RNvNtNtCsgTXWXfwjzne_17intervals_icu_mcp4auth5testss_34test_special_characters_in_api_key
FNDA:1,_RNvNtNtCsgTXWXfwjzne_17intervals_icu_mcp4auth5testss_35test_jwt_issue_and_verify_with_hkdf
FNDA:1,_RNvNtNtCsgTXWXfwjzne_17intervals_icu_mcp4auth5testss_35test_master_key_config_wrong_length
FNDA:1,_RNvNtNtCsgTXWXfwjzne_17intervals_icu_mcp4auth5testss_38test_auth_endpoint_invalid_credentials
FNDA:1,_RNvNtNtCsgTXWXfwjzne_17intervals_icu_mcp4auth5testss_38test_verify_token_rejects_wrong_issuer
FNDA:1,_RNvNtNtCsgTXWXfwjzne_17intervals_icu_mcp4auth5testss_39test_auth_error_into_response_jwt_error
FNDA:1,_RNvNtNtCsgTXWXfwjzne_17intervals_icu_mcp4auth5testss_40test_verify_token_rejects_wrong_audience
FNDA:1,_RNvNtNtCsgTXWXfwjzne_17intervals_icu_mcp4auth5testss_41test_encryption_produces_different_output
FNDA:1,_RNvNtNtCsgTXWXfwjzne_17intervals_icu_mcp4auth5testss_43test_auth_error_into_response_invalid_token
FNDA:1,_RNvNtNtCsgTXWXfwjzne_17intervals_icu_mcp4auth5testss_43test_auth_error_into_response_server_config
FNDA:1,_RNvNtNtCsgTXWXfwjzne_17intervals_icu_mcp4auth5testss_43test_auth_error_into_response_token_expired
FNDA:1,_RNvNtNtCsgTXWXfwjzne_17intervals_icu_mcp4auth5testss_46test_auth_error_into_response_encryption_error
FNDA:1,_RNvNtNtCsgTXWXfwjzne_17intervals_icu_mcp4auth5testss_49test_auth_error_into_response_invalid_credentials
FNDA:1,_RNvNtNtCsgTXWXfwjzne_17intervals_icu_mcp4auth5testss_49test_auth_error_into_response_missing_credentials
FNDA:1,_RNvNtNtCsgTXWXfwjzne_17intervals_icu_mcp4auth5testss_51test_different_master_keys_produce_different_tokens
FNDA:8,_RNvMNtCsgTXWXfwjzne_17intervals_icu_mcp4authNtB2_15MasterKeyConfig8from_hex
FNDA:10,_RNvMs_NtCsgTXWXfwjzne_17intervals_icu_mcp4authNtB4_10JwtManager11issue_token
FNDA:11,_RNvMs_NtCsgTXWXfwjzne_17intervals_icu_mcp4authNtB4_10JwtManager12verify_token
FNDA:8,_RNvMs_NtCsgTXWXfwjzne_17intervals_icu_mcp4authNtB4_10JwtManager15decrypt_api_key
FNDA:16,_RNvMs_NtCsgTXWXfwjzne_17intervals_icu_mcp4authNtB4_10JwtManager15encrypt_api_key
FNDA:4,_RNvMs_NtCsgTXWXfwjzne_17intervals_icu_mcp4authNtB4_10JwtManager15from_master_key
FNDA:16,_RNvMs_NtCsgTXWXfwjzne_17intervals_icu_mcp4authNtB4_10JwtManager3new
FNDA:16,_RNvNtCsgTXWXfwjzne_17intervals_icu_mcp4auth11fill_random
FNDA:1,_RNvNtCsgTXWXfwjzne_17intervals_icu_mcp4auth13auth_endpoint
FNDA:0,_RNvNtCsgTXWXfwjzne_17intervals_icu_mcp4auth15auth_middleware
FNDA:7,_RNvXs0_NtCsgTXWXfwjzne_17intervals_icu_mcp4authNtB5_9AuthErrorNtNtNtCskJx53GFsbuZ_9axum_core8response13into_response12IntoResponse13into_response
FNDA:1,_RNCNCNvNtCsgTXWXfwjzne_17intervals_icu_mcp4auth13auth_endpoint00B7_
FNDA:0,_RNCNCNvNtCsgTXWXfwjzne_17intervals_icu_mcp4auth15auth_middleware00B7_
FNDA:0,_RNCNCNvNtCsgTXWXfwjzne_17intervals_icu_mcp4auth15auth_middleware0s1_0B7_
FNDA:0,_RNCNCNvNtCsgTXWXfwjzne_17intervals_icu_mcp4auth15auth_middleware0s2_0B7_
FNDA:0,_RNCNCNvNtCsgTXWXfwjzne_17intervals_icu_mcp4auth15auth_middleware0s_0B7_
FNDA:5,_RNCNvMs_NtCsgTXWXfwjzne_17intervals_icu_mcp4authNtB6_10JwtManager12verify_token0B8_
FNDA:1,_RNCNvNtCsgTXWXfwjzne_17intervals_icu_mcp4auth13auth_endpoint0B5_
FNDA:0,_RNCNvNtCsgTXWXfwjzne_17intervals_icu_mcp4auth15auth_middleware0B5_
FNDA:1,_RNCNvNtNtCsgTXWXfwjzne_17intervals_icu_mcp4auth5testss_38test_auth_endpoint_invalid_credentials0B7_
FNF:53
FNH:47
DA:22,16
DA:23,16
DA:24,16
DA:68,8
DA:69,8
DA:71,7
DA:72,1
DA:73,6
DA:75,6
DA:76,6
DA:77,6
DA:79,6
DA:80,6
DA:81,6
DA:82,6
DA:84,6
DA:85,6
DA:86,6
DA:87,6
DA:88,8
DA:117,16
DA:118,16
DA:119,16
DA:120,16
DA:121,16
DA:122,16
DA:123,16
DA:124,16
DA:126,4
DA:127,4
DA:128,4
DA:129,4
DA:130,4
DA:131,4
DA:132,4
DA:133,4
DA:135,10
DA:136,10
DA:137,10
DA:138,10
DA:139,10
DA:140,10
DA:141,10
DA:143,10
DA:144,10
DA:145,10
DA:146,10
DA:148,10
DA:149,10
DA:150,10
DA:151,10
DA:153,10
DA:154,10
DA:155,10
DA:156,10
DA:158,11
DA:159,11
DA:160,11
DA:161,11
DA:162,11
DA:163,11
DA:164,11
DA:166,11
DA:167,11
DA:168,11
DA:169,11
DA:170,5
DA:171,0
DA:173,5
DA:175,5
DA:177,6
DA:179,6
DA:180,6
DA:181,6
DA:182,6
DA:183,11
DA:185,16
DA:186,16
DA:187,16
DA:188,16
DA:190,16
DA:191,16
DA:192,16
DA:194,16
DA:195,16
DA:196,16
DA:197,16
DA:199,8
DA:200,8
DA:201,8
DA:202,8
DA:204,8
DA:205,0
DA:206,8
DA:208,8
DA:209,8
DA:211,8
DA:212,8
DA:213,8
DA:214,8
DA:216,7
DA:217,8
DA:246,7
DA:247,7
DA:248,1
DA:249,1
DA:250,1
DA:251,1
DA:252,1
DA:253,1
DA:254,0
DA:255,0
DA:256,0
DA:257,1
DA:260,7
DA:261,7
DA:265,1
DA:266,1
DA:267,1
DA:268,1
DA:269,1
DA:270,1
DA:273,1
DA:274,1
DA:275,1
DA:276,1
DA:280,1
DA:281,1
DA:287,1
DA:288,1
DA:291,0
DA:292,0
DA:293,0
DA:294,0
DA:297,0
DA:299,0
DA:305,0
DA:306,0
DA:307,0
DA:308,0
DA:309,0
DA:310,1
DA:313,0
DA:314,0
DA:315,0
DA:316,0
DA:317,0
DA:322,0
DA:323,0
DA:324,0
DA:325,0
DA:326,0
DA:329,0
DA:330,0
DA:331,0
DA:332,0
DA:333,0
DA:334,0
DA:336,0
DA:337,0
DA:338,0
DA:340,0
DA:341,0
DA:343,0
DA:344,0
DA:350,0
DA:351,0
DA:352,0
DA:354,0
DA:355,0
DA:356,0
DA:360,0
DA:365,0
DA:366,0
DA:367,0
DA:370,0
DA:372,0
DA:374,0
DA:375,0
DA:381,7
DA:382,7
DA:383,7
DA:385,12
DA:386,12
DA:387,12
DA:388,12
DA:389,12
DA:392,1
DA:393,1
DA:394,1
DA:395,1
DA:396,1
DA:397,1
DA:398,1
DA:401,1
DA:402,1
DA:403,1
DA:404,1
DA:405,1
DA:406,1
DA:407,1
DA:410,1
DA:411,1
DA:412,1
DA:413,1
DA:414,1
DA:415,1
DA:416,1
DA:419,1
DA:420,1
DA:421,1
DA:422,1
DA:424,1
DA:425,1
DA:426,1
DA:428,1
DA:430,1
DA:431,1
DA:434,1
DA:435,1
DA:436,1
DA:437,1
DA:438,1
DA:439,1
DA:440,1
DA:441,1
DA:444,1
DA:445,1
DA:446,1
DA:447,1
DA:448,1
DA:449,1
DA:450,1
DA:451,1
DA:452,1
DA:455,1
DA:456,1
DA:457,1
DA:458,1
DA:459,1
DA:462,1
DA:463,1
DA:464,1
DA:465,1
DA:466,1
DA:467,1
DA:468,1
DA:469,1
DA:470,1
DA:471,1
DA:472,1
DA:475,1
DA:476,1
DA:477,1
DA:478,1
DA:479,1
DA:480,1
DA:481,1
DA:482,1
DA:483,1
DA:486,1
DA:487,1
DA:488,1
DA:489,1
DA:490,1
DA:491,1
DA:492,1
DA:493,1
DA:495,1
DA:496,1
DA:497,1
DA:499,1
DA:500,1
DA:502,1
DA:503,1
DA:506,1
DA:507,1
DA:508,1
DA:509,1
DA:510,1
DA:511,1
DA:512,1
DA:513,1
DA:515,1
DA:516,1
DA:517,1
DA:519,1
DA:520,1
DA:522,1
DA:523,1
DA:526,1
DA:527,1
DA:528,1
DA:529,1
DA:530,1
DA:531,1
DA:532,1
DA:533,1
DA:534,1
DA:535,1
DA:537,1
DA:540,1
DA:541,1
DA:542,1
DA:543,1
DA:544,1
DA:545,1
DA:546,1
DA:549,1
DA:550,1
DA:551,1
DA:552,1
DA:555,1
DA:556,1
DA:557,1
DA:558,1
DA:561,1
DA:562,1
DA:563,1
DA:564,1
DA:567,1
DA:568,1
DA:569,1
DA:570,1
DA:573,1
DA:574,1
DA:575,1
DA:576,1
DA:579,1
DA:580,1
DA:581,1
DA:582,1
DA:585,1
DA:587,1
DA:588,1
DA:589,1
DA:592,1
DA:593,1
DA:594,1
DA:595,1
DA:596,1
DA:597,1
DA:598,1
DA:599,1
DA:601,1
DA:602,1
DA:603,1
DA:604,1
DA:605,1
DA:608,1
DA:609,1
DA:610,1
DA:611,1
DA:612,1
DA:614,1
DA:615,1
DA:616,1
DA:617,1
DA:620,1
DA:621,1
DA:622,1
DA:623,1
DA:624,1
DA:627,1
DA:628,1
DA:629,1
DA:630,1
DA:631,1
DA:632,1
DA:633,1
DA:634,1
DA:636,1
DA:637,1
DA:638,1
DA:639,1
DA:643,1
DA:644,1
DA:645,1
DA:646,1
DA:647,1
DA:648,1
DA:651,1
DA:652,1
DA:660,1
DA:662,1
DA:664,1
DA:666,1
DA:667,1
DA:668,1
DA:669,1
DA:670,1
DA:674,1
DA:675,1
DA:677,1
DA:679,1
DA:680,1
DA:681,1
DA:685,1
DA:687,1
DA:689,1
DA:691,1
DA:692,1
DA:693,1
DA:697,1
DA:698,1
DA:700,1
DA:703,1
DA:706,1
DA:707,1
DA:708,1
DA:712,1
DA:713,1
DA:715,1
DA:716,1
DA:718,1
DA:719,1
DA:720,1
DA:724,1
DA:725,1
DA:727,1
DA:728,1
DA:730,1
DA:731,1
DA:734,1
DA:737,1
DA:739,1
DA:740,1
DA:741,1
DA:745,1
DA:746,1
DA:747,1
DA:749,1
DA:750,1
DA:752,1
DA:753,1
DA:755,1
DA:756,1
DA:758,1
DA:759,1
DA:762,1
DA:765,1
DA:766,1
BRF:0
BRH:0
LF:454
LH:396
end_of_record
SF:/Users/solovey/Documents/dev/rusty_intervals_mcp/crates/intervals_icu_mcp/src/compact.rs
FN:199,_RNvNtNtCsgTXWXfwjzne_17intervals_icu_mcp7compact5testss_24test_filter_array_fields
FN:227,_RNvNtNtCsgTXWXfwjzne_17intervals_icu_mcp7compact5testss_25test_filter_fields_object
FN:186,_RNvNtNtCsgTXWXfwjzne_17intervals_icu_mcp7compact5testss_29test_compact_array_with_limit
FN:263,_RNvNtNtCsgTXWXfwjzne_17intervals_icu_mcp7compact5testss_31test_compact_item_with_defaults
FN:160,_RNvNtNtCsgTXWXfwjzne_17intervals_icu_mcp7compact5testss_33test_compact_object_with_defaults
FN:278,_RNvNtNtCsgTXWXfwjzne_17intervals_icu_mcp7compact5testss_36test_compact_item_with_custom_fields
FN:256,_RNvNtNtCsgTXWXfwjzne_17intervals_icu_mcp7compact5testss_36test_compact_non_array_returns_clone
FN:249,_RNvNtNtCsgTXWXfwjzne_17intervals_icu_mcp7compact5testss_37test_compact_non_object_returns_clone
FN:173,_RNvNtNtCsgTXWXfwjzne_17intervals_icu_mcp7compact5testss_38test_compact_object_with_custom_fields
FN:239,_RNvNtNtCsgTXWXfwjzne_17intervals_icu_mcp7compact5testss_43test_filter_fields_non_object_returns_clone
FN:212,_RNvNtNtCsgTXWXfwjzne_17intervals_icu_mcp7compact5testss_51test_filter_array_fields_preserves_non_object_items
FN:294,_RNvNtNtCsgTXWXfwjzne_17intervals_icu_mcp7compact5testss_57test_resolve_fields_macro_uses_defaults_and_custom_values
FN:21,_RNCNCNvNtNtCsgTXWXfwjzne_17intervals_icu_mcp7compact5testss_57test_resolve_fields_macro_uses_defaults_and_custom_values00B9_
FN:21,_RNCNCNvNtNtCsgTXWXfwjzne_17intervals_icu_mcp7compact5testss_57test_resolve_fields_macro_uses_defaults_and_custom_valuess0_00B9_
FN:21,_RNCNvNtNtCsgTXWXfwjzne_17intervals_icu_mcp7compact5testss_57test_resolve_fields_macro_uses_defaults_and_custom_values0B7_
FN:21,_RNCNvNtNtCsgTXWXfwjzne_17intervals_icu_mcp7compact5testss_57test_resolve_fields_macro_uses_defaults_and_custom_valuess0_0B7_
FN:22,_RNCNvNtNtCsgTXWXfwjzne_17intervals_icu_mcp7compact5testss_57test_resolve_fields_macro_uses_defaults_and_custom_valuess1_0B7_
FN:22,_RNCNvNtNtCsgTXWXfwjzne_17intervals_icu_mcp7compact5testss_57test_resolve_fields_macro_uses_defaults_and_custom_valuess_0B7_
FN:58,_RNvNtCsgTXWXfwjzne_17intervals_icu_mcp7compact13compact_array
FN:113,_RNvNtCsgTXWXfwjzne_17intervals_icu_mcp7compact13filter_fields
FN:32,_RNvNtCsgTXWXfwjzne_17intervals_icu_mcp7compact14compact_object
FN:85,_RNvNtCsgTXWXfwjzne_17intervals_icu_mcp7compact19filter_array_fields
FN:138,_RINvNtCsgTXWXfwjzne_17intervals_icu_mcp7compact12compact_itemNtCs53IyN0ZgnbU_20intervals_icu_client5EventEB4_
FN:138,_RINvNtCsgTXWXfwjzne_17intervals_icu_mcp7compact12compact_itemNtNtB2_5tests8TestItemEB4_
FN:34,_RNCNCNvNtCsgTXWXfwjzne_17intervals_icu_mcp7compact14compact_object00B7_
FN:76,_RNCNvNtCsgTXWXfwjzne_17intervals_icu_mcp7compact13compact_array0B5_
FN:34,_RNCNvNtCsgTXWXfwjzne_17intervals_icu_mcp7compact14compact_object0B5_
FN:35,_RNCNvNtCsgTXWXfwjzne_17intervals_icu_mcp7compact14compact_objects_0B5_
FN:90,_RNCNvNtCsgTXWXfwjzne_17intervals_icu_mcp7compact19filter_array_fields0B5_
FN:94,_RNCNvNtCsgTXWXfwjzne_17intervals_icu_mcp7compact19filter_array_fieldss_0B5_
FN:21,_RNCNCNvNtNtCsgTXWXfwjzne_17intervals_icu_mcp7domains14sport_settings22compact_sport_settingss_00B9_
FN:22,_RNCNvNtNtCsgTXWXfwjzne_17intervals_icu_mcp7domains14sport_settings22compact_sport_settingss0_0B7_
FN:21,_RNCNvNtNtCsgTXWXfwjzne_17intervals_icu_mcp7domains14sport_settings22compact_sport_settingss_0B7_
FNDA:1,_RNvNtNtCsgTXWXfwjzne_17intervals_icu_mcp7compact5testss_24test_filter_array_fields
FNDA:1,_RNvNtNtCsgTXWXfwjzne_17intervals_icu_mcp7compact5testss_25test_filter_fields_object
FNDA:1,_RNvNtNtCsgTXWXfwjzne_17intervals_icu_mcp7compact5testss_29test_compact_array_with_limit
FNDA:1,_RNvNtNtCsgTXWXfwjzne_17intervals_icu_mcp7compact5testss_31test_compact_item_with_defaults
FNDA:1,_RNvNtNtCsgTXWXfwjzne_17intervals_icu_mcp7compact5testss_33test_compact_object_with_defaults
FNDA:1,_RNvNtNtCsgTXWXfwjzne_17intervals_icu_mcp7compact5testss_36test_compact_item_with_custom_fields
FNDA:1,_RNvNtNtCsgTXWXfwjzne_17intervals_icu_mcp7compact5testss_36test_compact_non_array_returns_clone
FNDA:1,_RNvNtNtCsgTXWXfwjzne_17intervals_icu_mcp7compact5testss_37test_compact_non_object_returns_clone
FNDA:1,_RNvNtNtCsgTXWXfwjzne_17intervals_icu_mcp7compact5testss_38test_compact_object_with_custom_fields
FNDA:1,_RNvNtNtCsgTXWXfwjzne_17intervals_icu_mcp7compact5testss_43test_filter_fields_non_object_returns_clone
FNDA:1,_RNvNtNtCsgTXWXfwjzne_17intervals_icu_mcp7compact5testss_51test_filter_array_fields_preserves_non_object_items
FNDA:1,_RNvNtNtCsgTXWXfwjzne_17intervals_icu_mcp7compact5testss_57test_resolve_fields_macro_uses_defaults_and_custom_values
FNDA:0,_RNCNCNvNtNtCsgTXWXfwjzne_17intervals_icu_mcp7compact5testss_57test_resolve_fields_macro_uses_defaults_and_custom_values00B9_
FNDA:2,_RNCNCNvNtNtCsgTXWXfwjzne_17intervals_icu_mcp7compact5testss_57test_resolve_fields_macro_uses_defaults_and_custom_valuess0_00B9_
FNDA:0,_RNCNvNtNtCsgTXWXfwjzne_17intervals_icu_mcp7compact5testss_57test_resolve_fields_macro_uses_defaults_and_custom_values0B7_
FNDA:1,_RNCNvNtNtCsgTXWXfwjzne_17intervals_icu_mcp7compact5testss_57test_resolve_fields_macro_uses_defaults_and_custom_valuess0_0B7_
FNDA:0,_RNCNvNtNtCsgTXWXfwjzne_17intervals_icu_mcp7compact5testss_57test_resolve_fields_macro_uses_defaults_and_custom_valuess1_0B7_
FNDA:1,_RNCNvNtNtCsgTXWXfwjzne_17intervals_icu_mcp7compact5testss_57test_resolve_fields_macro_uses_defaults_and_custom_valuess_0B7_
FNDA:6,_RNvNtCsgTXWXfwjzne_17intervals_icu_mcp7compact13compact_array
FNDA:2,_RNvNtCsgTXWXfwjzne_17intervals_icu_mcp7compact13filter_fields
FNDA:27,_RNvNtCsgTXWXfwjzne_17intervals_icu_mcp7compact14compact_object
FNDA:2,_RNvNtCsgTXWXfwjzne_17intervals_icu_mcp7compact19filter_array_fields
FNDA:3,_RINvNtCsgTXWXfwjzne_17intervals_icu_mcp7compact12compact_itemNtCs53IyN0ZgnbU_20intervals_icu_client5EventEB4_
FNDA:2,_RINvNtCsgTXWXfwjzne_17intervals_icu_mcp7compact12compact_itemNtNtB2_5tests8TestItemEB4_
FNDA:11,_RNCNCNvNtCsgTXWXfwjzne_17intervals_icu_mcp7compact14compact_object00B7_
FNDA:8,_RNCNvNtCsgTXWXfwjzne_17intervals_icu_mcp7compact13compact_array0B5_
FNDA:8,_RNCNvNtCsgTXWXfwjzne_17intervals_icu_mcp7compact14compact_object0B5_
FNDA:19,_RNCNvNtCsgTXWXfwjzne_17intervals_icu_mcp7compact14compact_objects_0B5_
FNDA:3,_RNCNvNtCsgTXWXfwjzne_17intervals_icu_mcp7compact19filter_array_fields0B5_
FNDA:4,_RNCNvNtCsgTXWXfwjzne_17intervals_icu_mcp7compact19filter_array_fieldss_0B5_
FNDA:0,_RNCNCNvNtNtCsgTXWXfwjzne_17intervals_icu_mcp7domains14sport_settings22compact_sport_settingss_00B9_
FNDA:2,_RNCNvNtNtCsgTXWXfwjzne_17intervals_icu_mcp7domains14sport_settings22compact_sport_settingss0_0B7_
FNDA:0,_RNCNvNtNtCsgTXWXfwjzne_17intervals_icu_mcp7domains14sport_settings22compact_sport_settingss_0B7_
FNF:26
FNH:26
DA:21,2
DA:22,3
DA:32,27
DA:33,27
DA:34,27
DA:35,27
DA:37,27
DA:38,2
DA:41,25
DA:42,93
DA:43,93
DA:44,70
DA:45,70
DA:48,25
DA:49,27
DA:58,6
DA:59,6
DA:60,6
DA:61,6
DA:62,6
DA:63,6
DA:64,6
DA:65,1
DA:68,5
DA:69,5
DA:70,2
DA:72,3
DA:75,5
DA:76,8
DA:77,5
DA:79,5
DA:80,6
DA:85,2
DA:86,2
DA:87,0
DA:90,3
DA:92,2
DA:93,2
DA:94,4
DA:95,4
DA:96,1
DA:99,3
DA:100,5
DA:101,5
DA:102,5
DA:103,5
DA:105,3
DA:106,4
DA:107,2
DA:109,2
DA:110,2
DA:113,2
DA:114,2
DA:115,1
DA:118,1
DA:119,2
DA:120,2
DA:121,2
DA:122,2
DA:125,1
DA:126,2
DA:138,5
DA:139,5
DA:140,5
DA:141,5
DA:142,5
DA:143,5
DA:144,5
DA:145,5
DA:160,1
DA:161,1
DA:162,1
DA:163,1
DA:164,1
DA:166,1
DA:167,1
DA:168,1
DA:169,1
DA:170,1
DA:173,1
DA:174,1
DA:175,1
DA:176,1
DA:177,1
DA:179,1
DA:180,1
DA:181,1
DA:182,1
DA:183,1
DA:186,1
DA:187,1
DA:188,1
DA:189,1
DA:190,1
DA:192,1
DA:193,1
DA:194,1
DA:195,1
DA:196,1
DA:199,1
DA:200,1
DA:201,1
DA:202,1
DA:204,1
DA:205,1
DA:206,1
DA:207,1
DA:208,1
DA:209,1
DA:212,1
DA:213,1
DA:214,1
DA:217,1
DA:219,1
DA:220,1
DA:222,1
DA:223,1
DA:224,1
DA:227,1
DA:228,1
DA:229,1
DA:231,1
DA:233,1
DA:234,1
DA:235,1
DA:236,1
DA:239,1
DA:240,1
DA:241,1
DA:243,1
DA:245,1
DA:246,1
DA:249,1
DA:250,1
DA:251,1
DA:252,1
DA:253,1
DA:256,1
DA:257,1
DA:258,1
DA:259,1
DA:260,1
DA:263,1
DA:264,1
DA:265,1
DA:266,1
DA:267,1
DA:268,1
DA:270,1
DA:272,1
DA:273,1
DA:274,1
DA:275,1
DA:278,1
DA:279,1
DA:280,1
DA:281,1
DA:282,1
DA:283,1
DA:284,1
DA:286,1
DA:288,1
DA:289,1
DA:290,1
DA:291,1
DA:294,1
DA:295,1
DA:296,1
DA:298,1
DA:299,1
DA:301,1
DA:302,1
DA:303,1
BRF:0
BRH:0
LF:180
LH:179
end_of_record
SF:/Users/solovey/Documents/dev/rusty_intervals_mcp/crates/intervals_icu_mcp/src/domains/activity_analysis.rs
FN:191,_RNCNCNvNtNtCsgTXWXfwjzne_17intervals_icu_mcp7domains17activity_analysis17compact_intervals00B9_
FN:158,_RNCNCNvNtNtCsgTXWXfwjzne_17intervals_icu_mcp7domains17activity_analysis19transform_intervalss1_00B9_
FN:407,_RNCNvNtNtCsgTXWXfwjzne_17intervals_icu_mcp7domains17activity_analysis13vert_per_week0B7_
FN:398,_RNCNvNtNtCsgTXWXfwjzne_17intervals_icu_mcp7domains17activity_analysis17back_to_back_load0B7_
FN:191,_RNCNvNtNtCsgTXWXfwjzne_17intervals_icu_mcp7domains17activity_analysis17compact_intervals0B7_
FN:200,_RNCNvNtNtCsgTXWXfwjzne_17intervals_icu_mcp7domains17activity_analysis17compact_intervalss0_0B7_
FN:192,_RNCNvNtNtCsgTXWXfwjzne_17intervals_icu_mcp7domains17activity_analysis17compact_intervalss_0B7_
FN:33,_RNCNvNtNtCsgTXWXfwjzne_17intervals_icu_mcp7domains17activity_analysis17transform_streams0B7_
FN:353,_RNCNvNtNtCsgTXWXfwjzne_17intervals_icu_mcp7domains17activity_analysis19transform_histogram0B7_
FN:359,_RNCNvNtNtCsgTXWXfwjzne_17intervals_icu_mcp7domains17activity_analysis19transform_histograms0_0B7_
FN:360,_RNCNvNtNtCsgTXWXfwjzne_17intervals_icu_mcp7domains17activity_analysis19transform_histograms1_0B7_
FN:354,_RNCNvNtNtCsgTXWXfwjzne_17intervals_icu_mcp7domains17activity_analysis19transform_histograms_0B7_
FN:128,_RNCNvNtNtCsgTXWXfwjzne_17intervals_icu_mcp7domains17activity_analysis19transform_intervals0B7_
FN:134,_RNCNvNtNtCsgTXWXfwjzne_17intervals_icu_mcp7domains17activity_analysis19transform_intervalss0_0B7_
FN:158,_RNCNvNtNtCsgTXWXfwjzne_17intervals_icu_mcp7domains17activity_analysis19transform_intervalss1_0B7_
FN:159,_RNCNvNtNtCsgTXWXfwjzne_17intervals_icu_mcp7domains17activity_analysis19transform_intervalss2_0B7_
FN:164,_RNCNvNtNtCsgTXWXfwjzne_17intervals_icu_mcp7domains17activity_analysis19transform_intervalss3_0B7_
FN:131,_RNCNvNtNtCsgTXWXfwjzne_17intervals_icu_mcp7domains17activity_analysis19transform_intervalss_0B7_
FN:404,_RNvNtNtCsgTXWXfwjzne_17intervals_icu_mcp7domains17activity_analysis13vert_per_week
FN:395,_RNvNtNtCsgTXWXfwjzne_17intervals_icu_mcp7domains17activity_analysis17back_to_back_load
FN:181,_RNvNtNtCsgTXWXfwjzne_17intervals_icu_mcp7domains17activity_analysis17compact_intervals
FN:413,_RNvNtNtCsgTXWXfwjzne_17intervals_icu_mcp7domains17activity_analysis17longest_run_ratio
FN:19,_RNvNtNtCsgTXWXfwjzne_17intervals_icu_mcp7domains17activity_analysis17transform_streams
FN:345,_RNvNtNtCsgTXWXfwjzne_17intervals_icu_mcp7domains17activity_analysis19transform_histogram
FN:110,_RNvNtNtCsgTXWXfwjzne_17intervals_icu_mcp7domains17activity_analysis19transform_intervals
FN:425,_RNvNtNtCsgTXWXfwjzne_17intervals_icu_mcp7domains17activity_analysis27elevation_specificity_score
FN:450,_RNvNtNtNtCsgTXWXfwjzne_17intervals_icu_mcp7domains17activity_analysis5testss_26downsample_preserves_edges
FN:472,_RNvNtNtNtCsgTXWXfwjzne_17intervals_icu_mcp7domains17activity_analysis5testss_33compute_stream_stats_single_value
FN:518,_RNvNtNtNtCsgTXWXfwjzne_17intervals_icu_mcp7domains17activity_analysis5testss_33downsample_array_no_change_needed
FN:529,_RNvNtNtNtCsgTXWXfwjzne_17intervals_icu_mcp7domains17activity_analysis5testss_33downsample_array_target_too_small
FN:504,_RNvNtNtNtCsgTXWXfwjzne_17intervals_icu_mcp7domains17activity_analysis5testss_34compute_stream_stats_with_integers
FN:540,_RNvNtNtNtCsgTXWXfwjzne_17intervals_icu_mcp7domains17activity_analysis5testss_35downsample_array_basic_downsampling
FN:485,_RNvNtNtNtCsgTXWXfwjzne_17intervals_icu_mcp7domains17activity_analysis5testss_36compute_stream_stats_multiple_values
FN:444,_RNvNtNtNtCsgTXWXfwjzne_17intervals_icu_mcp7domains17activity_analysis5testss_37stream_stats_empty_returns_zero_count
FN:562,_RNvNtNtNtCsgTXWXfwjzne_17intervals_icu_mcp7domains17activity_analysis5testss_40transform_curves_parallel_arrays_summary
FN:549,_RNvNtNtNtCsgTXWXfwjzne_17intervals_icu_mcp7domains17activity_analysis5testss_41downsample_array_preserves_first_and_last
FN:615,_RNvNtNtNtCsgTXWXfwjzne_17intervals_icu_mcp7domains17activity_analysis5testss_41transform_curves_no_summary_returns_clone
FN:461,_RNvNtNtNtCsgTXWXfwjzne_17intervals_icu_mcp7domains17activity_analysis5testss_42summarize_best_efforts_keeps_compact_shape
FN:587,_RNvNtNtNtCsgTXWXfwjzne_17intervals_icu_mcp7domains17activity_analysis5testss_49transform_curves_parallel_arrays_custom_durations
FN:601,_RNvNtNtNtCsgTXWXfwjzne_17intervals_icu_mcp7domains17activity_analysis5testss_59transform_curves_parallel_arrays_unmatched_duration_skipped
FN:61,_RNCNCNCNvNtNtCsgTXWXfwjzne_17intervals_icu_mcp7domains17activity_analysis20compute_stream_stats000Bb_
FN:285,_RNCNCNvNtNtCsgTXWXfwjzne_17intervals_icu_mcp7domains17activity_analysis16transform_curvess1_00B9_
FN:286,_RNCNCNvNtNtCsgTXWXfwjzne_17intervals_icu_mcp7domains17activity_analysis16transform_curvess1_0s_0B9_
FN:61,_RNCNCNvNtNtCsgTXWXfwjzne_17intervals_icu_mcp7domains17activity_analysis20compute_stream_stats00B9_
FN:320,_RNCNCNvNtNtCsgTXWXfwjzne_17intervals_icu_mcp7domains17activity_analysis29extract_parallel_curve_pointss_00B9_
FN:269,_RNCNvNtNtCsgTXWXfwjzne_17intervals_icu_mcp7domains17activity_analysis16transform_curves0B7_
FN:276,_RNCNvNtNtCsgTXWXfwjzne_17intervals_icu_mcp7domains17activity_analysis16transform_curvess0_0B7_
FN:283,_RNCNvNtNtCsgTXWXfwjzne_17intervals_icu_mcp7domains17activity_analysis16transform_curvess1_0B7_
FN:270,_RNCNvNtNtCsgTXWXfwjzne_17intervals_icu_mcp7domains17activity_analysis16transform_curvess_0B7_
FN:61,_RNCNvNtNtCsgTXWXfwjzne_17intervals_icu_mcp7domains17activity_analysis20compute_stream_stats0B7_
FN:75,_RNCNvNtNtCsgTXWXfwjzne_17intervals_icu_mcp7domains17activity_analysis20compute_stream_statss_0B7_
FN:224,_RNCNvNtNtCsgTXWXfwjzne_17intervals_icu_mcp7domains17activity_analysis22summarize_best_efforts0B7_
FN:312,_RNCNvNtNtCsgTXWXfwjzne_17intervals_icu_mcp7domains17activity_analysis29extract_parallel_curve_points0B7_
FN:325,_RNCNvNtNtCsgTXWXfwjzne_17intervals_icu_mcp7domains17activity_analysis29extract_parallel_curve_pointss0_0B7_
FN:320,_RNCNvNtNtCsgTXWXfwjzne_17intervals_icu_mcp7domains17activity_analysis29extract_parallel_curve_pointss_0B7_
FN:541,_RNCNvNtNtNtCsgTXWXfwjzne_17intervals_icu_mcp7domains17activity_analysis5testss_35downsample_array_basic_downsampling0B9_
FN:573,_RNCNvNtNtNtCsgTXWXfwjzne_17intervals_icu_mcp7domains17activity_analysis5testss_40transform_curves_parallel_arrays_summary0B9_
FN:582,_RNCNvNtNtNtCsgTXWXfwjzne_17intervals_icu_mcp7domains17activity_analysis5testss_40transform_curves_parallel_arrays_summarys0_0B9_
FN:581,_RNCNvNtNtNtCsgTXWXfwjzne_17intervals_icu_mcp7domains17activity_analysis5testss_40transform_curves_parallel_arrays_summarys_0B9_
FN:595,_RNCNvNtNtNtCsgTXWXfwjzne_17intervals_icu_mcp7domains17activity_analysis5testss_49transform_curves_parallel_arrays_custom_durations0B9_
FN:91,_RNvNtNtCsgTXWXfwjzne_17intervals_icu_mcp7domains17activity_analysis16downsample_array
FN:249,_RNvNtNtCsgTXWXfwjzne_17intervals_icu_mcp7domains17activity_analysis16transform_curves
FN:58,_RNvNtNtCsgTXWXfwjzne_17intervals_icu_mcp7domains17activity_analysis20compute_stream_stats
FN:217,_RNvNtNtCsgTXWXfwjzne_17intervals_icu_mcp7domains17activity_analysis22summarize_best_efforts
FN:308,_RNvNtNtCsgTXWXfwjzne_17intervals_icu_mcp7domains17activity_analysis29extract_parallel_curve_points
FNDA:0,_RNCNCNvNtNtCsgTXWXfwjzne_17intervals_icu_mcp7domains17activity_analysis17compact_intervals00B9_
FNDA:0,_RNCNCNvNtNtCsgTXWXfwjzne_17intervals_icu_mcp7domains17activity_analysis19transform_intervalss1_00B9_
FNDA:0,_RNCNvNtNtCsgTXWXfwjzne_17intervals_icu_mcp7domains17activity_analysis13vert_per_week0B7_
FNDA:0,_RNCNvNtNtCsgTXWXfwjzne_17intervals_icu_mcp7domains17activity_analysis17back_to_back_load0B7_
FNDA:0,_RNCNvNtNtCsgTXWXfwjzne_17intervals_icu_mcp7domains17activity_analysis17compact_intervals0B7_
FNDA:0,_RNCNvNtNtCsgTXWXfwjzne_17intervals_icu_mcp7domains17activity_analysis17compact_intervalss0_0B7_
FNDA:0,_RNCNvNtNtCsgTXWXfwjzne_17intervals_icu_mcp7domains17activity_analysis17compact_intervalss_0B7_
FNDA:0,_RNCNvNtNtCsgTXWXfwjzne_17intervals_icu_mcp7domains17activity_analysis17transform_streams0B7_
FNDA:0,_RNCNvNtNtCsgTXWXfwjzne_17intervals_icu_mcp7domains17activity_analysis19transform_histogram0B7_
FNDA:0,_RNCNvNtNtCsgTXWXfwjzne_17intervals_icu_mcp7domains17activity_analysis19transform_histograms0_0B7_
FNDA:0,_RNCNvNtNtCsgTXWXfwjzne_17intervals_icu_mcp7domains17activity_analysis19transform_histograms1_0B7_
FNDA:0,_RNCNvNtNtCsgTXWXfwjzne_17intervals_icu_mcp7domains17activity_analysis19transform_histograms_0B7_
FNDA:0,_RNCNvNtNtCsgTXWXfwjzne_17intervals_icu_mcp7domains17activity_analysis19transform_intervals0B7_
FNDA:0,_RNCNvNtNtCsgTXWXfwjzne_17intervals_icu_mcp7domains17activity_analysis19transform_intervalss0_0B7_
FNDA:0,_RNCNvNtNtCsgTXWXfwjzne_17intervals_icu_mcp7domains17activity_analysis19transform_intervalss1_0B7_
FNDA:0,_RNCNvNtNtCsgTXWXfwjzne_17intervals_icu_mcp7domains17activity_analysis19transform_intervalss2_0B7_
FNDA:0,_RNCNvNtNtCsgTXWXfwjzne_17intervals_icu_mcp7domains17activity_analysis19transform_intervalss3_0B7_
FNDA:0,_RNCNvNtNtCsgTXWXfwjzne_17intervals_icu_mcp7domains17activity_analysis19transform_intervalss_0B7_
FNDA:0,_RNvNtNtCsgTXWXfwjzne_17intervals_icu_mcp7domains17activity_analysis13vert_per_week
FNDA:0,_RNvNtNtCsgTXWXfwjzne_17intervals_icu_mcp7domains17activity_analysis17back_to_back_load
FNDA:0,_RNvNtNtCsgTXWXfwjzne_17intervals_icu_mcp7domains17activity_analysis17compact_intervals
FNDA:0,_RNvNtNtCsgTXWXfwjzne_17intervals_icu_mcp7domains17activity_analysis17longest_run_ratio
FNDA:0,_RNvNtNtCsgTXWXfwjzne_17intervals_icu_mcp7domains17activity_analysis17transform_streams
FNDA:0,_RNvNtNtCsgTXWXfwjzne_17intervals_icu_mcp7domains17activity_analysis19transform_histogram
FNDA:0,_RNvNtNtCsgTXWXfwjzne_17intervals_icu_mcp7domains17activity_analysis19transform_intervals
FNDA:0,_RNvNtNtCsgTXWXfwjzne_17intervals_icu_mcp7domains17activity_analysis27elevation_specificity_score
FNDA:1,_RNvNtNtNtCsgTXWXfwjzne_17intervals_icu_mcp7domains17activity_analysis5testss_26downsample_preserves_edges
FNDA:1,_RNvNtNtNtCsgTXWXfwjzne_17intervals_icu_mcp7domains17activity_analysis5testss_33compute_stream_stats_single_value
FNDA:1,_RNvNtNtNtCsgTXWXfwjzne_17intervals_icu_mcp7domains17activity_analysis5testss_33downsample_array_no_change_needed
FNDA:1,_RNvNtNtNtCsgTXWXfwjzne_17intervals_icu_mcp7domains17activity_analysis5testss_33downsample_array_target_too_small
FNDA:1,_RNvNtNtNtCsgTXWXfwjzne_17intervals_icu_mcp7domains17activity_analysis5testss_34compute_stream_stats_with_integers
FNDA:1,_RNvNtNtNtCsgTXWXfwjzne_17intervals_icu_mcp7domains17activity_analysis5testss_35downsample_array_basic_downsampling
FNDA:1,_RNvNtNtNtCsgTXWXfwjzne_17intervals_icu_mcp7domains17activity_analysis5testss_36compute_stream_stats_multiple_values
FNDA:1,_RNvNtNtNtCsgTXWXfwjzne_17intervals_icu_mcp7domains17activity_analysis5testss_37stream_stats_empty_returns_zero_count
FNDA:1,_RNvNtNtNtCsgTXWXfwjzne_17intervals_icu_mcp7domains17activity_analysis5testss_40transform_curves_parallel_arrays_summary
FNDA:1,_RNvNtNtNtCsgTXWXfwjzne_17intervals_icu_mcp7domains17activity_analysis5testss_41downsample_array_preserves_first_and_last
FNDA:1,_RNvNtNtNtCsgTXWXfwjzne_17intervals_icu_mcp7domains17activity_analysis5testss_41transform_curves_no_summary_returns_clone
FNDA:1,_RNvNtNtNtCsgTXWXfwjzne_17intervals_icu_mcp7domains17activity_analysis5testss_42summarize_best_efforts_keeps_compact_shape
FNDA:1,_RNvNtNtNtCsgTXWXfwjzne_17intervals_icu_mcp7domains17activity_analysis5testss_49transform_curves_parallel_arrays_custom_durations
FNDA:1,_RNvNtNtNtCsgTXWXfwjzne_17intervals_icu_mcp7domains17activity_analysis5testss_59transform_curves_parallel_arrays_unmatched_duration_skipped
FNDA:0,_RNCNCNCNvNtNtCsgTXWXfwjzne_17intervals_icu_mcp7domains17activity_analysis20compute_stream_stats000Bb_
FNDA:0,_RNCNCNvNtNtCsgTXWXfwjzne_17intervals_icu_mcp7domains17activity_analysis16transform_curvess1_00B9_
FNDA:0,_RNCNCNvNtNtCsgTXWXfwjzne_17intervals_icu_mcp7domains17activity_analysis16transform_curvess1_0s_0B9_
FNDA:0,_RNCNCNvNtNtCsgTXWXfwjzne_17intervals_icu_mcp7domains17activity_analysis20compute_stream_stats00B9_
FNDA:12,_RNCNCNvNtNtCsgTXWXfwjzne_17intervals_icu_mcp7domains17activity_analysis29extract_parallel_curve_pointss_00B9_
FNDA:3,_RNCNvNtNtCsgTXWXfwjzne_17intervals_icu_mcp7domains17activity_analysis16transform_curves0B7_
FNDA:3,_RNCNvNtNtCsgTXWXfwjzne_17intervals_icu_mcp7domains17activity_analysis16transform_curvess0_0B7_
FNDA:0,_RNCNvNtNtCsgTXWXfwjzne_17intervals_icu_mcp7domains17activity_analysis16transform_curvess1_0B7_
FNDA:3,_RNCNvNtNtCsgTXWXfwjzne_17intervals_icu_mcp7domains17activity_analysis16transform_curvess_0B7_
FNDA:9,_RNCNvNtNtCsgTXWXfwjzne_17intervals_icu_mcp7domains17activity_analysis20compute_stream_stats0B7_
FNDA:6,_RNCNvNtNtCsgTXWXfwjzne_17intervals_icu_mcp7domains17activity_analysis20compute_stream_statss_0B7_
FNDA:1,_RNCNvNtNtCsgTXWXfwjzne_17intervals_icu_mcp7domains17activity_analysis22summarize_best_efforts0B7_
FNDA:3,_RNCNvNtNtCsgTXWXfwjzne_17intervals_icu_mcp7domains17activity_analysis29extract_parallel_curve_points0B7_
FNDA:10,_RNCNvNtNtCsgTXWXfwjzne_17intervals_icu_mcp7domains17activity_analysis29extract_parallel_curve_pointss0_0B7_
FNDA:12,_RNCNvNtNtCsgTXWXfwjzne_17intervals_icu_mcp7domains17activity_analysis29extract_parallel_curve_pointss_0B7_
FNDA:10,_RNCNvNtNtNtCsgTXWXfwjzne_17intervals_icu_mcp7domains17activity_analysis5testss_35downsample_array_basic_downsampling0B9_
FNDA:4,_RNCNvNtNtNtCsgTXWXfwjzne_17intervals_icu_mcp7domains17activity_analysis5testss_40transform_curves_parallel_arrays_summary0B9_
FNDA:1,_RNCNvNtNtNtCsgTXWXfwjzne_17intervals_icu_mcp7domains17activity_analysis5testss_40transform_curves_parallel_arrays_summarys0_0B9_
FNDA:1,_RNCNvNtNtNtCsgTXWXfwjzne_17intervals_icu_mcp7domains17activity_analysis5testss_40transform_curves_parallel_arrays_summarys_0B9_
FNDA:2,_RNCNvNtNtNtCsgTXWXfwjzne_17intervals_icu_mcp7domains17activity_analysis5testss_49transform_curves_parallel_arrays_custom_durations0B9_
FNDA:5,_RNvNtNtCsgTXWXfwjzne_17intervals_icu_mcp7domains17activity_analysis16downsample_array
FNDA:4,_RNvNtNtCsgTXWXfwjzne_17intervals_icu_mcp7domains17activity_analysis16transform_curves
FNDA:4,_RNvNtNtCsgTXWXfwjzne_17intervals_icu_mcp7domains17activity_analysis20compute_stream_stats
FNDA:1,_RNvNtNtCsgTXWXfwjzne_17intervals_icu_mcp7domains17activity_analysis22summarize_best_efforts
FNDA:3,_RNvNtNtCsgTXWXfwjzne_17intervals_icu_mcp7domains17activity_analysis29extract_parallel_curve_points
FNF:65
FNH:34
DA:19,0
DA:20,0
DA:21,0
DA:22,0
DA:23,0
DA:24,0
DA:25,0
DA:26,0
DA:29,0
DA:31,0
DA:32,0
DA:33,0
DA:35,0
DA:36,0
DA:38,0
DA:39,0
DA:40,0
DA:43,0
DA:44,0
DA:45,0
DA:46,0
DA:47,0
DA:48,0
DA:49,0
DA:50,0
DA:51,0
DA:52,0
DA:55,0
DA:56,0
DA:58,4
DA:59,4
DA:60,4
DA:61,9
DA:62,4
DA:64,4
DA:65,1
DA:66,3
DA:68,3
DA:69,3
DA:70,3
DA:71,3
DA:72,3
DA:74,3
DA:75,6
DA:76,3
DA:77,3
DA:78,3
DA:80,3
DA:81,3
DA:82,3
DA:83,3
DA:84,3
DA:85,3
DA:86,3
DA:87,3
DA:89,4
DA:91,5
DA:92,5
DA:93,5
DA:94,2
DA:95,3
DA:97,3
DA:98,3
DA:100,3
DA:101,3
DA:102,3
DA:103,3
DA:104,3
DA:106,3
DA:107,3
DA:108,5
DA:110,0
DA:111,0
DA:112,0
DA:113,0
DA:114,0
DA:115,0
DA:116,0
DA:117,0
DA:120,0
DA:121,0
DA:122,0
DA:123,0
DA:124,0
DA:126,0
DA:127,0
DA:128,0
DA:129,0
DA:130,0
DA:131,0
DA:132,0
DA:133,0
DA:134,0
DA:135,0
DA:136,0
DA:137,0
DA:140,0
DA:141,0
DA:142,0
DA:143,0
DA:144,0
DA:145,0
DA:147,0
DA:149,0
DA:150,0
DA:151,0
DA:152,0
DA:153,0
DA:154,0
DA:155,0
DA:156,0
DA:157,0
DA:158,0
DA:159,0
DA:161,0
DA:162,0
DA:163,0
DA:164,0
DA:165,0
DA:166,0
DA:168,0
DA:169,0
DA:170,0
DA:171,0
DA:172,0
DA:174,0
DA:175,0
DA:176,0
DA:178,0
DA:179,0
DA:181,0
DA:182,0
DA:183,0
DA:184,0
DA:185,0
DA:186,0
DA:187,0
DA:188,0
DA:189,0
DA:190,0
DA:191,0
DA:192,0
DA:194,0
DA:195,0
DA:198,0
DA:199,0
DA:200,0
DA:201,0
DA:202,0
DA:204,0
DA:205,0
DA:206,0
DA:207,0
DA:208,0
DA:210,0
DA:211,0
DA:212,0
DA:214,0
DA:215,0
DA:217,1
DA:218,1
DA:219,0
DA:222,1
DA:223,1
DA:224,1
DA:225,1
DA:226,1
DA:228,1
DA:229,1
DA:230,1
DA:231,1
DA:232,1
DA:233,1
DA:234,1
DA:235,1
DA:236,1
DA:238,1
DA:239,1
DA:240,1
DA:242,1
DA:243,1
DA:244,1
DA:245,1
DA:247,1
DA:249,4
DA:251,3
DA:252,2
DA:253,1
DA:254,1
DA:257,3
DA:258,0
DA:261,3
DA:262,6
DA:263,6
DA:267,3
DA:268,3
DA:269,3
DA:270,3
DA:271,3
DA:273,3
DA:274,3
DA:275,3
DA:276,3
DA:277,3
DA:278,3
DA:281,0
DA:282,0
DA:283,0
DA:284,0
DA:285,0
DA:286,0
DA:287,0
DA:288,0
DA:289,0
DA:290,0
DA:291,0
DA:293,3
DA:294,3
DA:295,3
DA:297,3
DA:298,4
DA:308,3
DA:309,3
DA:310,0
DA:312,3
DA:313,0
DA:317,3
DA:318,3
DA:319,3
DA:320,12
DA:321,3
DA:323,3
DA:324,3
DA:325,10
DA:326,10
DA:328,7
DA:329,7
DA:330,14
DA:331,14
DA:332,7
DA:333,7
DA:334,7
DA:335,7
DA:336,7
DA:337,7
DA:338,7
DA:340,7
DA:341,10
DA:342,3
DA:343,3
DA:345,0
DA:346,0
DA:347,0
DA:348,0
DA:349,0
DA:350,0
DA:352,0
DA:353,0
DA:354,0
DA:356,0
DA:357,0
DA:358,0
DA:359,0
DA:360,0
DA:361,0
DA:364,0
DA:365,0
DA:366,0
DA:367,0
DA:368,0
DA:369,0
DA:371,0
DA:373,0
DA:374,0
DA:376,0
DA:377,0
DA:378,0
DA:379,0
DA:380,0
DA:381,0
DA:382,0
DA:383,0
DA:384,0
DA:386,0
DA:387,0
DA:395,0
DA:396,0
DA:397,0
DA:398,0
DA:399,0
DA:400,0
DA:401,0
DA:404,0
DA:405,0
DA:406,0
DA:407,0
DA:408,0
DA:409,0
DA:413,0
DA:414,0
DA:415,0
DA:416,0
DA:417,0
DA:420,0
DA:421,0
DA:425,0
DA:426,0
DA:427,0
DA:428,0
DA:429,0
DA:430,0
DA:431,0
DA:432,0
DA:433,0
DA:435,0
DA:437,0
DA:444,1
DA:445,1
DA:446,1
DA:447,1
DA:450,1
DA:451,1
DA:452,1
DA:453,1
DA:454,1
DA:455,1
DA:456,1
DA:457,1
DA:458,1
DA:461,1
DA:462,1
DA:463,1
DA:465,1
DA:466,1
DA:467,1
DA:468,1
DA:469,1
DA:472,1
DA:473,1
DA:474,1
DA:475,1
DA:476,1
DA:477,1
DA:478,1
DA:479,1
DA:480,1
DA:481,1
DA:482,1
DA:485,1
DA:486,1
DA:487,1
DA:488,1
DA:489,1
DA:490,1
DA:491,1
DA:493,1
DA:494,1
DA:495,1
DA:496,1
DA:497,1
DA:498,1
DA:499,1
DA:500,1
DA:501,1
DA:504,1
DA:505,1
DA:506,1
DA:507,1
DA:508,1
DA:510,1
DA:511,1
DA:512,1
DA:513,1
DA:514,1
DA:515,1
DA:518,1
DA:519,1
DA:520,1
DA:521,1
DA:522,1
DA:524,1
DA:525,1
DA:526,1
DA:529,1
DA:530,1
DA:531,1
DA:532,1
DA:533,1
DA:535,1
DA:536,1
DA:537,1
DA:540,1
DA:541,10
DA:542,1
DA:543,1
DA:544,1
DA:545,1
DA:546,1
DA:549,1
DA:550,1
DA:551,1
DA:552,1
DA:553,1
DA:555,1
DA:556,1
DA:557,1
DA:558,1
DA:559,1
DA:562,1
DA:564,1
DA:565,1
DA:566,1
DA:568,1
DA:570,1
DA:571,1
DA:573,4
DA:574,1
DA:575,1
DA:576,1
DA:577,1
DA:579,1
DA:580,1
DA:581,1
DA:582,1
DA:583,1
DA:584,1
DA:587,1
DA:588,1
DA:589,1
DA:590,1
DA:592,1
DA:593,1
DA:594,1
DA:595,2
DA:596,1
DA:597,1
DA:598,1
DA:601,1
DA:602,1
DA:603,1
DA:604,1
DA:607,1
DA:608,1
DA:610,1
DA:611,1
DA:612,1
DA:615,1
DA:616,1
DA:617,1
DA:618,1
DA:619,1
BRF:0
BRH:0
LF:489
LH:268
end_of_record
SF:/Users/solovey/Documents/dev/rusty_intervals_mcp/crates/intervals_icu_mcp/src/domains/coach.rs
FN:34,_RNvMNtNtCsgTXWXfwjzne_17intervals_icu_mcp7domains5coachNtB2_14AnalysisWindow11window_days
FN:27,_RNvMNtNtCsgTXWXfwjzne_17intervals_icu_mcp7domains5coachNtB2_14AnalysisWindow3new
FN:74,_RNvMs0_NtNtCsgTXWXfwjzne_17intervals_icu_mcp7domains5coachNtB5_9DataAudit13all_available
FN:82,_RNvMs0_NtNtCsgTXWXfwjzne_17intervals_icu_mcp7domains5coachNtB5_9DataAudit20availability_summary
FN:206,_RNvMs1_NtNtCsgTXWXfwjzne_17intervals_icu_mcp7domains5coachNtB5_16EspePowerAnchors11unsupported
FN:242,_RNvMs2_NtNtCsgTXWXfwjzne_17intervals_icu_mcp7domains5coachNtB5_10WdrMetrics11unsupported
FN:355,_RNvMs3_NtNtCsgTXWXfwjzne_17intervals_icu_mcp7domains5coachNtB5_12CoachContext3new
FN:50,_RNvMs_NtNtCsgTXWXfwjzne_17intervals_icu_mcp7domains5coachNtB4_9CoachMeta3new
FN:370,_RNvNtNtNtCsgTXWXfwjzne_17intervals_icu_mcp7domains5coach5tests6window
FN:406,_RNvNtNtNtCsgTXWXfwjzne_17intervals_icu_mcp7domains5coach5testss_36coach_metrics_allow_missing_sections
FN:520,_RNvNtNtNtCsgTXWXfwjzne_17intervals_icu_mcp7domains5coach5testss_37analysis_window_counts_inclusive_days
FN:392,_RNvNtNtNtCsgTXWXfwjzne_17intervals_icu_mcp7domains5coach5testss_38coach_context_starts_with_empty_alerts
FN:441,_RNvNtNtNtCsgTXWXfwjzne_17intervals_icu_mcp7domains5coach5testss_39wellness_metrics_support_recovery_index
FN:378,_RNvNtNtNtCsgTXWXfwjzne_17intervals_icu_mcp7domains5coach5testss_42coach_context_records_degraded_mode_reason
FN:398,_RNvNtNtNtCsgTXWXfwjzne_17intervals_icu_mcp7domains5coach5testss_45coach_alert_severity_round_trips_through_json
FN:480,_RNvNtNtNtCsgTXWXfwjzne_17intervals_icu_mcp7domains5coach5testss_45vnext_metric_sections_round_trip_through_json
FN:530,_RNvNtNtNtCsgTXWXfwjzne_17intervals_icu_mcp7domains5coach5testss_49data_audit_all_available_when_all_sources_present
FN:544,_RNvNtNtNtCsgTXWXfwjzne_17intervals_icu_mcp7domains5coach5testss_50data_audit_not_all_available_when_wellness_missing
FN:558,_RNvNtNtNtCsgTXWXfwjzne_17intervals_icu_mcp7domains5coach5testss_51data_audit_availability_summary_returns_all_sources
FN:419,_RNvNtNtNtCsgTXWXfwjzne_17intervals_icu_mcp7domains5coach5testss_55coach_metrics_supports_optional_load_management_section
FN:459,_RNvNtNtNtCsgTXWXfwjzne_17intervals_icu_mcp7domains5coach5testss_59workout_metrics_support_execution_efficiency_and_decoupling
FNDA:48,_RNvMNtNtCsgTXWXfwjzne_17intervals_icu_mcp7domains5coachNtB2_14AnalysisWindow11window_days
FNDA:58,_RNvMNtNtCsgTXWXfwjzne_17intervals_icu_mcp7domains5coachNtB2_14AnalysisWindow3new
FNDA:11,_RNvMs0_NtNtCsgTXWXfwjzne_17intervals_icu_mcp7domains5coachNtB5_9DataAudit13all_available
FNDA:1,_RNvMs0_NtNtCsgTXWXfwjzne_17intervals_icu_mcp7domains5coachNtB5_9DataAudit20availability_summary
FNDA:13,_RNvMs1_NtNtCsgTXWXfwjzne_17intervals_icu_mcp7domains5coachNtB5_16EspePowerAnchors11unsupported
FNDA:10,_RNvMs2_NtNtCsgTXWXfwjzne_17intervals_icu_mcp7domains5coachNtB5_10WdrMetrics11unsupported
FNDA:17,_RNvMs3_NtNtCsgTXWXfwjzne_17intervals_icu_mcp7domains5coachNtB5_12CoachContext3new
FNDA:17,_RNvMs_NtNtCsgTXWXfwjzne_17intervals_icu_mcp7domains5coachNtB4_9CoachMeta3new
FNDA:2,_RNvNtNtNtCsgTXWXfwjzne_17intervals_icu_mcp7domains5coach5tests6window
FNDA:1,_RNvNtNtNtCsgTXWXfwjzne_17intervals_icu_mcp7domains5coach5testss_36coach_metrics_allow_missing_sections
FNDA:1,_RNvNtNtNtCsgTXWXfwjzne_17intervals_icu_mcp7domains5coach5testss_37analysis_window_counts_inclusive_days
FNDA:1,_RNvNtNtNtCsgTXWXfwjzne_17intervals_icu_mcp7domains5coach5testss_38coach_context_starts_with_empty_alerts
FNDA:1,_RNvNtNtNtCsgTXWXfwjzne_17intervals_icu_mcp7domains5coach5testss_39wellness_metrics_support_recovery_index
FNDA:1,_RNvNtNtNtCsgTXWXfwjzne_17intervals_icu_mcp7domains5coach5testss_42coach_context_records_degraded_mode_reason
FNDA:1,_RNvNtNtNtCsgTXWXfwjzne_17intervals_icu_mcp7domains5coach5testss_45coach_alert_severity_round_trips_through_json
FNDA:1,_RNvNtNtNtCsgTXWXfwjzne_17intervals_icu_mcp7domains5coach5testss_45vnext_metric_sections_round_trip_through_json
FNDA:1,_RNvNtNtNtCsgTXWXfwjzne_17intervals_icu_mcp7domains5coach5testss_49data_audit_all_available_when_all_sources_present
FNDA:1,_RNvNtNtNtCsgTXWXfwjzne_17intervals_icu_mcp7domains5coach5testss_50data_audit_not_all_available_when_wellness_missing
FNDA:1,_RNvNtNtNtCsgTXWXfwjzne_17intervals_icu_mcp7domains5coach5testss_51data_audit_availability_summary_returns_all_sources
FNDA:1,_RNvNtNtNtCsgTXWXfwjzne_17intervals_icu_mcp7domains5coach5testss_55coach_metrics_supports_optional_load_management_section
FNDA:1,_RNvNtNtNtCsgTXWXfwjzne_17intervals_icu_mcp7domains5coach5testss_59workout_metrics_support_execution_efficiency_and_decoupling
FNF:21
FNH:21
DA:27,58
DA:28,58
DA:29,58
DA:30,58
DA:31,58
DA:32,58
DA:34,48
DA:35,48
DA:36,48
DA:50,17
DA:51,17
DA:52,17
DA:53,17
DA:54,17
DA:55,17
DA:56,17
DA:57,17
DA:58,17
DA:59,17
DA:74,11
DA:75,11
DA:76,11
DA:77,1
DA:78,1
DA:79,11
DA:82,1
DA:83,1
DA:84,1
DA:85,1
DA:86,1
DA:87,1
DA:88,1
DA:90,1
DA:206,13
DA:207,13
DA:208,13
DA:209,13
DA:210,13
DA:211,13
DA:212,13
DA:242,10
DA:243,10
DA:244,10
DA:245,10
DA:246,10
DA:247,10
DA:355,17
DA:356,17
DA:357,17
DA:358,17
DA:359,17
DA:360,17
DA:361,17
DA:362,17
DA:363,17
DA:370,2
DA:371,2
DA:372,2
DA:373,2
DA:375,2
DA:378,1
DA:379,1
DA:380,1
DA:381,1
DA:382,1
DA:384,1
DA:385,1
DA:386,1
DA:389,1
DA:392,1
DA:393,1
DA:394,1
DA:395,1
DA:398,1
DA:399,1
DA:400,1
DA:402,1
DA:403,1
DA:406,1
DA:407,1
DA:409,1
DA:410,1
DA:411,1
DA:412,1
DA:413,1
DA:414,1
DA:415,1
DA:416,1
DA:419,1
DA:420,1
DA:421,1
DA:422,1
DA:423,1
DA:424,1
DA:425,1
DA:426,1
DA:427,1
DA:428,1
DA:429,1
DA:430,1
DA:431,1
DA:432,1
DA:433,1
DA:434,1
DA:435,1
DA:437,1
DA:438,1
DA:441,1
DA:442,1
DA:443,1
DA:444,1
DA:445,1
DA:446,1
DA:447,1
DA:448,1
DA:449,1
DA:450,1
DA:451,1
DA:452,1
DA:453,1
DA:455,1
DA:456,1
DA:459,1
DA:460,1
DA:461,1
DA:462,1
DA:463,1
DA:464,1
DA:465,1
DA:466,1
DA:467,1
DA:468,1
DA:469,1
DA:470,1
DA:471,1
DA:472,1
DA:473,1
DA:475,1
DA:476,1
DA:477,1
DA:480,1
DA:481,1
DA:482,1
DA:483,1
DA:484,1
DA:485,1
DA:486,1
DA:487,1
DA:488,1
DA:489,1
DA:490,1
DA:491,1
DA:492,1
DA:493,1
DA:494,1
DA:495,1
DA:496,1
DA:497,1
DA:498,1
DA:499,1
DA:500,1
DA:501,1
DA:502,1
DA:503,1
DA:504,1
DA:505,1
DA:506,1
DA:507,1
DA:508,1
DA:509,1
DA:510,1
DA:511,1
DA:513,1
DA:514,1
DA:516,1
DA:517,1
DA:520,1
DA:521,1
DA:522,1
DA:523,1
DA:526,1
DA:527,1
DA:530,1
DA:531,1
DA:532,1
DA:533,1
DA:534,1
DA:535,1
DA:536,1
DA:537,1
DA:538,1
DA:540,1
DA:541,1
DA:544,1
DA:545,1
DA:546,1
DA:547,1
DA:548,1
DA:549,1
DA:550,1
DA:551,1
DA:552,1
DA:554,1
DA:555,1
DA:558,1
DA:559,1
DA:560,1
DA:561,1
DA:562,1
DA:563,1
DA:564,1
DA:565,1
DA:566,1
DA:568,1
DA:569,1
DA:570,1
DA:571,1
DA:572,1
DA:573,1
DA:574,1
DA:575,1
BRF:0
BRH:0
LF:221
LH:221
end_of_record
SF:/Users/solovey/Documents/dev/rusty_intervals_mcp/crates/intervals_icu_mcp/src/domains/events.rs
FN:58,_RNvNtNtCsgTXWXfwjzne_17intervals_icu_mcp7domains6events19filter_event_fields
FN:19,_RNvNtNtCsgTXWXfwjzne_17intervals_icu_mcp7domains6events14compact_events
FN:154,_RNvNtNtCsgTXWXfwjzne_17intervals_icu_mcp7domains6events18compact_json_event
FN:51,_RNvNtNtCsgTXWXfwjzne_17intervals_icu_mcp7domains6events20compact_single_event
FN:62,_RNvNtNtCsgTXWXfwjzne_17intervals_icu_mcp7domains6events25compact_events_from_value
FN:115,_RNvNtNtCsgTXWXfwjzne_17intervals_icu_mcp7domains6events26validate_and_prepare_event
FN:150,_RNvNtNtCsgTXWXfwjzne_17intervals_icu_mcp7domains6events26validation_error_to_string
FN:98,_RNvXNtNtCsgTXWXfwjzne_17intervals_icu_mcp7domains6eventsNtB2_20EventValidationErrorNtNtCse2qo0L34Llq_4core3fmt7Display3fmt
FN:263,_RNvNtNtNtCsgTXWXfwjzne_17intervals_icu_mcp7domains6events5tests10make_event
FN:346,_RNvNtNtNtCsgTXWXfwjzne_17intervals_icu_mcp7domains6events5testss_33compact_json_event_default_fields
FN:334,_RNvNtNtNtCsgTXWXfwjzne_17intervals_icu_mcp7domains6events5testss_34compact_single_event_custom_fields
FN:169,_RNvNtNtNtCsgTXWXfwjzne_17intervals_icu_mcp7domains6events5testss_34normalize_date_str_accepts_rfc3339
FN:182,_RNvNtNtNtCsgTXWXfwjzne_17intervals_icu_mcp7domains6events5testss_34normalize_date_str_rejects_invalid
FN:187,_RNvNtNtNtCsgTXWXfwjzne_17intervals_icu_mcp7domains6events5testss_34normalize_event_start_expands_date
FN:320,_RNvNtNtNtCsgTXWXfwjzne_17intervals_icu_mcp7domains6events5testss_35compact_single_event_default_fields
FN:177,_RNvNtNtNtCsgTXWXfwjzne_17intervals_icu_mcp7domains6events5testss_36normalize_date_str_accepts_date_only
FN:209,_RNvNtNtNtCsgTXWXfwjzne_17intervals_icu_mcp7domains6events5testss_37normalize_event_start_rejects_invalid
FN:163,_RNvNtNtNtCsgTXWXfwjzne_17intervals_icu_mcp7domains6events5testss_39normalize_date_str_accepts_iso_datetime
FN:365,_RNvNtNtNtCsgTXWXfwjzne_17intervals_icu_mcp7domains6events5testss_44compact_json_event_non_object_returned_as_is
FN:193,_RNvNtNtNtCsgTXWXfwjzne_17intervals_icu_mcp7domains6events5testss_44normalize_event_start_preserves_time_rfc3339
FN:291,_RNvNtNtNtCsgTXWXfwjzne_17intervals_icu_mcp7domains6events5testss_45compact_events_non_compact_returns_all_fields
FN:214,_RNvNtNtNtCsgTXWXfwjzne_17intervals_icu_mcp7domains6events5testss_45validate_and_prepare_event_rejects_empty_name
FN:305,_RNvNtNtNtCsgTXWXfwjzne_17intervals_icu_mcp7domains6events5testss_46compact_events_non_compact_with_fields_filters
FN:201,_RNvNtNtNtCsgTXWXfwjzne_17intervals_icu_mcp7domains6events5testss_46normalize_event_start_preserves_naive_datetime
FN:275,_RNvNtNtNtCsgTXWXfwjzne_17intervals_icu_mcp7domains6events5testss_47compact_events_compact_mode_uses_default_fields
FN:396,_RNvNtNtNtCsgTXWXfwjzne_17intervals_icu_mcp7domains6events5testss_49compact_events_from_value_non_compact_returns_all
FN:413,_RNvNtNtNtCsgTXWXfwjzne_17intervals_icu_mcp7domains6events5testss_51compact_events_from_value_non_compact_applies_limit
FN:246,_RNvNtNtNtCsgTXWXfwjzne_17intervals_icu_mcp7domains6events5testss_51validate_and_prepare_event_rejects_unknown_category
FN:375,_RNvNtNtNtCsgTXWXfwjzne_17intervals_icu_mcp7domains6events5testss_52compact_events_from_value_compact_limits_and_filters
FN:230,_RNvNtNtNtCsgTXWXfwjzne_17intervals_icu_mcp7domains6events5testss_74validate_and_prepare_event_normalizes_start_date_and_defaults_workout_type
FN:359,_RNCNvNtNtNtCsgTXWXfwjzne_17intervals_icu_mcp7domains6events5testss_33compact_json_event_default_fields0B9_
FN:360,_RNCNvNtNtNtCsgTXWXfwjzne_17intervals_icu_mcp7domains6events5testss_33compact_json_event_default_fieldss_0B9_
FN:339,_RNCNvNtNtNtCsgTXWXfwjzne_17intervals_icu_mcp7domains6events5testss_34compact_single_event_custom_fields0B9_
FN:324,_RNCNvNtNtNtCsgTXWXfwjzne_17intervals_icu_mcp7domains6events5testss_35compact_single_event_default_fields0B9_
FN:328,_RNCNvNtNtNtCsgTXWXfwjzne_17intervals_icu_mcp7domains6events5testss_35compact_single_event_default_fieldss0_0B9_
FN:325,_RNCNvNtNtNtCsgTXWXfwjzne_17intervals_icu_mcp7domains6events5testss_35compact_single_event_default_fieldss_0B9_
FN:296,_RNCNvNtNtNtCsgTXWXfwjzne_17intervals_icu_mcp7domains6events5testss_45compact_events_non_compact_returns_all_fields0B9_
FN:299,_RNCNvNtNtNtCsgTXWXfwjzne_17intervals_icu_mcp7domains6events5testss_45compact_events_non_compact_returns_all_fieldss_0B9_
FN:311,_RNCNvNtNtNtCsgTXWXfwjzne_17intervals_icu_mcp7domains6events5testss_46compact_events_non_compact_with_fields_filters0B9_
FN:312,_RNCNvNtNtNtCsgTXWXfwjzne_17intervals_icu_mcp7domains6events5testss_46compact_events_non_compact_with_fields_filterss_0B9_
FN:280,_RNCNvNtNtNtCsgTXWXfwjzne_17intervals_icu_mcp7domains6events5testss_47compact_events_compact_mode_uses_default_fields0B9_
FN:285,_RNCNvNtNtNtCsgTXWXfwjzne_17intervals_icu_mcp7domains6events5testss_47compact_events_compact_mode_uses_default_fieldss0_0B9_
FN:282,_RNCNvNtNtNtCsgTXWXfwjzne_17intervals_icu_mcp7domains6events5testss_47compact_events_compact_mode_uses_default_fieldss_0B9_
FN:406,_RNCNvNtNtNtCsgTXWXfwjzne_17intervals_icu_mcp7domains6events5testss_49compact_events_from_value_non_compact_returns_all0B9_
FN:424,_RNCNvNtNtNtCsgTXWXfwjzne_17intervals_icu_mcp7domains6events5testss_51compact_events_from_value_non_compact_applies_limit0B9_
FN:425,_RNCNvNtNtNtCsgTXWXfwjzne_17intervals_icu_mcp7domains6events5testss_51compact_events_from_value_non_compact_applies_limits_0B9_
FN:392,_RNCNvNtNtNtCsgTXWXfwjzne_17intervals_icu_mcp7domains6events5testss_52compact_events_from_value_compact_limits_and_filters0B9_
FN:27,_RNCNvNtNtCsgTXWXfwjzne_17intervals_icu_mcp7domains6events14compact_events0B7_
FN:47,_RNCNvNtNtCsgTXWXfwjzne_17intervals_icu_mcp7domains6events14compact_eventss_0B7_
FN:135,_RNCNvNtNtCsgTXWXfwjzne_17intervals_icu_mcp7domains6events26validate_and_prepare_event0B7_
FNDA:0,_RNvNtNtCsgTXWXfwjzne_17intervals_icu_mcp7domains6events19filter_event_fields
FNDA:3,_RNvNtNtCsgTXWXfwjzne_17intervals_icu_mcp7domains6events14compact_events
FNDA:2,_RNvNtNtCsgTXWXfwjzne_17intervals_icu_mcp7domains6events18compact_json_event
FNDA:2,_RNvNtNtCsgTXWXfwjzne_17intervals_icu_mcp7domains6events20compact_single_event
FNDA:3,_RNvNtNtCsgTXWXfwjzne_17intervals_icu_mcp7domains6events25compact_events_from_value
FNDA:49,_RNvNtNtCsgTXWXfwjzne_17intervals_icu_mcp7domains6events26validate_and_prepare_event
FNDA:0,_RNvNtNtCsgTXWXfwjzne_17intervals_icu_mcp7domains6events26validation_error_to_string
FNDA:0,_RNvXNtNtCsgTXWXfwjzne_17intervals_icu_mcp7domains6eventsNtB2_20EventValidationErrorNtNtCse2qo0L34Llq_4core3fmt7Display3fmt
FNDA:5,_RNvNtNtNtCsgTXWXfwjzne_17intervals_icu_mcp7domains6events5tests10make_event
FNDA:1,_RNvNtNtNtCsgTXWXfwjzne_17intervals_icu_mcp7domains6events5testss_33compact_json_event_default_fields
FNDA:1,_RNvNtNtNtCsgTXWXfwjzne_17intervals_icu_mcp7domains6events5testss_34compact_single_event_custom_fields
FNDA:1,_RNvNtNtNtCsgTXWXfwjzne_17intervals_icu_mcp7domains6events5testss_34normalize_date_str_accepts_rfc3339
FNDA:1,_RNvNtNtNtCsgTXWXfwjzne_17intervals_icu_mcp7domains6events5testss_34normalize_date_str_rejects_invalid
FNDA:1,_RNvNtNtNtCsgTXWXfwjzne_17intervals_icu_mcp7domains6events5testss_34normalize_event_start_expands_date
FNDA:1,_RNvNtNtNtCsgTXWXfwjzne_17intervals_icu_mcp7domains6events5testss_35compact_single_event_default_fields
FNDA:1,_RNvNtNtNtCsgTXWXfwjzne_17intervals_icu_mcp7domains6events5testss_36normalize_date_str_accepts_date_only
FNDA:1,_RNvNtNtNtCsgTXWXfwjzne_17intervals_icu_mcp7domains6events5testss_37normalize_event_start_rejects_invalid
FNDA:1,_RNvNtNtNtCsgTXWXfwjzne_17intervals_icu_mcp7domains6events5testss_39normalize_date_str_accepts_iso_datetime
FNDA:1,_RNvNtNtNtCsgTXWXfwjzne_17intervals_icu_mcp7domains6events5testss_44compact_json_event_non_object_returned_as_is
FNDA:1,_RNvNtNtNtCsgTXWXfwjzne_17intervals_icu_mcp7domains6events5testss_44normalize_event_start_preserves_time_rfc3339
FNDA:1,_RNvNtNtNtCsgTXWXfwjzne_17intervals_icu_mcp7domains6events5testss_45compact_events_non_compact_returns_all_fields
FNDA:1,_RNvNtNtNtCsgTXWXfwjzne_17intervals_icu_mcp7domains6events5testss_45validate_and_prepare_event_rejects_empty_name
FNDA:1,_RNvNtNtNtCsgTXWXfwjzne_17intervals_icu_mcp7domains6events5testss_46compact_events_non_compact_with_fields_filters
FNDA:1,_RNvNtNtNtCsgTXWXfwjzne_17intervals_icu_mcp7domains6events5testss_46normalize_event_start_preserves_naive_datetime
FNDA:1,_RNvNtNtNtCsgTXWXfwjzne_17intervals_icu_mcp7domains6events5testss_47compact_events_compact_mode_uses_default_fields
FNDA:1,_RNvNtNtNtCsgTXWXfwjzne_17intervals_icu_mcp7domains6events5testss_49compact_events_from_value_non_compact_returns_all
FNDA:1,_RNvNtNtNtCsgTXWXfwjzne_17intervals_icu_mcp7domains6events5testss_51compact_events_from_value_non_compact_applies_limit
FNDA:1,_RNvNtNtNtCsgTXWXfwjzne_17intervals_icu_mcp7domains6events5testss_51validate_and_prepare_event_rejects_unknown_category
FNDA:1,_RNvNtNtNtCsgTXWXfwjzne_17intervals_icu_mcp7domains6events5testss_52compact_events_from_value_compact_limits_and_filters
FNDA:1,_RNvNtNtNtCsgTXWXfwjzne_17intervals_icu_mcp7domains6events5testss_74validate_and_prepare_event_normalizes_start_date_and_defaults_workout_type
FNDA:1,_RNCNvNtNtNtCsgTXWXfwjzne_17intervals_icu_mcp7domains6events5testss_33compact_json_event_default_fields0B9_
FNDA:1,_RNCNvNtNtNtCsgTXWXfwjzne_17intervals_icu_mcp7domains6events5testss_33compact_json_event_default_fieldss_0B9_
FNDA:1,_RNCNvNtNtNtCsgTXWXfwjzne_17intervals_icu_mcp7domains6events5testss_34compact_single_event_custom_fields0B9_
FNDA:1,_RNCNvNtNtNtCsgTXWXfwjzne_17intervals_icu_mcp7domains6events5testss_35compact_single_event_default_fields0B9_
FNDA:1,_RNCNvNtNtNtCsgTXWXfwjzne_17intervals_icu_mcp7domains6events5testss_35compact_single_event_default_fieldss0_0B9_
FNDA:1,_RNCNvNtNtNtCsgTXWXfwjzne_17intervals_icu_mcp7domains6events5testss_35compact_single_event_default_fieldss_0B9_
FNDA:1,_RNCNvNtNtNtCsgTXWXfwjzne_17intervals_icu_mcp7domains6events5testss_45compact_events_non_compact_returns_all_fields0B9_
FNDA:1,_RNCNvNtNtNtCsgTXWXfwjzne_17intervals_icu_mcp7domains6events5testss_45compact_events_non_compact_returns_all_fieldss_0B9_
FNDA:1,_RNCNvNtNtNtCsgTXWXfwjzne_17intervals_icu_mcp7domains6events5testss_46compact_events_non_compact_with_fields_filters0B9_
FNDA:1,_RNCNvNtNtNtCsgTXWXfwjzne_17intervals_icu_mcp7domains6events5testss_46compact_events_non_compact_with_fields_filterss_0B9_
FNDA:1,_RNCNvNtNtNtCsgTXWXfwjzne_17intervals_icu_mcp7domains6events5testss_47compact_events_compact_mode_uses_default_fields0B9_
FNDA:1,_RNCNvNtNtNtCsgTXWXfwjzne_17intervals_icu_mcp7domains6events5testss_47compact_events_compact_mode_uses_default_fieldss0_0B9_
FNDA:1,_RNCNvNtNtNtCsgTXWXfwjzne_17intervals_icu_mcp7domains6events5testss_47compact_events_compact_mode_uses_default_fieldss_0B9_
FNDA:1,_RNCNvNtNtNtCsgTXWXfwjzne_17intervals_icu_mcp7domains6events5testss_49compact_events_from_value_non_compact_returns_all0B9_
FNDA:1,_RNCNvNtNtNtCsgTXWXfwjzne_17intervals_icu_mcp7domains6events5testss_51compact_events_from_value_non_compact_applies_limit0B9_
FNDA:1,_RNCNvNtNtNtCsgTXWXfwjzne_17intervals_icu_mcp7domains6events5testss_51compact_events_from_value_non_compact_applies_limits_0B9_
FNDA:1,_RNCNvNtNtNtCsgTXWXfwjzne_17intervals_icu_mcp7domains6events5testss_52compact_events_from_value_compact_limits_and_filters0B9_
FNDA:2,_RNCNvNtNtCsgTXWXfwjzne_17intervals_icu_mcp7domains6events14compact_events0B7_
FNDA:1,_RNCNvNtNtCsgTXWXfwjzne_17intervals_icu_mcp7domains6events14compact_eventss_0B7_
FNDA:1,_RNCNvNtNtCsgTXWXfwjzne_17intervals_icu_mcp7domains6events26validate_and_prepare_event0B7_
FNF:50
FNH:47
DA:19,3
DA:20,3
DA:21,3
DA:22,3
DA:23,3
DA:24,3
DA:25,2
DA:26,2
DA:27,2
DA:28,2
DA:29,2
DA:30,1
DA:31,1
DA:32,2
DA:33,2
DA:34,2
DA:35,2
DA:37,1
DA:39,1
DA:41,2
DA:42,2
DA:43,1
DA:45,1
DA:46,1
DA:47,1
DA:48,1
DA:49,3
DA:51,2
DA:52,2
DA:53,2
DA:54,2
DA:55,2
DA:56,2
DA:58,0
DA:59,0
DA:60,0
DA:62,3
DA:63,3
DA:64,3
DA:65,3
DA:66,3
DA:67,3
DA:68,3
DA:69,1
DA:70,1
DA:71,1
DA:72,1
DA:73,1
DA:74,1
DA:77,2
DA:78,2
DA:79,0
DA:82,2
DA:83,0
DA:85,2
DA:88,3
DA:98,0
DA:99,0
DA:100,0
DA:101,0
DA:102,0
DA:104,0
DA:115,49
DA:116,49
DA:117,49
DA:118,49
DA:119,1
DA:120,48
DA:122,48
DA:123,48
DA:124,0
DA:127,48
DA:128,2
DA:129,46
DA:131,46
DA:132,44
DA:133,44
DA:134,44
DA:135,44
DA:136,44
DA:137,44
DA:139,43
DA:140,43
DA:141,3
DA:143,46
DA:144,49
DA:150,0
DA:151,0
DA:152,0
DA:154,2
DA:155,2
DA:156,2
DA:163,1
DA:164,1
DA:165,1
DA:166,1
DA:169,1
DA:170,1
DA:171,1
DA:174,1
DA:177,1
DA:178,1
DA:179,1
DA:182,1
DA:183,1
DA:184,1
DA:187,1
DA:188,1
DA:189,1
DA:190,1
DA:193,1
DA:194,1
DA:195,1
DA:198,1
DA:201,1
DA:202,1
DA:203,1
DA:206,1
DA:209,1
DA:210,1
DA:211,1
DA:214,1
DA:215,1
DA:216,1
DA:217,1
DA:218,1
DA:219,1
DA:220,1
DA:221,1
DA:222,1
DA:223,0
DA:224,1
DA:227,1
DA:230,1
DA:231,1
DA:232,1
DA:233,1
DA:234,1
DA:235,1
DA:236,1
DA:237,1
DA:238,1
DA:240,1
DA:241,1
DA:242,1
DA:243,1
DA:246,1
DA:247,1
DA:248,1
DA:249,1
DA:250,1
DA:251,1
DA:252,1
DA:253,1
DA:254,1
DA:255,1
DA:256,1
DA:259,1
DA:263,5
DA:264,5
DA:265,5
DA:266,5
DA:267,5
DA:268,5
DA:269,5
DA:270,5
DA:271,5
DA:272,5
DA:275,1
DA:276,1
DA:277,1
DA:278,1
DA:279,1
DA:280,1
DA:281,1
DA:282,1
DA:285,1
DA:287,1
DA:288,1
DA:291,1
DA:292,1
DA:293,1
DA:294,1
DA:295,1
DA:296,1
DA:298,1
DA:299,1
DA:302,1
DA:305,1
DA:306,1
DA:307,1
DA:308,1
DA:309,1
DA:310,1
DA:311,1
DA:312,1
DA:314,1
DA:315,1
DA:320,1
DA:321,1
DA:322,1
DA:323,1
DA:324,1
DA:325,1
DA:327,1
DA:328,1
DA:331,1
DA:334,1
DA:335,1
DA:336,1
DA:337,1
DA:338,1
DA:339,1
DA:340,1
DA:341,1
DA:346,1
DA:348,1
DA:349,1
DA:350,1
DA:351,1
DA:352,1
DA:353,1
DA:354,1
DA:355,1
DA:357,1
DA:358,1
DA:359,1
DA:360,1
DA:361,1
DA:362,1
DA:365,1
DA:367,1
DA:368,1
DA:369,1
DA:370,1
DA:375,1
DA:377,1
DA:378,1
DA:379,1
DA:380,1
DA:381,1
DA:382,1
DA:383,1
DA:385,1
DA:386,1
DA:387,1
DA:388,1
DA:389,1
DA:392,1
DA:393,1
DA:396,1
DA:398,1
DA:399,1
DA:400,1
DA:402,1
DA:403,1
DA:404,1
DA:405,1
DA:406,1
DA:410,1
DA:413,1
DA:415,1
DA:416,1
DA:417,1
DA:418,1
DA:421,1
DA:422,1
DA:423,1
DA:424,1
DA:425,1
DA:426,1
BRF:0
BRH:0
LF:291
LH:275
end_of_record
SF:/Users/solovey/Documents/dev/rusty_intervals_mcp/crates/intervals_icu_mcp/src/domains/fitness.rs
FN:148,_RNCNvNtNtNtCsgTXWXfwjzne_17intervals_icu_mcp7domains7fitness5testss_32compact_fitness_summary_defaults0B9_
FN:150,_RNCNvNtNtNtCsgTXWXfwjzne_17intervals_icu_mcp7domains7fitness5testss_32compact_fitness_summary_defaultss0_0B9_
FN:151,_RNCNvNtNtNtCsgTXWXfwjzne_17intervals_icu_mcp7domains7fitness5testss_32compact_fitness_summary_defaultss1_0B9_
FN:149,_RNCNvNtNtNtCsgTXWXfwjzne_17intervals_icu_mcp7domains7fitness5testss_32compact_fitness_summary_defaultss_0B9_
FN:161,_RNCNvNtNtNtCsgTXWXfwjzne_17intervals_icu_mcp7domains7fitness5testss_37compact_fitness_summary_custom_fields0B9_
FN:162,_RNCNvNtNtNtCsgTXWXfwjzne_17intervals_icu_mcp7domains7fitness5testss_37compact_fitness_summary_custom_fieldss_0B9_
FN:232,_RNCNvNtNtNtCsgTXWXfwjzne_17intervals_icu_mcp7domains7fitness5testss_42compact_fitness_summary_empty_fields_array0B9_
FN:234,_RNCNvNtNtNtCsgTXWXfwjzne_17intervals_icu_mcp7domains7fitness5testss_42compact_fitness_summary_empty_fields_arrays0_0B9_
FN:235,_RNCNvNtNtNtCsgTXWXfwjzne_17intervals_icu_mcp7domains7fitness5testss_42compact_fitness_summary_empty_fields_arrays1_0B9_
FN:233,_RNCNvNtNtNtCsgTXWXfwjzne_17intervals_icu_mcp7domains7fitness5testss_42compact_fitness_summary_empty_fields_arrays_0B9_
FN:249,_RNCNvNtNtNtCsgTXWXfwjzne_17intervals_icu_mcp7domains7fitness5testss_43compact_fitness_summary_supports_alias_keys0B9_
FN:251,_RNCNvNtNtNtCsgTXWXfwjzne_17intervals_icu_mcp7domains7fitness5testss_43compact_fitness_summary_supports_alias_keyss0_0B9_
FN:252,_RNCNvNtNtNtCsgTXWXfwjzne_17intervals_icu_mcp7domains7fitness5testss_43compact_fitness_summary_supports_alias_keyss1_0B9_
FN:250,_RNCNvNtNtNtCsgTXWXfwjzne_17intervals_icu_mcp7domains7fitness5testss_43compact_fitness_summary_supports_alias_keyss_0B9_
FN:203,_RNCNvNtNtNtCsgTXWXfwjzne_17intervals_icu_mcp7domains7fitness5testss_44compact_fitness_summary_array_extracts_first0B9_
FN:205,_RNCNvNtNtNtCsgTXWXfwjzne_17intervals_icu_mcp7domains7fitness5testss_44compact_fitness_summary_array_extracts_firsts0_0B9_
FN:206,_RNCNvNtNtNtCsgTXWXfwjzne_17intervals_icu_mcp7domains7fitness5testss_44compact_fitness_summary_array_extracts_firsts1_0B9_
FN:204,_RNCNvNtNtNtCsgTXWXfwjzne_17intervals_icu_mcp7domains7fitness5testss_44compact_fitness_summary_array_extracts_firsts_0B9_
FN:272,_RNCNvNtNtNtCsgTXWXfwjzne_17intervals_icu_mcp7domains7fitness5testss_56compact_fitness_summary_skips_first_item_without_metrics0B9_
FN:274,_RNCNvNtNtNtCsgTXWXfwjzne_17intervals_icu_mcp7domains7fitness5testss_56compact_fitness_summary_skips_first_item_without_metricss0_0B9_
FN:275,_RNCNvNtNtNtCsgTXWXfwjzne_17intervals_icu_mcp7domains7fitness5testss_56compact_fitness_summary_skips_first_item_without_metricss1_0B9_
FN:273,_RNCNvNtNtNtCsgTXWXfwjzne_17intervals_icu_mcp7domains7fitness5testss_56compact_fitness_summary_skips_first_item_without_metricss_0B9_
FN:301,_RNCNvNtNtNtCsgTXWXfwjzne_17intervals_icu_mcp7domains7fitness5testss_60compact_fitness_summary_user_alias_fields_with_ramp_and_date0B9_
FN:303,_RNCNvNtNtNtCsgTXWXfwjzne_17intervals_icu_mcp7domains7fitness5testss_60compact_fitness_summary_user_alias_fields_with_ramp_and_dates0_0B9_
FN:305,_RNCNvNtNtNtCsgTXWXfwjzne_17intervals_icu_mcp7domains7fitness5testss_60compact_fitness_summary_user_alias_fields_with_ramp_and_dates1_0B9_
FN:309,_RNCNvNtNtNtCsgTXWXfwjzne_17intervals_icu_mcp7domains7fitness5testss_60compact_fitness_summary_user_alias_fields_with_ramp_and_dates2_0B9_
FN:312,_RNCNvNtNtNtCsgTXWXfwjzne_17intervals_icu_mcp7domains7fitness5testss_60compact_fitness_summary_user_alias_fields_with_ramp_and_dates3_0B9_
FN:302,_RNCNvNtNtNtCsgTXWXfwjzne_17intervals_icu_mcp7domains7fitness5testss_60compact_fitness_summary_user_alias_fields_with_ramp_and_dates_0B9_
FN:136,_RNvNtNtNtCsgTXWXfwjzne_17intervals_icu_mcp7domains7fitness5testss_32compact_fitness_summary_defaults
FN:211,_RNvNtNtNtCsgTXWXfwjzne_17intervals_icu_mcp7domains7fitness5testss_35compact_fitness_summary_empty_array
FN:168,_RNvNtNtNtCsgTXWXfwjzne_17intervals_icu_mcp7domains7fitness5testss_35compact_fitness_summary_empty_input
FN:157,_RNvNtNtNtCsgTXWXfwjzne_17intervals_icu_mcp7domains7fitness5testss_37compact_fitness_summary_custom_fields
FN:220,_RNvNtNtNtCsgTXWXfwjzne_17intervals_icu_mcp7domains7fitness5testss_42compact_fitness_summary_empty_fields_array
FN:239,_RNvNtNtNtCsgTXWXfwjzne_17intervals_icu_mcp7domains7fitness5testss_43compact_fitness_summary_supports_alias_keys
FN:182,_RNvNtNtNtCsgTXWXfwjzne_17intervals_icu_mcp7domains7fitness5testss_44compact_fitness_summary_array_extracts_first
FN:175,_RNvNtNtNtCsgTXWXfwjzne_17intervals_icu_mcp7domains7fitness5testss_48compact_fitness_summary_non_object_returns_clone
FN:256,_RNvNtNtNtCsgTXWXfwjzne_17intervals_icu_mcp7domains7fitness5testss_56compact_fitness_summary_skips_first_item_without_metrics
FN:279,_RNvNtNtNtCsgTXWXfwjzne_17intervals_icu_mcp7domains7fitness5testss_60compact_fitness_summary_user_alias_fields_with_ramp_and_date
FN:23,_RNvNtNtCsgTXWXfwjzne_17intervals_icu_mcp7domains7fitness14candidate_keys
FN:12,_RNvNtNtCsgTXWXfwjzne_17intervals_icu_mcp7domains7fitness20canonical_field_name
FN:4,_RNvNtNtCsgTXWXfwjzne_17intervals_icu_mcp7domains7fitness20normalize_field_name
FN:47,_RNvNtNtCsgTXWXfwjzne_17intervals_icu_mcp7domains7fitness23compact_fitness_summary
FN:84,_RNCNCNCNvNtNtCsgTXWXfwjzne_17intervals_icu_mcp7domains7fitness23compact_fitness_summarys1_000Bb_
FN:81,_RNCNCNvNtNtCsgTXWXfwjzne_17intervals_icu_mcp7domains7fitness23compact_fitness_summarys1_00B9_
FN:87,_RNCNCNvNtNtCsgTXWXfwjzne_17intervals_icu_mcp7domains7fitness23compact_fitness_summarys2_00B9_
FN:7,_RNCNvNtNtCsgTXWXfwjzne_17intervals_icu_mcp7domains7fitness20normalize_field_name0B7_
FN:54,_RNCNvNtNtCsgTXWXfwjzne_17intervals_icu_mcp7domains7fitness23compact_fitness_summary0B7_
FN:79,_RNCNvNtNtCsgTXWXfwjzne_17intervals_icu_mcp7domains7fitness23compact_fitness_summarys0_0B7_
FN:80,_RNCNvNtNtCsgTXWXfwjzne_17intervals_icu_mcp7domains7fitness23compact_fitness_summarys1_0B7_
FN:87,_RNCNvNtNtCsgTXWXfwjzne_17intervals_icu_mcp7domains7fitness23compact_fitness_summarys2_0B7_
FN:67,_RNCNvNtNtCsgTXWXfwjzne_17intervals_icu_mcp7domains7fitness23compact_fitness_summarys4_0B7_
FN:67,_RNCNvNtNtCsgTXWXfwjzne_17intervals_icu_mcp7domains7fitness23compact_fitness_summarys5_0B7_
FN:58,_RNCNvNtNtCsgTXWXfwjzne_17intervals_icu_mcp7domains7fitness23compact_fitness_summarys_0B7_
FNDA:1,_RNCNvNtNtNtCsgTXWXfwjzne_17intervals_icu_mcp7domains7fitness5testss_32compact_fitness_summary_defaults0B9_
FNDA:1,_RNCNvNtNtNtCsgTXWXfwjzne_17intervals_icu_mcp7domains7fitness5testss_32compact_fitness_summary_defaultss0_0B9_
FNDA:1,_RNCNvNtNtNtCsgTXWXfwjzne_17intervals_icu_mcp7domains7fitness5testss_32compact_fitness_summary_defaultss1_0B9_
FNDA:1,_RNCNvNtNtNtCsgTXWXfwjzne_17intervals_icu_mcp7domains7fitness5testss_32compact_fitness_summary_defaultss_0B9_
FNDA:1,_RNCNvNtNtNtCsgTXWXfwjzne_17intervals_icu_mcp7domains7fitness5testss_37compact_fitness_summary_custom_fields0B9_
FNDA:1,_RNCNvNtNtNtCsgTXWXfwjzne_17intervals_icu_mcp7domains7fitness5testss_37compact_fitness_summary_custom_fieldss_0B9_
FNDA:1,_RNCNvNtNtNtCsgTXWXfwjzne_17intervals_icu_mcp7domains7fitness5testss_42compact_fitness_summary_empty_fields_array0B9_
FNDA:1,_RNCNvNtNtNtCsgTXWXfwjzne_17intervals_icu_mcp7domains7fitness5testss_42compact_fitness_summary_empty_fields_arrays0_0B9_
FNDA:1,_RNCNvNtNtNtCsgTXWXfwjzne_17intervals_icu_mcp7domains7fitness5testss_42compact_fitness_summary_empty_fields_arrays1_0B9_
FNDA:1,_RNCNvNtNtNtCsgTXWXfwjzne_17intervals_icu_mcp7domains7fitness5testss_42compact_fitness_summary_empty_fields_arrays_0B9_
FNDA:1,_RNCNvNtNtNtCsgTXWXfwjzne_17intervals_icu_mcp7domains7fitness5testss_43compact_fitness_summary_supports_alias_keys0B9_
FNDA:1,_RNCNvNtNtNtCsgTXWXfwjzne_17intervals_icu_mcp7domains7fitness5testss_43compact_fitness_summary_supports_alias_keyss0_0B9_
FNDA:1,_RNCNvNtNtNtCsgTXWXfwjzne_17intervals_icu_mcp7domains7fitness5testss_43compact_fitness_summary_supports_alias_keyss1_0B9_
FNDA:1,_RNCNvNtNtNtCsgTXWXfwjzne_17intervals_icu_mcp7domains7fitness5testss_43compact_fitness_summary_supports_alias_keyss_0B9_
FNDA:1,_RNCNvNtNtNtCsgTXWXfwjzne_17intervals_icu_mcp7domains7fitness5testss_44compact_fitness_summary_array_extracts_first0B9_
FNDA:1,_RNCNvNtNtNtCsgTXWXfwjzne_17intervals_icu_mcp7domains7fitness5testss_44compact_fitness_summary_array_extracts_firsts0_0B9_
FNDA:1,_RNCNvNtNtNtCsgTXWXfwjzne_17intervals_icu_mcp7domains7fitness5testss_44compact_fitness_summary_array_extracts_firsts1_0B9_
FNDA:1,_RNCNvNtNtNtCsgTXWXfwjzne_17intervals_icu_mcp7domains7fitness5testss_44compact_fitness_summary_array_extracts_firsts_0B9_
FNDA:1,_RNCNvNtNtNtCsgTXWXfwjzne_17intervals_icu_mcp7domains7fitness5testss_56compact_fitness_summary_skips_first_item_without_metrics0B9_
FNDA:1,_RNCNvNtNtNtCsgTXWXfwjzne_17intervals_icu_mcp7domains7fitness5testss_56compact_fitness_summary_skips_first_item_without_metricss0_0B9_
FNDA:1,_RNCNvNtNtNtCsgTXWXfwjzne_17intervals_icu_mcp7domains7fitness5testss_56compact_fitness_summary_skips_first_item_without_metricss1_0B9_
FNDA:1,_RNCNvNtNtNtCsgTXWXfwjzne_17intervals_icu_mcp7domains7fitness5testss_56compact_fitness_summary_skips_first_item_without_metricss_0B9_
FNDA:1,_RNCNvNtNtNtCsgTXWXfwjzne_17intervals_icu_mcp7domains7fitness5testss_60compact_fitness_summary_user_alias_fields_with_ramp_and_date0B9_
FNDA:1,_RNCNvNtNtNtCsgTXWXfwjzne_17intervals_icu_mcp7domains7fitness5testss_60compact_fitness_summary_user_alias_fields_with_ramp_and_dates0_0B9_
FNDA:1,_RNCNvNtNtNtCsgTXWXfwjzne_17intervals_icu_mcp7domains7fitness5testss_60compact_fitness_summary_user_alias_fields_with_ramp_and_dates1_0B9_
FNDA:1,_RNCNvNtNtNtCsgTXWXfwjzne_17intervals_icu_mcp7domains7fitness5testss_60compact_fitness_summary_user_alias_fields_with_ramp_and_dates2_0B9_
FNDA:1,_RNCNvNtNtNtCsgTXWXfwjzne_17intervals_icu_mcp7domains7fitness5testss_60compact_fitness_summary_user_alias_fields_with_ramp_and_dates3_0B9_
FNDA:1,_RNCNvNtNtNtCsgTXWXfwjzne_17intervals_icu_mcp7domains7fitness5testss_60compact_fitness_summary_user_alias_fields_with_ramp_and_dates_0B9_
FNDA:1,_RNvNtNtNtCsgTXWXfwjzne_17intervals_icu_mcp7domains7fitness5testss_32compact_fitness_summary_defaults
FNDA:1,_RNvNtNtNtCsgTXWXfwjzne_17intervals_icu_mcp7domains7fitness5testss_35compact_fitness_summary_empty_array
FNDA:1,_RNvNtNtNtCsgTXWXfwjzne_17intervals_icu_mcp7domains7fitness5testss_35compact_fitness_summary_empty_input
FNDA:1,_RNvNtNtNtCsgTXWXfwjzne_17intervals_icu_mcp7domains7fitness5testss_37compact_fitness_summary_custom_fields
FNDA:1,_RNvNtNtNtCsgTXWXfwjzne_17intervals_icu_mcp7domains7fitness5testss_42compact_fitness_summary_empty_fields_array
FNDA:1,_RNvNtNtNtCsgTXWXfwjzne_17intervals_icu_mcp7domains7fitness5testss_43compact_fitness_summary_supports_alias_keys
FNDA:1,_RNvNtNtNtCsgTXWXfwjzne_17intervals_icu_mcp7domains7fitness5testss_44compact_fitness_summary_array_extracts_first
FNDA:1,_RNvNtNtNtCsgTXWXfwjzne_17intervals_icu_mcp7domains7fitness5testss_48compact_fitness_summary_non_object_returns_clone
FNDA:1,_RNvNtNtNtCsgTXWXfwjzne_17intervals_icu_mcp7domains7fitness5testss_56compact_fitness_summary_skips_first_item_without_metrics
FNDA:1,_RNvNtNtNtCsgTXWXfwjzne_17intervals_icu_mcp7domains7fitness5testss_60compact_fitness_summary_user_alias_fields_with_ramp_and_date
FNDA:41,_RNvNtNtCsgTXWXfwjzne_17intervals_icu_mcp7domains7fitness14candidate_keys
FNDA:8,_RNvNtNtCsgTXWXfwjzne_17intervals_icu_mcp7domains7fitness20canonical_field_name
FNDA:8,_RNvNtNtCsgTXWXfwjzne_17intervals_icu_mcp7domains7fitness20normalize_field_name
FNDA:10,_RNvNtNtCsgTXWXfwjzne_17intervals_icu_mcp7domains7fitness23compact_fitness_summary
FNDA:14,_RNCNCNCNvNtNtCsgTXWXfwjzne_17intervals_icu_mcp7domains7fitness23compact_fitness_summarys1_000Bb_
FNDA:9,_RNCNCNvNtNtCsgTXWXfwjzne_17intervals_icu_mcp7domains7fitness23compact_fitness_summarys1_00B9_
FNDA:0,_RNCNCNvNtNtCsgTXWXfwjzne_17intervals_icu_mcp7domains7fitness23compact_fitness_summarys2_00B9_
FNDA:49,_RNCNvNtNtCsgTXWXfwjzne_17intervals_icu_mcp7domains7fitness20normalize_field_name0B7_
FNDA:32,_RNCNvNtNtCsgTXWXfwjzne_17intervals_icu_mcp7domains7fitness23compact_fitness_summary0B7_
FNDA:6,_RNCNvNtNtCsgTXWXfwjzne_17intervals_icu_mcp7domains7fitness23compact_fitness_summarys0_0B7_
FNDA:6,_RNCNvNtNtCsgTXWXfwjzne_17intervals_icu_mcp7domains7fitness23compact_fitness_summarys1_0B7_
FNDA:1,_RNCNvNtNtCsgTXWXfwjzne_17intervals_icu_mcp7domains7fitness23compact_fitness_summarys2_0B7_
FNDA:0,_RNCNvNtNtCsgTXWXfwjzne_17intervals_icu_mcp7domains7fitness23compact_fitness_summarys4_0B7_
FNDA:0,_RNCNvNtNtCsgTXWXfwjzne_17intervals_icu_mcp7domains7fitness23compact_fitness_summarys5_0B7_
FNDA:8,_RNCNvNtNtCsgTXWXfwjzne_17intervals_icu_mcp7domains7fitness23compact_fitness_summarys_0B7_
FNF:52
FNH:50
DA:4,8
DA:5,8
DA:6,8
DA:7,49
DA:8,8
DA:9,8
DA:10,8
DA:12,8
DA:13,8
DA:14,8
DA:15,6
DA:16,5
DA:17,4
DA:18,2
DA:19,1
DA:21,8
DA:23,41
DA:24,41
DA:26,41
DA:27,27
DA:28,19
DA:29,11
DA:30,2
DA:32,1
DA:33,1
DA:34,1
DA:35,1
DA:36,1
DA:38,41
DA:47,10
DA:48,10
DA:51,10
DA:52,8
DA:53,8
DA:54,32
DA:55,8
DA:56,2
DA:57,2
DA:58,8
DA:59,2
DA:62,10
DA:64,0
DA:65,0
DA:66,0
DA:67,0
DA:68,0
DA:73,10
DA:74,6
DA:76,0
DA:78,6
DA:79,6
DA:80,6
DA:81,9
DA:82,9
DA:83,9
DA:84,14
DA:85,9
DA:86,6
DA:87,6
DA:89,4
DA:92,10
DA:93,2
DA:96,2
DA:99,8
DA:101,0
DA:104,8
DA:105,32
DA:106,40
DA:107,40
DA:108,28
DA:109,28
DA:110,12
DA:115,8
DA:116,0
DA:117,0
DA:118,0
DA:119,0
DA:120,0
DA:121,0
DA:122,0
DA:125,8
DA:127,8
DA:128,10
DA:136,1
DA:138,1
DA:139,1
DA:140,1
DA:141,1
DA:142,1
DA:143,1
DA:144,1
DA:147,1
DA:148,1
DA:149,1
DA:150,1
DA:151,1
DA:152,1
DA:153,1
DA:154,1
DA:157,1
DA:158,1
DA:159,1
DA:160,1
DA:161,1
DA:162,1
DA:163,1
DA:164,1
DA:165,1
DA:168,1
DA:169,1
DA:170,1
DA:171,1
DA:172,1
DA:175,1
DA:176,1
DA:177,1
DA:178,1
DA:179,1
DA:182,1
DA:184,1
DA:186,1
DA:187,1
DA:188,1
DA:189,1
DA:190,1
DA:193,1
DA:194,1
DA:195,1
DA:196,1
DA:197,1
DA:201,1
DA:203,1
DA:204,1
DA:205,1
DA:206,1
DA:207,1
DA:208,1
DA:211,1
DA:212,1
DA:213,1
DA:215,1
DA:216,1
DA:217,1
DA:220,1
DA:222,1
DA:223,1
DA:224,1
DA:225,1
DA:226,1
DA:228,1
DA:229,1
DA:232,1
DA:233,1
DA:234,1
DA:235,1
DA:236,1
DA:239,1
DA:241,1
DA:242,1
DA:243,1
DA:244,1
DA:245,1
DA:248,1
DA:249,1
DA:250,1
DA:251,1
DA:252,1
DA:253,1
DA:256,1
DA:257,1
DA:259,1
DA:260,1
DA:261,1
DA:264,1
DA:265,1
DA:266,1
DA:267,1
DA:271,1
DA:272,1
DA:273,1
DA:274,1
DA:275,1
DA:276,1
DA:279,1
DA:280,1
DA:282,1
DA:283,1
DA:284,1
DA:285,1
DA:286,1
DA:287,1
DA:291,1
DA:292,1
DA:293,1
DA:294,1
DA:295,1
DA:296,1
DA:297,1
DA:300,1
DA:301,1
DA:302,1
DA:303,1
DA:304,1
DA:305,1
DA:308,1
DA:309,1
DA:312,1
DA:313,1
BRF:0
BRH:0
LF:246
LH:230
end_of_record
SF:/Users/solovey/Documents/dev/rusty_intervals_mcp/crates/intervals_icu_mcp/src/domains/gear.rs
FN:25,_RNvNtNtCsgTXWXfwjzne_17intervals_icu_mcp7domains4gear17compact_gear_item
FN:20,_RNvNtNtCsgTXWXfwjzne_17intervals_icu_mcp7domains4gear17compact_gear_list
FN:44,_RNCNvNtNtNtCsgTXWXfwjzne_17intervals_icu_mcp7domains4gear5testss_32compact_gear_list_filters_fields0B9_
FN:55,_RNCNvNtNtNtCsgTXWXfwjzne_17intervals_icu_mcp7domains4gear5testss_40compact_gear_item_respects_custom_fields0B9_
FN:56,_RNCNvNtNtNtCsgTXWXfwjzne_17intervals_icu_mcp7domains4gear5testss_40compact_gear_item_respects_custom_fieldss_0B9_
FN:35,_RNvNtNtNtCsgTXWXfwjzne_17intervals_icu_mcp7domains4gear5testss_32compact_gear_list_filters_fields
FN:50,_RNvNtNtNtCsgTXWXfwjzne_17intervals_icu_mcp7domains4gear5testss_40compact_gear_item_respects_custom_fields
FNDA:1,_RNvNtNtCsgTXWXfwjzne_17intervals_icu_mcp7domains4gear17compact_gear_item
FNDA:1,_RNvNtNtCsgTXWXfwjzne_17intervals_icu_mcp7domains4gear17compact_gear_list
FNDA:1,_RNCNvNtNtNtCsgTXWXfwjzne_17intervals_icu_mcp7domains4gear5testss_32compact_gear_list_filters_fields0B9_
FNDA:1,_RNCNvNtNtNtCsgTXWXfwjzne_17intervals_icu_mcp7domains4gear5testss_40compact_gear_item_respects_custom_fields0B9_
FNDA:1,_RNCNvNtNtNtCsgTXWXfwjzne_17intervals_icu_mcp7domains4gear5testss_40compact_gear_item_respects_custom_fieldss_0B9_
FNDA:1,_RNvNtNtNtCsgTXWXfwjzne_17intervals_icu_mcp7domains4gear5testss_32compact_gear_list_filters_fields
FNDA:1,_RNvNtNtNtCsgTXWXfwjzne_17intervals_icu_mcp7domains4gear5testss_40compact_gear_item_respects_custom_fields
FNF:7
FNH:7
DA:20,1
DA:21,1
DA:22,1
DA:25,1
DA:26,1
DA:27,1
DA:35,1
DA:36,1
DA:37,1
DA:38,1
DA:41,1
DA:42,1
DA:43,1
DA:44,1
DA:45,1
DA:46,1
DA:47,1
DA:50,1
DA:51,1
DA:52,1
DA:53,1
DA:54,1
DA:55,1
DA:56,1
DA:57,1
DA:58,1
BRF:0
BRH:0
LF:29
LH:29
end_of_record
SF:/Users/solovey/Documents/dev/rusty_intervals_mcp/crates/intervals_icu_mcp/src/domains/nutrition.rs
FN:71,_RNvMNtNtCsgTXWXfwjzne_17intervals_icu_mcp7domains9nutritionNtB2_15NutritionDemand11unsupported
FN:88,_RNvNtNtCsgTXWXfwjzne_17intervals_icu_mcp7domains9nutrition19compute_carb_demand
FN:112,_RNvNtNtCsgTXWXfwjzne_17intervals_icu_mcp7domains9nutrition22compute_protein_demand
FN:122,_RNvNtNtCsgTXWXfwjzne_17intervals_icu_mcp7domains9nutrition25compute_nutrition_balance
FN:171,_RNvNtNtNtCsgTXWXfwjzne_17intervals_icu_mcp7domains9nutrition5testss_23protein_demand_baseline
FN:153,_RNvNtNtNtCsgTXWXfwjzne_17intervals_icu_mcp7domains9nutrition5testss_25carb_demand_long_duration
FN:177,_RNvNtNtNtCsgTXWXfwjzne_17intervals_icu_mcp7domains9nutrition5testss_25protein_demand_adaptation
FN:147,_RNvNtNtNtCsgTXWXfwjzne_17intervals_icu_mcp7domains9nutrition5testss_26carb_demand_short_duration
FN:189,_RNvNtNtNtCsgTXWXfwjzne_17intervals_icu_mcp7domains9nutrition5testss_26nutrition_balance_balanced
FN:195,_RNvNtNtNtCsgTXWXfwjzne_17intervals_icu_mcp7domains9nutrition5testss_29nutrition_balance_unsupported
FN:183,_RNvNtNtNtCsgTXWXfwjzne_17intervals_icu_mcp7domains9nutrition5testss_30nutrition_balance_underfuelled
FN:159,_RNvNtNtNtCsgTXWXfwjzne_17intervals_icu_mcp7domains9nutrition5testss_35carb_demand_intensity_adjustment_up
FN:165,_RNvNtNtNtCsgTXWXfwjzne_17intervals_icu_mcp7domains9nutrition5testss_37carb_demand_intensity_adjustment_down
FN:97,_RNCNvNtNtCsgTXWXfwjzne_17intervals_icu_mcp7domains9nutrition19compute_carb_demand0B7_
FNDA:1,_RNvMNtNtCsgTXWXfwjzne_17intervals_icu_mcp7domains9nutritionNtB2_15NutritionDemand11unsupported
FNDA:4,_RNvNtNtCsgTXWXfwjzne_17intervals_icu_mcp7domains9nutrition19compute_carb_demand
FNDA:2,_RNvNtNtCsgTXWXfwjzne_17intervals_icu_mcp7domains9nutrition22compute_protein_demand
FNDA:2,_RNvNtNtCsgTXWXfwjzne_17intervals_icu_mcp7domains9nutrition25compute_nutrition_balance
FNDA:1,_RNvNtNtNtCsgTXWXfwjzne_17intervals_icu_mcp7domains9nutrition5testss_23protein_demand_baseline
FNDA:1,_RNvNtNtNtCsgTXWXfwjzne_17intervals_icu_mcp7domains9nutrition5testss_25carb_demand_long_duration
FNDA:1,_RNvNtNtNtCsgTXWXfwjzne_17intervals_icu_mcp7domains9nutrition5testss_25protein_demand_adaptation
FNDA:1,_RNvNtNtNtCsgTXWXfwjzne_17intervals_icu_mcp7domains9nutrition5testss_26carb_demand_short_duration
FNDA:1,_RNvNtNtNtCsgTXWXfwjzne_17intervals_icu_mcp7domains9nutrition5testss_26nutrition_balance_balanced
FNDA:1,_RNvNtNtNtCsgTXWXfwjzne_17intervals_icu_mcp7domains9nutrition5testss_29nutrition_balance_unsupported
FNDA:1,_RNvNtNtNtCsgTXWXfwjzne_17intervals_icu_mcp7domains9nutrition5testss_30nutrition_balance_underfuelled
FNDA:1,_RNvNtNtNtCsgTXWXfwjzne_17intervals_icu_mcp7domains9nutrition5testss_35carb_demand_intensity_adjustment_up
FNDA:1,_RNvNtNtNtCsgTXWXfwjzne_17intervals_icu_mcp7domains9nutrition5testss_37carb_demand_intensity_adjustment_down
FNDA:2,_RNCNvNtNtCsgTXWXfwjzne_17intervals_icu_mcp7domains9nutrition19compute_carb_demand0B7_
FNF:14
FNH:14
DA:71,1
DA:72,1
DA:73,1
DA:74,1
DA:75,1
DA:76,1
DA:77,1
DA:78,1
DA:79,1
DA:80,1
DA:81,1
DA:88,4
DA:89,4
DA:90,1
DA:91,3
DA:92,2
DA:94,1
DA:96,4
DA:97,4
DA:98,2
DA:99,1
DA:100,1
DA:101,1
DA:103,0
DA:105,2
DA:106,4
DA:107,4
DA:108,4
DA:112,2
DA:113,2
DA:114,1
DA:116,1
DA:118,2
DA:122,2
DA:123,2
DA:124,2
DA:125,2
DA:126,2
DA:127,2
DA:128,2
DA:129,0
DA:130,2
DA:131,0
DA:133,2
DA:134,1
DA:135,1
DA:136,0
DA:138,1
DA:140,2
DA:147,1
DA:148,1
DA:149,1
DA:150,1
DA:153,1
DA:154,1
DA:155,1
DA:156,1
DA:159,1
DA:160,1
DA:161,1
DA:162,1
DA:165,1
DA:166,1
DA:167,1
DA:168,1
DA:171,1
DA:172,1
DA:173,1
DA:174,1
DA:177,1
DA:178,1
DA:179,1
DA:180,1
DA:183,1
DA:184,1
DA:185,1
DA:186,1
DA:189,1
DA:190,1
DA:191,1
DA:192,1
DA:195,1
DA:196,1
DA:197,1
DA:198,1
DA:199,1
BRF:0
BRH:0
LF:87
LH:83
end_of_record
SF:/Users/solovey/Documents/dev/rusty_intervals_mcp/crates/intervals_icu_mcp/src/domains/resources.rs
FN:153,_RNCNCNCNCNvNtNtCsgTXWXfwjzne_17intervals_icu_mcp7domains9resources23resolve_stream_resource0s0_000Bd_
FN:153,_RNCNCNCNvNtNtCsgTXWXfwjzne_17intervals_icu_mcp7domains9resources23resolve_stream_resource0s0_00Bb_
FN:139,_RNCNCNvNtNtCsgTXWXfwjzne_17intervals_icu_mcp7domains9resources23resolve_stream_resource00B9_
FN:153,_RNCNCNvNtNtCsgTXWXfwjzne_17intervals_icu_mcp7domains9resources23resolve_stream_resource0s0_0B9_
FN:158,_RNCNCNvNtNtCsgTXWXfwjzne_17intervals_icu_mcp7domains9resources23resolve_stream_resource0s1_0B9_
FN:145,_RNCNCNvNtNtCsgTXWXfwjzne_17intervals_icu_mcp7domains9resources23resolve_stream_resource0s_0B9_
FN:40,_RNCNCNvNtNtCsgTXWXfwjzne_17intervals_icu_mcp7domains9resources26build_athlete_profile_text00B9_
FN:42,_RNCNCNvNtNtCsgTXWXfwjzne_17intervals_icu_mcp7domains9resources26build_athlete_profile_text0s0_0B9_
FN:43,_RNCNCNvNtNtCsgTXWXfwjzne_17intervals_icu_mcp7domains9resources26build_athlete_profile_text0s1_0B9_
FN:41,_RNCNCNvNtNtCsgTXWXfwjzne_17intervals_icu_mcp7domains9resources26build_athlete_profile_text0s_0B9_
FN:120,_RNCNvNtNtCsgTXWXfwjzne_17intervals_icu_mcp7domains9resources23resolve_stream_resource0B7_
FN:21,_RNCNvNtNtCsgTXWXfwjzne_17intervals_icu_mcp7domains9resources26build_athlete_profile_text0B7_
FN:101,_RNvNtNtCsgTXWXfwjzne_17intervals_icu_mcp7domains9resources17downsample_stream
FN:117,_RNvNtNtCsgTXWXfwjzne_17intervals_icu_mcp7domains9resources23resolve_stream_resource
FN:5,_RNvNtNtCsgTXWXfwjzne_17intervals_icu_mcp7domains9resources24athlete_profile_resource
FN:57,_RNvNtNtCsgTXWXfwjzne_17intervals_icu_mcp7domains9resources25activity_stream_resources
FN:19,_RNvNtNtCsgTXWXfwjzne_17intervals_icu_mcp7domains9resources26build_athlete_profile_text
FN:174,_RNCNvNtNtNtCsgTXWXfwjzne_17intervals_icu_mcp7domains9resources5testss_31downsample_reduces_large_stream0B9_
FN:184,_RNCNvNtNtNtCsgTXWXfwjzne_17intervals_icu_mcp7domains9resources5testss_44activity_stream_resources_returns_three_uris0B9_
FN:186,_RNCNvNtNtNtCsgTXWXfwjzne_17intervals_icu_mcp7domains9resources5testss_44activity_stream_resources_returns_three_uriss0_0B9_
FN:185,_RNCNvNtNtNtCsgTXWXfwjzne_17intervals_icu_mcp7domains9resources5testss_44activity_stream_resources_returns_three_uriss_0B9_
FN:173,_RNvNtNtNtCsgTXWXfwjzne_17intervals_icu_mcp7domains9resources5testss_31downsample_reduces_large_stream
FN:166,_RNvNtNtNtCsgTXWXfwjzne_17intervals_icu_mcp7domains9resources5testss_39downsample_returns_all_when_under_limit
FN:181,_RNvNtNtNtCsgTXWXfwjzne_17intervals_icu_mcp7domains9resources5testss_44activity_stream_resources_returns_three_uris
FNDA:0,_RNCNCNCNCNvNtNtCsgTXWXfwjzne_17intervals_icu_mcp7domains9resources23resolve_stream_resource0s0_000Bd_
FNDA:0,_RNCNCNCNvNtNtCsgTXWXfwjzne_17intervals_icu_mcp7domains9resources23resolve_stream_resource0s0_00Bb_
FNDA:0,_RNCNCNvNtNtCsgTXWXfwjzne_17intervals_icu_mcp7domains9resources23resolve_stream_resource00B9_
FNDA:0,_RNCNCNvNtNtCsgTXWXfwjzne_17intervals_icu_mcp7domains9resources23resolve_stream_resource0s0_0B9_
FNDA:0,_RNCNCNvNtNtCsgTXWXfwjzne_17intervals_icu_mcp7domains9resources23resolve_stream_resource0s1_0B9_
FNDA:0,_RNCNCNvNtNtCsgTXWXfwjzne_17intervals_icu_mcp7domains9resources23resolve_stream_resource0s_0B9_
FNDA:0,_RNCNCNvNtNtCsgTXWXfwjzne_17intervals_icu_mcp7domains9resources26build_athlete_profile_text00B9_
FNDA:0,_RNCNCNvNtNtCsgTXWXfwjzne_17intervals_icu_mcp7domains9resources26build_athlete_profile_text0s0_0B9_
FNDA:0,_RNCNCNvNtNtCsgTXWXfwjzne_17intervals_icu_mcp7domains9resources26build_athlete_profile_text0s1_0B9_
FNDA:0,_RNCNCNvNtNtCsgTXWXfwjzne_17intervals_icu_mcp7domains9resources26build_athlete_profile_text0s_0B9_
FNDA:0,_RNCNvNtNtCsgTXWXfwjzne_17intervals_icu_mcp7domains9resources23resolve_stream_resource0B7_
FNDA:0,_RNCNvNtNtCsgTXWXfwjzne_17intervals_icu_mcp7domains9resources26build_athlete_profile_text0B7_
FNDA:2,_RNvNtNtCsgTXWXfwjzne_17intervals_icu_mcp7domains9resources17downsample_stream
FNDA:0,_RNvNtNtCsgTXWXfwjzne_17intervals_icu_mcp7domains9resources23resolve_stream_resource
FNDA:0,_RNvNtNtCsgTXWXfwjzne_17intervals_icu_mcp7domains9resources24athlete_profile_resource
FNDA:1,_RNvNtNtCsgTXWXfwjzne_17intervals_icu_mcp7domains9resources25activity_stream_resources
FNDA:0,_RNvNtNtCsgTXWXfwjzne_17intervals_icu_mcp7domains9resources26build_athlete_profile_text
FNDA:1000,_RNCNvNtNtNtCsgTXWXfwjzne_17intervals_icu_mcp7domains9resources5testss_31downsample_reduces_large_stream0B9_
FNDA:1,_RNCNvNtNtNtCsgTXWXfwjzne_17intervals_icu_mcp7domains9resources5testss_44activity_stream_resources_returns_three_uris0B9_
FNDA:3,_RNCNvNtNtNtCsgTXWXfwjzne_17intervals_icu_mcp7domains9resources5testss_44activity_stream_resources_returns_three_uriss0_0B9_
FNDA:2,_RNCNvNtNtNtCsgTXWXfwjzne_17intervals_icu_mcp7domains9resources5testss_44activity_stream_resources_returns_three_uriss_0B9_
FNDA:1,_RNvNtNtNtCsgTXWXfwjzne_17intervals_icu_mcp7domains9resources5testss_31downsample_reduces_large_stream
FNDA:1,_RNvNtNtNtCsgTXWXfwjzne_17intervals_icu_mcp7domains9resources5testss_39downsample_returns_all_when_under_limit
FNDA:1,_RNvNtNtNtCsgTXWXfwjzne_17intervals_icu_mcp7domains9resources5testss_44activity_stream_resources_returns_three_uris
FNF:24
FNH:9
DA:5,0
DA:6,0
DA:7,0
DA:8,0
DA:9,0
DA:10,0
DA:11,0
DA:12,0
DA:13,0
DA:14,0
DA:15,0
DA:19,0
DA:20,0
DA:21,0
DA:22,0
DA:23,0
DA:24,0
DA:26,0
DA:37,0
DA:38,0
DA:39,0
DA:40,0
DA:41,0
DA:42,0
DA:43,0
DA:44,0
DA:47,0
DA:48,0
DA:57,1
DA:58,1
DA:60,1
DA:64,1
DA:65,1
DA:66,1
DA:67,1
DA:68,1
DA:69,1
DA:70,1
DA:72,1
DA:76,1
DA:77,1
DA:78,1
DA:79,1
DA:80,1
DA:81,1
DA:82,1
DA:84,1
DA:88,1
DA:89,1
DA:90,1
DA:91,1
DA:92,1
DA:93,1
DA:94,1
DA:96,1
DA:97,1
DA:101,2
DA:102,2
DA:103,1
DA:104,1
DA:105,1
DA:106,1
DA:107,1
DA:108,201
DA:109,200
DA:110,200
DA:111,200
DA:112,1
DA:113,2
DA:117,0
DA:118,0
DA:119,0
DA:120,0
DA:121,0
DA:122,0
DA:123,0
DA:124,0
DA:126,0
DA:127,0
DA:129,0
DA:130,0
DA:131,0
DA:132,0
DA:133,0
DA:136,0
DA:137,0
DA:138,0
DA:139,0
DA:141,0
DA:142,0
DA:145,0
DA:146,0
DA:147,0
DA:148,0
DA:151,0
DA:152,0
DA:153,0
DA:154,0
DA:156,0
DA:158,0
DA:159,0
DA:166,1
DA:167,1
DA:168,1
DA:169,1
DA:170,1
DA:173,1
DA:174,1000
DA:175,1
DA:176,1
DA:177,1
DA:178,1
DA:181,1
DA:182,1
DA:183,1
DA:184,1
DA:185,2
DA:186,3
DA:187,1
BRF:0
BRH:0
LF:135
LH:63
end_of_record
SF:/Users/solovey/Documents/dev/rusty_intervals_mcp/crates/intervals_icu_mcp/src/domains/sport_settings.rs
FN:54,_RNvNtNtCsgTXWXfwjzne_17intervals_icu_mcp7domains14sport_settings21filter_sport_settings
FN:21,_RNvNtNtCsgTXWXfwjzne_17intervals_icu_mcp7domains14sport_settings22compact_sport_settings
FN:118,_RNvNtNtNtCsgTXWXfwjzne_17intervals_icu_mcp7domains14sport_settings5testss_37filter_sport_settings_field_selection
FN:94,_RNvNtNtNtCsgTXWXfwjzne_17intervals_icu_mcp7domains14sport_settings5testss_43compact_sport_settings_filters_and_compacts
FN:127,_RNCNvNtNtNtCsgTXWXfwjzne_17intervals_icu_mcp7domains14sport_settings5testss_37filter_sport_settings_field_selection0B9_
FN:112,_RNCNvNtNtNtCsgTXWXfwjzne_17intervals_icu_mcp7domains14sport_settings5testss_43compact_sport_settings_filters_and_compacts0B9_
FN:70,_RNCNCNvNtNtCsgTXWXfwjzne_17intervals_icu_mcp7domains14sport_settings21filter_sport_settings00B9_
FN:71,_RNCNCNvNtNtCsgTXWXfwjzne_17intervals_icu_mcp7domains14sport_settings21filter_sport_settings0s_0B9_
FN:39,_RNCNCNvNtNtCsgTXWXfwjzne_17intervals_icu_mcp7domains14sport_settings22compact_sport_settings00B9_
FN:40,_RNCNCNvNtNtCsgTXWXfwjzne_17intervals_icu_mcp7domains14sport_settings22compact_sport_settings0s_0B9_
FN:65,_RNCNvNtNtCsgTXWXfwjzne_17intervals_icu_mcp7domains14sport_settings21filter_sport_settings0B7_
FN:34,_RNCNvNtNtCsgTXWXfwjzne_17intervals_icu_mcp7domains14sport_settings22compact_sport_settings0B7_
FNDA:1,_RNvNtNtCsgTXWXfwjzne_17intervals_icu_mcp7domains14sport_settings21filter_sport_settings
FNDA:2,_RNvNtNtCsgTXWXfwjzne_17intervals_icu_mcp7domains14sport_settings22compact_sport_settings
FNDA:1,_RNvNtNtNtCsgTXWXfwjzne_17intervals_icu_mcp7domains14sport_settings5testss_37filter_sport_settings_field_selection
FNDA:1,_RNvNtNtNtCsgTXWXfwjzne_17intervals_icu_mcp7domains14sport_settings5testss_43compact_sport_settings_filters_and_compacts
FNDA:1,_RNCNvNtNtNtCsgTXWXfwjzne_17intervals_icu_mcp7domains14sport_settings5testss_37filter_sport_settings_field_selection0B9_
FNDA:1,_RNCNvNtNtNtCsgTXWXfwjzne_17intervals_icu_mcp7domains14sport_settings5testss_43compact_sport_settings_filters_and_compacts0B9_
FNDA:0,_RNCNCNvNtNtCsgTXWXfwjzne_17intervals_icu_mcp7domains14sport_settings21filter_sport_settings00B9_
FNDA:0,_RNCNCNvNtNtCsgTXWXfwjzne_17intervals_icu_mcp7domains14sport_settings21filter_sport_settings0s_0B9_
FNDA:2,_RNCNCNvNtNtCsgTXWXfwjzne_17intervals_icu_mcp7domains14sport_settings22compact_sport_settings00B9_
FNDA:2,_RNCNCNvNtNtCsgTXWXfwjzne_17intervals_icu_mcp7domains14sport_settings22compact_sport_settings0s_0B9_
FNDA:2,_RNCNvNtNtCsgTXWXfwjzne_17intervals_icu_mcp7domains14sport_settings21filter_sport_settings0B7_
FNDA:4,_RNCNvNtNtCsgTXWXfwjzne_17intervals_icu_mcp7domains14sport_settings22compact_sport_settings0B7_
FNF:12
FNH:10
DA:21,2
DA:22,2
DA:23,2
DA:24,2
DA:25,2
DA:26,2
DA:28,2
DA:29,0
DA:32,2
DA:33,2
DA:34,4
DA:35,4
DA:38,4
DA:39,2
DA:40,2
DA:41,1
DA:42,1
DA:43,2
DA:46,3
DA:47,4
DA:48,2
DA:50,2
DA:51,2
DA:54,1
DA:55,1
DA:56,1
DA:57,1
DA:58,1
DA:59,1
DA:60,0
DA:63,1
DA:64,1
DA:65,2
DA:66,2
DA:69,2
DA:70,0
DA:71,0
DA:72,0
DA:73,0
DA:74,2
DA:77,2
DA:78,2
DA:80,0
DA:82,2
DA:83,1
DA:85,1
DA:86,1
DA:94,1
DA:95,1
DA:96,1
DA:97,1
DA:101,1
DA:102,1
DA:103,1
DA:104,1
DA:107,1
DA:108,1
DA:109,1
DA:110,1
DA:111,1
DA:112,1
DA:115,1
DA:118,1
DA:119,1
DA:120,1
DA:121,1
DA:124,1
DA:125,1
DA:126,1
DA:127,1
DA:128,1
DA:129,1
BRF:0
BRH:0
LF:80
LH:71
end_of_record
SF:/Users/solovey/Documents/dev/rusty_intervals_mcp/crates/intervals_icu_mcp/src/domains/wellness.rs
FN:224,_RNvNtNtNtCsgTXWXfwjzne_17intervals_icu_mcp7domains8wellness5testss_29normalize_date_parses_iso8601
FN:230,_RNvNtNtNtCsgTXWXfwjzne_17intervals_icu_mcp7domains8wellness5testss_32normalize_date_parses_plain_date
FN:173,_RNvNtNtNtCsgTXWXfwjzne_17intervals_icu_mcp7domains8wellness5testss_37compact_wellness_entry_filters_fields
FN:181,_RNvNtNtNtCsgTXWXfwjzne_17intervals_icu_mcp7domains8wellness5testss_42compact_wellness_entry_uses_default_fields
FN:130,_RNvNtNtNtCsgTXWXfwjzne_17intervals_icu_mcp7domains8wellness5testss_43transform_wellness_passes_through_non_array
FN:163,_RNvNtNtNtCsgTXWXfwjzne_17intervals_icu_mcp7domains8wellness5testss_44transform_wellness_summary_with_single_entry
FN:208,_RNvNtNtNtCsgTXWXfwjzne_17intervals_icu_mcp7domains8wellness5testss_45compact_wellness_entry_with_custom_field_list
FN:139,_RNvNtNtNtCsgTXWXfwjzne_17intervals_icu_mcp7domains8wellness5testss_45transform_wellness_compact_with_custom_fields
FN:104,_RNvNtNtNtCsgTXWXfwjzne_17intervals_icu_mcp7domains8wellness5testss_45transform_wellness_summary_returns_aggregates
FN:150,_RNvNtNtNtCsgTXWXfwjzne_17intervals_icu_mcp7domains8wellness5testss_58transform_wellness_compact_uses_defaults_when_fields_empty
FN:116,_RNvNtNtNtCsgTXWXfwjzne_17intervals_icu_mcp7domains8wellness5testss_63transform_wellness_summary_returns_zero_when_no_matching_fields
FN:33,_RNvNtNtCsgTXWXfwjzne_17intervals_icu_mcp7domains8wellness14normalize_date
FN:37,_RNvNtNtCsgTXWXfwjzne_17intervals_icu_mcp7domains8wellness18transform_wellness
FN:95,_RNvNtNtCsgTXWXfwjzne_17intervals_icu_mcp7domains8wellness22compact_wellness_entry
FN:54,_RNCNvNtNtCsgTXWXfwjzne_17intervals_icu_mcp7domains8wellness18transform_wellness0B7_
FN:62,_RNCNvNtNtCsgTXWXfwjzne_17intervals_icu_mcp7domains8wellness18transform_wellnesss0_0B7_
FN:66,_RNCNvNtNtCsgTXWXfwjzne_17intervals_icu_mcp7domains8wellness18transform_wellnesss1_0B7_
FN:86,_RNCNvNtNtCsgTXWXfwjzne_17intervals_icu_mcp7domains8wellness18transform_wellnesss2_0B7_
FN:58,_RNCNvNtNtCsgTXWXfwjzne_17intervals_icu_mcp7domains8wellness18transform_wellnesss_0B7_
FNDA:1,_RNvNtNtNtCsgTXWXfwjzne_17intervals_icu_mcp7domains8wellness5testss_29normalize_date_parses_iso8601
FNDA:1,_RNvNtNtNtCsgTXWXfwjzne_17intervals_icu_mcp7domains8wellness5testss_32normalize_date_parses_plain_date
FNDA:1,_RNvNtNtNtCsgTXWXfwjzne_17intervals_icu_mcp7domains8wellness5testss_37compact_wellness_entry_filters_fields
FNDA:1,_RNvNtNtNtCsgTXWXfwjzne_17intervals_icu_mcp7domains8wellness5testss_42compact_wellness_entry_uses_default_fields
FNDA:1,_RNvNtNtNtCsgTXWXfwjzne_17intervals_icu_mcp7domains8wellness5testss_43transform_wellness_passes_through_non_array
FNDA:1,_RNvNtNtNtCsgTXWXfwjzne_17intervals_icu_mcp7domains8wellness5testss_44transform_wellness_summary_with_single_entry
FNDA:1,_RNvNtNtNtCsgTXWXfwjzne_17intervals_icu_mcp7domains8wellness5testss_45compact_wellness_entry_with_custom_field_list
FNDA:1,_RNvNtNtNtCsgTXWXfwjzne_17intervals_icu_mcp7domains8wellness5testss_45transform_wellness_compact_with_custom_fields
FNDA:1,_RNvNtNtNtCsgTXWXfwjzne_17intervals_icu_mcp7domains8wellness5testss_45transform_wellness_summary_returns_aggregates
FNDA:1,_RNvNtNtNtCsgTXWXfwjzne_17intervals_icu_mcp7domains8wellness5testss_58transform_wellness_compact_uses_defaults_when_fields_empty
FNDA:1,_RNvNtNtNtCsgTXWXfwjzne_17intervals_icu_mcp7domains8wellness5testss_63transform_wellness_summary_returns_zero_when_no_matching_fields
FNDA:2,_RNvNtNtCsgTXWXfwjzne_17intervals_icu_mcp7domains8wellness14normalize_date
FNDA:7,_RNvNtNtCsgTXWXfwjzne_17intervals_icu_mcp7domains8wellness18transform_wellness
FNDA:3,_RNvNtNtCsgTXWXfwjzne_17intervals_icu_mcp7domains8wellness22compact_wellness_entry
FNDA:3,_RNCNvNtNtCsgTXWXfwjzne_17intervals_icu_mcp7domains8wellness18transform_wellness0B7_
FNDA:3,_RNCNvNtNtCsgTXWXfwjzne_17intervals_icu_mcp7domains8wellness18transform_wellnesss0_0B7_
FNDA:3,_RNCNvNtNtCsgTXWXfwjzne_17intervals_icu_mcp7domains8wellness18transform_wellnesss1_0B7_
FNDA:2,_RNCNvNtNtCsgTXWXfwjzne_17intervals_icu_mcp7domains8wellness18transform_wellnesss2_0B7_
FNDA:2,_RNCNvNtNtCsgTXWXfwjzne_17intervals_icu_mcp7domains8wellness18transform_wellnesss_0B7_
FNF:19
FNH:19
DA:33,2
DA:34,2
DA:35,2
DA:37,7
DA:38,7
DA:39,2
DA:42,5
DA:43,3
DA:44,3
DA:45,3
DA:46,3
DA:47,3
DA:48,3
DA:49,3
DA:50,3
DA:52,5
DA:53,5
DA:54,5
DA:55,3
DA:56,3
DA:57,3
DA:58,5
DA:59,2
DA:60,2
DA:61,3
DA:62,5
DA:63,3
DA:64,3
DA:65,3
DA:66,5
DA:67,3
DA:68,3
DA:69,3
DA:70,0
DA:73,3
DA:74,3
DA:75,3
DA:76,3
DA:77,3
DA:78,3
DA:80,2
DA:82,2
DA:83,2
DA:84,1
DA:86,2
DA:89,2
DA:90,0
DA:92,0
DA:93,7
DA:95,3
DA:96,3
DA:97,3
DA:104,1
DA:105,1
DA:106,1
DA:107,1
DA:110,1
DA:111,1
DA:112,1
DA:113,1
DA:116,1
DA:117,1
DA:118,1
DA:119,1
DA:121,1
DA:122,1
DA:123,1
DA:124,1
DA:125,1
DA:126,1
DA:127,1
DA:130,1
DA:131,1
DA:132,1
DA:133,1
DA:134,1
DA:135,1
DA:136,1
DA:139,1
DA:140,1
DA:141,1
DA:143,1
DA:144,1
DA:145,1
DA:146,1
DA:147,1
DA:150,1
DA:151,1
DA:152,1
DA:154,1
DA:155,1
DA:156,1
DA:157,1
DA:158,1
DA:159,1
DA:160,1
DA:163,1
DA:164,1
DA:165,1
DA:166,1
DA:167,1
DA:168,1
DA:169,1
DA:170,1
DA:173,1
DA:174,1
DA:175,1
DA:176,1
DA:177,1
DA:178,1
DA:181,1
DA:182,1
DA:183,1
DA:184,1
DA:185,1
DA:186,1
DA:187,1
DA:188,1
DA:189,1
DA:190,1
DA:191,1
DA:193,1
DA:194,1
DA:195,1
DA:196,1
DA:197,1
DA:198,1
DA:199,1
DA:200,1
DA:201,1
DA:202,1
DA:203,1
DA:204,1
DA:205,1
DA:208,1
DA:209,1
DA:210,1
DA:211,1
DA:212,1
DA:213,1
DA:215,1
DA:216,1
DA:217,1
DA:218,1
DA:219,1
DA:220,1
DA:221,1
DA:224,1
DA:225,1
DA:226,1
DA:227,1
DA:230,1
DA:231,1
DA:232,1
DA:233,1
BRF:0
BRH:0
LF:160
LH:157
end_of_record
SF:/Users/solovey/Documents/dev/rusty_intervals_mcp/crates/intervals_icu_mcp/src/domains/workouts.rs
FN:34,_RNvNtNtCsgTXWXfwjzne_17intervals_icu_mcp7domains8workouts16compact_workouts
FN:74,_RNvNtNtCsgTXWXfwjzne_17intervals_icu_mcp7domains8workouts19compact_folder_item
FN:4,_RNvNtNtCsgTXWXfwjzne_17intervals_icu_mcp7domains8workouts23compact_workout_library
FN:127,_RNvNtNtNtCsgTXWXfwjzne_17intervals_icu_mcp7domains8workouts5testss_34compact_folder_item_filters_fields
FN:112,_RNvNtNtNtCsgTXWXfwjzne_17intervals_icu_mcp7domains8workouts5testss_35compact_workouts_limits_and_filters
FN:100,_RNvNtNtNtCsgTXWXfwjzne_17intervals_icu_mcp7domains8workouts5testss_38compact_workout_library_filters_fields
FN:47,_RNCNCNvNtNtCsgTXWXfwjzne_17intervals_icu_mcp7domains8workouts16compact_workouts00B9_
FN:77,_RNCNCNvNtNtCsgTXWXfwjzne_17intervals_icu_mcp7domains8workouts19compact_folder_item00B9_
FN:7,_RNCNCNvNtNtCsgTXWXfwjzne_17intervals_icu_mcp7domains8workouts23compact_workout_library00B9_
FN:47,_RNCNvNtNtCsgTXWXfwjzne_17intervals_icu_mcp7domains8workouts16compact_workouts0B7_
FN:56,_RNCNvNtNtCsgTXWXfwjzne_17intervals_icu_mcp7domains8workouts16compact_workoutss0_0B7_
FN:48,_RNCNvNtNtCsgTXWXfwjzne_17intervals_icu_mcp7domains8workouts16compact_workoutss_0B7_
FN:77,_RNCNvNtNtCsgTXWXfwjzne_17intervals_icu_mcp7domains8workouts19compact_folder_item0B7_
FN:78,_RNCNvNtNtCsgTXWXfwjzne_17intervals_icu_mcp7domains8workouts19compact_folder_items_0B7_
FN:7,_RNCNvNtNtCsgTXWXfwjzne_17intervals_icu_mcp7domains8workouts23compact_workout_library0B7_
FN:16,_RNCNvNtNtCsgTXWXfwjzne_17intervals_icu_mcp7domains8workouts23compact_workout_librarys0_0B7_
FN:8,_RNCNvNtNtCsgTXWXfwjzne_17intervals_icu_mcp7domains8workouts23compact_workout_librarys_0B7_
FN:131,_RNCNvNtNtNtCsgTXWXfwjzne_17intervals_icu_mcp7domains8workouts5testss_34compact_folder_item_filters_fields0B9_
FN:132,_RNCNvNtNtNtCsgTXWXfwjzne_17intervals_icu_mcp7domains8workouts5testss_34compact_folder_item_filters_fieldss_0B9_
FN:107,_RNCNvNtNtNtCsgTXWXfwjzne_17intervals_icu_mcp7domains8workouts5testss_38compact_workout_library_filters_fields0B9_
FNDA:1,_RNvNtNtCsgTXWXfwjzne_17intervals_icu_mcp7domains8workouts16compact_workouts
FNDA:1,_RNvNtNtCsgTXWXfwjzne_17intervals_icu_mcp7domains8workouts19compact_folder_item
FNDA:1,_RNvNtNtCsgTXWXfwjzne_17intervals_icu_mcp7domains8workouts23compact_workout_library
FNDA:1,_RNvNtNtNtCsgTXWXfwjzne_17intervals_icu_mcp7domains8workouts5testss_34compact_folder_item_filters_fields
FNDA:1,_RNvNtNtNtCsgTXWXfwjzne_17intervals_icu_mcp7domains8workouts5testss_35compact_workouts_limits_and_filters
FNDA:1,_RNvNtNtNtCsgTXWXfwjzne_17intervals_icu_mcp7domains8workouts5testss_38compact_workout_library_filters_fields
FNDA:0,_RNCNCNvNtNtCsgTXWXfwjzne_17intervals_icu_mcp7domains8workouts16compact_workouts00B9_
FNDA:0,_RNCNCNvNtNtCsgTXWXfwjzne_17intervals_icu_mcp7domains8workouts19compact_folder_item00B9_
FNDA:0,_RNCNCNvNtNtCsgTXWXfwjzne_17intervals_icu_mcp7domains8workouts23compact_workout_library00B9_
FNDA:0,_RNCNvNtNtCsgTXWXfwjzne_17intervals_icu_mcp7domains8workouts16compact_workouts0B7_
FNDA:2,_RNCNvNtNtCsgTXWXfwjzne_17intervals_icu_mcp7domains8workouts16compact_workoutss0_0B7_
FNDA:1,_RNCNvNtNtCsgTXWXfwjzne_17intervals_icu_mcp7domains8workouts16compact_workoutss_0B7_
FNDA:0,_RNCNvNtNtCsgTXWXfwjzne_17intervals_icu_mcp7domains8workouts19compact_folder_item0B7_
FNDA:1,_RNCNvNtNtCsgTXWXfwjzne_17intervals_icu_mcp7domains8workouts19compact_folder_items_0B7_
FNDA:0,_RNCNvNtNtCsgTXWXfwjzne_17intervals_icu_mcp7domains8workouts23compact_workout_library0B7_
FNDA:1,_RNCNvNtNtCsgTXWXfwjzne_17intervals_icu_mcp7domains8workouts23compact_workout_librarys0_0B7_
FNDA:1,_RNCNvNtNtCsgTXWXfwjzne_17intervals_icu_mcp7domains8workouts23compact_workout_librarys_0B7_
FNDA:1,_RNCNvNtNtNtCsgTXWXfwjzne_17intervals_icu_mcp7domains8workouts5testss_34compact_folder_item_filters_fields0B9_
FNDA:1,_RNCNvNtNtNtCsgTXWXfwjzne_17intervals_icu_mcp7domains8workouts5testss_34compact_folder_item_filters_fieldss_0B9_
FNDA:1,_RNCNvNtNtNtCsgTXWXfwjzne_17intervals_icu_mcp7domains8workouts5testss_38compact_workout_library_filters_fields0B9_
FNF:20
FNH:14
DA:4,1
DA:5,1
DA:6,1
DA:7,1
DA:8,1
DA:10,1
DA:11,0
DA:14,1
DA:15,1
DA:16,1
DA:17,1
DA:18,0
DA:20,1
DA:21,3
DA:22,3
DA:23,3
DA:24,3
DA:26,1
DA:27,1
DA:28,1
DA:30,1
DA:31,1
DA:34,1
DA:35,1
DA:36,1
DA:37,1
DA:38,1
DA:39,1
DA:40,1
DA:41,0
DA:44,1
DA:45,1
DA:46,1
DA:47,1
DA:48,1
DA:50,0
DA:53,1
DA:54,1
DA:55,1
DA:56,2
DA:57,2
DA:58,0
DA:60,2
DA:61,10
DA:62,10
DA:63,8
DA:64,8
DA:66,2
DA:67,2
DA:68,1
DA:70,1
DA:71,1
DA:74,1
DA:75,1
DA:76,1
DA:77,1
DA:78,1
DA:80,1
DA:81,0
DA:84,1
DA:85,3
DA:86,3
DA:87,3
DA:88,3
DA:91,1
DA:92,1
DA:100,1
DA:101,1
DA:102,1
DA:104,1
DA:105,1
DA:106,1
DA:107,1
DA:108,1
DA:109,1
DA:112,1
DA:113,1
DA:114,1
DA:115,1
DA:116,1
DA:119,1
DA:120,1
DA:121,1
DA:122,1
DA:123,1
DA:124,1
DA:127,1
DA:128,1
DA:129,1
DA:130,1
DA:131,1
DA:132,1
DA:133,1
DA:134,1
DA:135,1
BRF:0
BRH:0
LF:109
LH:97
end_of_record
SF:/Users/solovey/Documents/dev/rusty_intervals_mcp/crates/intervals_icu_mcp/src/dynamic/dispatch.rs
FN:9,_RNvNtNtCsgTXWXfwjzne_17intervals_icu_mcp7dynamic8dispatch18dispatch_operation
FN:194,_RNvNtNtCsgTXWXfwjzne_17intervals_icu_mcp7dynamic8dispatch14value_to_query
FN:138,_RNvNtNtCsgTXWXfwjzne_17intervals_icu_mcp7dynamic8dispatch18stringify_argument
FN:169,_RNvNtNtCsgTXWXfwjzne_17intervals_icu_mcp7dynamic8dispatch19collect_query_pairs
FN:203,_RNvNtNtCsgTXWXfwjzne_17intervals_icu_mcp7dynamic8dispatch19parse_response_body
FN:147,_RNvNtNtCsgTXWXfwjzne_17intervals_icu_mcp7dynamic8dispatch21resolve_path_argument
FN:305,_RNvNtNtNtCsgTXWXfwjzne_17intervals_icu_mcp7dynamic8dispatch5testss_24test_value_to_query_bool
FN:429,_RNvNtNtNtCsgTXWXfwjzne_17intervals_icu_mcp7dynamic8dispatch5testss_25test_parse_body_roundtrip
FN:316,_RNvNtNtNtCsgTXWXfwjzne_17intervals_icu_mcp7dynamic8dispatch5testss_25test_value_to_query_array
FN:294,_RNvNtNtNtCsgTXWXfwjzne_17intervals_icu_mcp7dynamic8dispatch5testss_26test_value_to_query_number
FN:323,_RNvNtNtNtCsgTXWXfwjzne_17intervals_icu_mcp7dynamic8dispatch5testss_26test_value_to_query_object
FN:287,_RNvNtNtNtCsgTXWXfwjzne_17intervals_icu_mcp7dynamic8dispatch5testss_26test_value_to_query_string
FN:251,_RNvNtNtNtCsgTXWXfwjzne_17intervals_icu_mcp7dynamic8dispatch5testss_28test_stringify_argument_bool
FN:262,_RNvNtNtNtCsgTXWXfwjzne_17intervals_icu_mcp7dynamic8dispatch5testss_28test_stringify_argument_null
FN:269,_RNvNtNtNtCsgTXWXfwjzne_17intervals_icu_mcp7dynamic8dispatch5testss_29test_stringify_argument_array
FN:334,_RNvNtNtNtCsgTXWXfwjzne_17intervals_icu_mcp7dynamic8dispatch5testss_30test_parse_response_body_empty
FN:240,_RNvNtNtNtCsgTXWXfwjzne_17intervals_icu_mcp7dynamic8dispatch5testss_30test_stringify_argument_number
FN:276,_RNvNtNtNtCsgTXWXfwjzne_17intervals_icu_mcp7dynamic8dispatch5testss_30test_stringify_argument_object
FN:233,_RNvNtNtNtCsgTXWXfwjzne_17intervals_icu_mcp7dynamic8dispatch5testss_30test_stringify_argument_string
FN:405,_RNvNtNtNtCsgTXWXfwjzne_17intervals_icu_mcp7dynamic8dispatch5testss_32test_parse_response_body_unicode
FN:398,_RNvNtNtNtCsgTXWXfwjzne_17intervals_icu_mcp7dynamic8dispatch5testss_34test_parse_response_body_json_null
FN:347,_RNvNtNtNtCsgTXWXfwjzne_17intervals_icu_mcp7dynamic8dispatch5testss_35test_parse_response_body_json_array
FN:380,_RNvNtNtNtCsgTXWXfwjzne_17intervals_icu_mcp7dynamic8dispatch5testss_35test_parse_response_body_json_float
FN:355,_RNvNtNtNtCsgTXWXfwjzne_17intervals_icu_mcp7dynamic8dispatch5testss_35test_parse_response_body_plain_text
FN:340,_RNvNtNtNtCsgTXWXfwjzne_17intervals_icu_mcp7dynamic8dispatch5testss_35test_parse_response_body_valid_json
FN:373,_RNvNtNtNtCsgTXWXfwjzne_17intervals_icu_mcp7dynamic8dispatch5testss_36test_parse_response_body_json_number
FN:362,_RNvNtNtNtCsgTXWXfwjzne_17intervals_icu_mcp7dynamic8dispatch5testss_37test_parse_response_body_invalid_utf8
FN:391,_RNvNtNtNtCsgTXWXfwjzne_17intervals_icu_mcp7dynamic8dispatch5testss_37test_parse_response_body_json_boolean
FN:470,_RNvNtNtNtCsgTXWXfwjzne_17intervals_icu_mcp7dynamic8dispatch5testss_39test_collect_query_pairs_expands_arrays
FN:416,_RNvNtNtNtCsgTXWXfwjzne_17intervals_icu_mcp7dynamic8dispatch5testss_39test_dispatch_helper_functions_together
FN:439,_RNvNtNtNtCsgTXWXfwjzne_17intervals_icu_mcp7dynamic8dispatch5testss_56test_resolve_path_argument_uses_activity_id_alias_for_id
FN:456,_RNvNtNtNtCsgTXWXfwjzne_17intervals_icu_mcp7dynamic8dispatch5testss_67test_resolve_path_argument_defaults_optional_suffix_params_to_empty
FN:434,_RNCNvNtNtNtCsgTXWXfwjzne_17intervals_icu_mcp7dynamic8dispatch5testss_25test_parse_body_roundtrip0B9_
FN:435,_RNCNvNtNtNtCsgTXWXfwjzne_17intervals_icu_mcp7dynamic8dispatch5testss_25test_parse_body_roundtrips_0B9_
FN:247,_RNCNvNtNtNtCsgTXWXfwjzne_17intervals_icu_mcp7dynamic8dispatch5testss_30test_stringify_argument_number0B9_
FN:386,_RNCNvNtNtNtCsgTXWXfwjzne_17intervals_icu_mcp7dynamic8dispatch5testss_35test_parse_response_body_json_float0B9_
FN:343,_RNCNvNtNtNtCsgTXWXfwjzne_17intervals_icu_mcp7dynamic8dispatch5testss_35test_parse_response_body_valid_json0B9_
FN:368,_RNCNvNtNtNtCsgTXWXfwjzne_17intervals_icu_mcp7dynamic8dispatch5testss_37test_parse_response_body_invalid_utf80B9_
FN:369,_RNCNvNtNtNtCsgTXWXfwjzne_17intervals_icu_mcp7dynamic8dispatch5testss_37test_parse_response_body_invalid_utf8s_0B9_
FN:36,_RNCNCNvNtNtCsgTXWXfwjzne_17intervals_icu_mcp7dynamic8dispatch18dispatch_operation00B9_
FN:64,_RNCNCNvNtNtCsgTXWXfwjzne_17intervals_icu_mcp7dynamic8dispatch18dispatch_operation0s0_0B9_
FN:75,_RNCNCNvNtNtCsgTXWXfwjzne_17intervals_icu_mcp7dynamic8dispatch18dispatch_operation0s1_0B9_
FN:78,_RNCNCNvNtNtCsgTXWXfwjzne_17intervals_icu_mcp7dynamic8dispatch18dispatch_operation0s2_0B9_
FN:88,_RNCNCNvNtNtCsgTXWXfwjzne_17intervals_icu_mcp7dynamic8dispatch18dispatch_operation0s3_0B9_
FN:60,_RNCNCNvNtNtCsgTXWXfwjzne_17intervals_icu_mcp7dynamic8dispatch18dispatch_operation0s_0B9_
FN:154,_RNCNCNvNtNtCsgTXWXfwjzne_17intervals_icu_mcp7dynamic8dispatch21resolve_path_argument00B9_
FN:16,_RNCNvNtNtCsgTXWXfwjzne_17intervals_icu_mcp7dynamic8dispatch18dispatch_operation0B7_
FN:152,_RNCNvNtNtCsgTXWXfwjzne_17intervals_icu_mcp7dynamic8dispatch21resolve_path_argument0B7_
FN:160,_RNCNvNtNtCsgTXWXfwjzne_17intervals_icu_mcp7dynamic8dispatch21resolve_path_arguments_0B7_
FNDA:0,_RNvNtNtCsgTXWXfwjzne_17intervals_icu_mcp7dynamic8dispatch18dispatch_operation
FNDA:12,_RNvNtNtCsgTXWXfwjzne_17intervals_icu_mcp7dynamic8dispatch14value_to_query
FNDA:10,_RNvNtNtCsgTXWXfwjzne_17intervals_icu_mcp7dynamic8dispatch18stringify_argument
FNDA:1,_RNvNtNtCsgTXWXfwjzne_17intervals_icu_mcp7dynamic8dispatch19collect_query_pairs
FNDA:11,_RNvNtNtCsgTXWXfwjzne_17intervals_icu_mcp7dynamic8dispatch19parse_response_body
FNDA:2,_RNvNtNtCsgTXWXfwjzne_17intervals_icu_mcp7dynamic8dispatch21resolve_path_argument
FNDA:1,_RNvNtNtNtCsgTXWXfwjzne_17intervals_icu_mcp7dynamic8dispatch5testss_24test_value_to_query_bool
FNDA:1,_RNvNtNtNtCsgTXWXfwjzne_17intervals_icu_mcp7dynamic8dispatch5testss_25test_parse_body_roundtrip
FNDA:1,_RNvNtNtNtCsgTXWXfwjzne_17intervals_icu_mcp7dynamic8dispatch5testss_25test_value_to_query_array
FNDA:1,_RNvNtNtNtCsgTXWXfwjzne_17intervals_icu_mcp7dynamic8dispatch5testss_26test_value_to_query_number
FNDA:1,_RNvNtNtNtCsgTXWXfwjzne_17intervals_icu_mcp7dynamic8dispatch5testss_26test_value_to_query_object
FNDA:1,_RNvNtNtNtCsgTXWXfwjzne_17intervals_icu_mcp7dynamic8dispatch5testss_26test_value_to_query_string
FNDA:1,_RNvNtNtNtCsgTXWXfwjzne_17intervals_icu_mcp7dynamic8dispatch5testss_28test_stringify_argument_bool
FNDA:1,_RNvNtNtNtCsgTXWXfwjzne_17intervals_icu_mcp7dynamic8dispatch5testss_28test_stringify_argument_null
FNDA:1,_RNvNtNtNtCsgTXWXfwjzne_17intervals_icu_mcp7dynamic8dispatch5testss_29test_stringify_argument_array
FNDA:1,_RNvNtNtNtCsgTXWXfwjzne_17intervals_icu_mcp7dynamic8dispatch5testss_30test_parse_response_body_empty
FNDA:1,_RNvNtNtNtCsgTXWXfwjzne_17intervals_icu_mcp7dynamic8dispatch5testss_30test_stringify_argument_number
FNDA:1,_RNvNtNtNtCsgTXWXfwjzne_17intervals_icu_mcp7dynamic8dispatch5testss_30test_stringify_argument_object
FNDA:1,_RNvNtNtNtCsgTXWXfwjzne_17intervals_icu_mcp7dynamic8dispatch5testss_30test_stringify_argument_string
FNDA:1,_RNvNtNtNtCsgTXWXfwjzne_17intervals_icu_mcp7dynamic8dispatch5testss_32test_parse_response_body_unicode
FNDA:1,_RNvNtNtNtCsgTXWXfwjzne_17intervals_icu_mcp7dynamic8dispatch5testss_34test_parse_response_body_json_null
FNDA:1,_RNvNtNtNtCsgTXWXfwjzne_17intervals_icu_mcp7dynamic8dispatch5testss_35test_parse_response_body_json_array
FNDA:1,_RNvNtNtNtCsgTXWXfwjzne_17intervals_icu_mcp7dynamic8dispatch5testss_35test_parse_response_body_json_float
FNDA:1,_RNvNtNtNtCsgTXWXfwjzne_17intervals_icu_mcp7dynamic8dispatch5testss_35test_parse_response_body_plain_text
FNDA:1,_RNvNtNtNtCsgTXWXfwjzne_17intervals_icu_mcp7dynamic8dispatch5testss_35test_parse_response_body_valid_json
FNDA:1,_RNvNtNtNtCsgTXWXfwjzne_17intervals_icu_mcp7dynamic8dispatch5testss_36test_parse_response_body_json_number
FNDA:1,_RNvNtNtNtCsgTXWXfwjzne_17intervals_icu_mcp7dynamic8dispatch5testss_37test_parse_response_body_invalid_utf8
FNDA:1,_RNvNtNtNtCsgTXWXfwjzne_17intervals_icu_mcp7dynamic8dispatch5testss_37test_parse_response_body_json_boolean
FNDA:1,_RNvNtNtNtCsgTXWXfwjzne_17intervals_icu_mcp7dynamic8dispatch5testss_39test_collect_query_pairs_expands_arrays
FNDA:1,_RNvNtNtNtCsgTXWXfwjzne_17intervals_icu_mcp7dynamic8dispatch5testss_39test_dispatch_helper_functions_together
FNDA:1,_RNvNtNtNtCsgTXWXfwjzne_17intervals_icu_mcp7dynamic8dispatch5testss_56test_resolve_path_argument_uses_activity_id_alias_for_id
FNDA:1,_RNvNtNtNtCsgTXWXfwjzne_17intervals_icu_mcp7dynamic8dispatch5testss_67test_resolve_path_argument_defaults_optional_suffix_params_to_empty
FNDA:1,_RNCNvNtNtNtCsgTXWXfwjzne_17intervals_icu_mcp7dynamic8dispatch5testss_25test_parse_body_roundtrip0B9_
FNDA:1,_RNCNvNtNtNtCsgTXWXfwjzne_17intervals_icu_mcp7dynamic8dispatch5testss_25test_parse_body_roundtrips_0B9_
FNDA:1,_RNCNvNtNtNtCsgTXWXfwjzne_17intervals_icu_mcp7dynamic8dispatch5testss_30test_stringify_argument_number0B9_
FNDA:1,_RNCNvNtNtNtCsgTXWXfwjzne_17intervals_icu_mcp7dynamic8dispatch5testss_35test_parse_response_body_json_float0B9_
FNDA:1,_RNCNvNtNtNtCsgTXWXfwjzne_17intervals_icu_mcp7dynamic8dispatch5testss_35test_parse_response_body_valid_json0B9_
FNDA:1,_RNCNvNtNtNtCsgTXWXfwjzne_17intervals_icu_mcp7dynamic8dispatch5testss_37test_parse_response_body_invalid_utf80B9_
FNDA:1,_RNCNvNtNtNtCsgTXWXfwjzne_17intervals_icu_mcp7dynamic8dispatch5testss_37test_parse_response_body_invalid_utf8s_0B9_
FNDA:0,_RNCNCNvNtNtCsgTXWXfwjzne_17intervals_icu_mcp7dynamic8dispatch18dispatch_operation00B9_
FNDA:0,_RNCNCNvNtNtCsgTXWXfwjzne_17intervals_icu_mcp7dynamic8dispatch18dispatch_operation0s0_0B9_
FNDA:0,_RNCNCNvNtNtCsgTXWXfwjzne_17intervals_icu_mcp7dynamic8dispatch18dispatch_operation0s1_0B9_
FNDA:0,_RNCNCNvNtNtCsgTXWXfwjzne_17intervals_icu_mcp7dynamic8dispatch18dispatch_operation0s2_0B9_
FNDA:0,_RNCNCNvNtNtCsgTXWXfwjzne_17intervals_icu_mcp7dynamic8dispatch18dispatch_operation0s3_0B9_
FNDA:0,_RNCNCNvNtNtCsgTXWXfwjzne_17intervals_icu_mcp7dynamic8dispatch18dispatch_operation0s_0B9_
FNDA:0,_RNCNCNvNtNtCsgTXWXfwjzne_17intervals_icu_mcp7dynamic8dispatch21resolve_path_argument00B9_
FNDA:0,_RNCNvNtNtCsgTXWXfwjzne_17intervals_icu_mcp7dynamic8dispatch18dispatch_operation0B7_
FNDA:2,_RNCNvNtNtCsgTXWXfwjzne_17intervals_icu_mcp7dynamic8dispatch21resolve_path_argument0B7_
FNDA:1,_RNCNvNtNtCsgTXWXfwjzne_17intervals_icu_mcp7dynamic8dispatch21resolve_path_arguments_0B7_
FNF:49
FNH:40
DA:9,0
DA:10,0
DA:11,0
DA:12,0
DA:13,0
DA:14,0
DA:15,0
DA:16,0
DA:17,0
DA:18,0
DA:19,0
DA:20,0
DA:21,0
DA:22,0
DA:24,0
DA:26,0
DA:28,0
DA:29,0
DA:31,0
DA:32,0
DA:33,0
DA:34,0
DA:36,0
DA:37,0
DA:38,0
DA:39,0
DA:41,0
DA:42,0
DA:44,0
DA:48,0
DA:50,0
DA:51,0
DA:52,0
DA:53,0
DA:54,0
DA:56,0
DA:57,0
DA:58,0
DA:59,0
DA:60,0
DA:61,0
DA:62,0
DA:64,0
DA:65,0
DA:66,0
DA:67,0
DA:69,0
DA:71,0
DA:72,0
DA:73,0
DA:74,0
DA:75,0
DA:76,0
DA:77,0
DA:78,0
DA:79,0
DA:80,0
DA:82,0
DA:84,0
DA:85,0
DA:86,0
DA:87,0
DA:88,0
DA:89,0
DA:90,0
DA:91,0
DA:92,0
DA:93,0
DA:94,0
DA:95,0
DA:96,0
DA:97,0
DA:99,0
DA:100,0
DA:102,0
DA:103,0
DA:105,0
DA:109,0
DA:110,0
DA:112,0
DA:115,0
DA:118,0
DA:121,0
DA:122,0
DA:123,0
DA:125,0
DA:126,0
DA:127,0
DA:128,0
DA:131,0
DA:132,0
DA:134,0
DA:136,0
DA:138,10
DA:139,10
DA:140,3
DA:141,2
DA:142,2
DA:143,3
DA:145,10
DA:147,2
DA:148,2
DA:149,2
DA:150,2
DA:151,2
DA:152,2
DA:153,2
DA:154,1
DA:156,1
DA:158,2
DA:159,2
DA:160,2
DA:161,1
DA:162,1
DA:164,0
DA:166,1
DA:167,2
DA:169,1
DA:170,1
DA:171,1
DA:172,1
DA:173,1
DA:175,3
DA:176,3
DA:177,0
DA:178,3
DA:180,3
DA:181,3
DA:182,2
DA:183,2
DA:184,2
DA:185,2
DA:186,2
DA:187,2
DA:188,0
DA:191,1
DA:192,1
DA:194,12
DA:195,12
DA:196,3
DA:197,3
DA:198,3
DA:199,3
DA:201,12
DA:203,11
DA:204,11
DA:205,1
DA:206,10
DA:208,10
DA:209,7
DA:210,3
DA:212,3
DA:213,2
DA:214,1
DA:215,1
DA:216,1
DA:217,1
DA:218,1
DA:221,11
DA:233,1
DA:234,1
DA:235,1
DA:236,1
DA:237,1
DA:240,1
DA:241,1
DA:242,1
DA:243,1
DA:245,1
DA:246,1
DA:247,1
DA:248,1
DA:251,1
DA:252,1
DA:253,1
DA:254,1
DA:256,1
DA:257,1
DA:258,1
DA:259,1
DA:262,1
DA:263,1
DA:264,1
DA:265,1
DA:266,1
DA:269,1
DA:270,1
DA:271,1
DA:272,1
DA:273,1
DA:276,1
DA:277,1
DA:278,1
DA:279,1
DA:280,1
DA:287,1
DA:288,1
DA:289,1
DA:290,1
DA:291,1
DA:294,1
DA:295,1
DA:296,1
DA:297,1
DA:299,1
DA:300,1
DA:301,1
DA:302,1
DA:305,1
DA:306,1
DA:307,1
DA:308,1
DA:310,1
DA:311,1
DA:312,1
DA:313,1
DA:316,1
DA:317,1
DA:318,1
DA:319,1
DA:320,1
DA:323,1
DA:324,1
DA:325,1
DA:326,1
DA:327,1
DA:334,1
DA:335,1
DA:336,1
DA:337,1
DA:340,1
DA:341,1
DA:342,1
DA:343,1
DA:344,1
DA:347,1
DA:348,1
DA:349,1
DA:350,1
DA:351,1
DA:352,1
DA:355,1
DA:356,1
DA:357,1
DA:358,1
DA:359,1
DA:362,1
DA:364,1
DA:365,1
DA:367,1
DA:368,1
DA:369,1
DA:370,1
DA:373,1
DA:374,1
DA:375,1
DA:376,1
DA:377,1
DA:380,1
DA:381,1
DA:382,1
DA:383,1
DA:384,1
DA:385,1
DA:386,1
DA:388,1
DA:391,1
DA:392,1
DA:393,1
DA:394,1
DA:395,1
DA:398,1
DA:399,1
DA:400,1
DA:401,1
DA:402,1
DA:405,1
DA:406,1
DA:407,1
DA:408,1
DA:409,1
DA:416,1
DA:418,1
DA:419,1
DA:421,1
DA:422,1
DA:424,1
DA:425,1
DA:426,1
DA:429,1
DA:430,1
DA:431,1
DA:432,1
DA:434,1
DA:435,1
DA:436,1
DA:439,1
DA:440,1
DA:441,1
DA:443,1
DA:445,1
DA:446,1
DA:447,1
DA:448,1
DA:449,1
DA:451,1
DA:452,1
DA:453,1
DA:456,1
DA:457,1
DA:459,1
DA:460,1
DA:461,1
DA:462,1
DA:463,1
DA:465,1
DA:466,1
DA:467,1
DA:470,1
DA:471,1
DA:472,1
DA:473,1
DA:474,1
DA:475,1
DA:477,1
DA:479,1
DA:480,1
DA:481,1
DA:482,1
DA:483,1
DA:484,1
DA:485,1
DA:486,1
DA:487,1
DA:488,1
DA:489,1
DA:490,1
DA:491,1
DA:492,1
DA:493,1
DA:494,1
DA:497,1
DA:498,1
DA:500,1
DA:501,1
DA:502,1
DA:503,1
DA:504,1
DA:507,1
BRF:0
BRH:0
LF:369
LH:262
end_of_record
SF:/Users/solovey/Documents/dev/rusty_intervals_mcp/crates/intervals_icu_mcp/src/dynamic/parser.rs
FN:1248,_RNCNCNvNtNtNtCsgTXWXfwjzne_17intervals_icu_mcp7dynamic6parser5testss_36test_live_api_has_expected_endpoints00Bb_
FN:1257,_RNCNCNvNtNtNtCsgTXWXfwjzne_17intervals_icu_mcp7dynamic6parser5testss_36test_live_api_has_expected_endpoints0s0_0Bb_
FN:1263,_RNCNCNvNtNtNtCsgTXWXfwjzne_17intervals_icu_mcp7dynamic6parser5testss_36test_live_api_has_expected_endpoints0s1_0Bb_
FN:1251,_RNCNCNvNtNtNtCsgTXWXfwjzne_17intervals_icu_mcp7dynamic6parser5testss_36test_live_api_has_expected_endpoints0s_0Bb_
FN:997,_RNCNvNtNtNtCsgTXWXfwjzne_17intervals_icu_mcp7dynamic6parser5testss_28test_build_output_schema_2000B9_
FN:976,_RNCNvNtNtNtCsgTXWXfwjzne_17intervals_icu_mcp7dynamic6parser5testss_28test_parameter_schema_custom0B9_
FN:966,_RNCNvNtNtNtCsgTXWXfwjzne_17intervals_icu_mcp7dynamic6parser5testss_29test_parameter_schema_default0B9_
FN:1199,_RNCNvNtNtNtCsgTXWXfwjzne_17intervals_icu_mcp7dynamic6parser5testss_32test_live_api_tool_schemas_valid0B9_
FN:1165,_RNCNvNtNtNtCsgTXWXfwjzne_17intervals_icu_mcp7dynamic6parser5testss_34test_parse_live_intervals_api_spec0B9_
FN:1232,_RNCNvNtNtNtCsgTXWXfwjzne_17intervals_icu_mcp7dynamic6parser5testss_36test_live_api_has_expected_endpoints0B9_
FN:1064,_RNCNvNtNtNtCsgTXWXfwjzne_17intervals_icu_mcp7dynamic6parser5testss_37test_build_output_schema_ref_handling0B9_
FN:805,_RNCNvNtNtNtCsgTXWXfwjzne_17intervals_icu_mcp7dynamic6parser5testss_39test_parse_adds_response_control_params0B9_
FN:1121,_RNCNvNtNtNtCsgTXWXfwjzne_17intervals_icu_mcp7dynamic6parser5testss_62test_preferred_json_media_type_accepts_json_like_content_types0B9_
FN:572,_RNvNtNtNtCsgTXWXfwjzne_17intervals_icu_mcp7dynamic6parser5testss_20test_parse_with_tags
FN:447,_RNvNtNtNtCsgTXWXfwjzne_17intervals_icu_mcp7dynamic6parser5testss_21test_parse_empty_spec
FN:472,_RNvNtNtNtCsgTXWXfwjzne_17intervals_icu_mcp7dynamic6parser5testss_22test_parse_simple_path
FN:610,_RNvNtNtNtCsgTXWXfwjzne_17intervals_icu_mcp7dynamic6parser5testss_23test_parse_exclude_tags
FN:460,_RNvNtNtNtCsgTXWXfwjzne_17intervals_icu_mcp7dynamic6parser5testss_24test_parse_spec_no_paths
FN:938,_RNvNtNtNtCsgTXWXfwjzne_17intervals_icu_mcp7dynamic6parser5testss_25test_param_key_extraction
FN:645,_RNvNtNtNtCsgTXWXfwjzne_17intervals_icu_mcp7dynamic6parser5testss_26test_parse_skips_multipart
FN:841,_RNvNtNtNtCsgTXWXfwjzne_17intervals_icu_mcp7dynamic6parser5testss_27test_extract_operation_tags
FN:980,_RNvNtNtNtCsgTXWXfwjzne_17intervals_icu_mcp7dynamic6parser5testss_28test_build_output_schema_200
FN:1001,_RNvNtNtNtCsgTXWXfwjzne_17intervals_icu_mcp7dynamic6parser5testss_28test_build_output_schema_201
FN:817,_RNvNtNtNtCsgTXWXfwjzne_17intervals_icu_mcp7dynamic6parser5testss_28test_generate_operation_name
FN:970,_RNvNtNtNtCsgTXWXfwjzne_17intervals_icu_mcp7dynamic6parser5testss_28test_parameter_schema_custom
FN:744,_RNvNtNtNtCsgTXWXfwjzne_17intervals_icu_mcp7dynamic6parser5testss_28test_parse_path_level_params
FN:952,_RNvNtNtNtCsgTXWXfwjzne_17intervals_icu_mcp7dynamic6parser5testss_29test_param_key_missing_fields
FN:963,_RNvNtNtNtCsgTXWXfwjzne_17intervals_icu_mcp7dynamic6parser5testss_29test_parameter_schema_default
FN:499,_RNvNtNtNtCsgTXWXfwjzne_17intervals_icu_mcp7dynamic6parser5testss_30test_parse_path_with_parameter
FN:1199,_RNvNtNtNtCsgTXWXfwjzne_17intervals_icu_mcp7dynamic6parser5testss_32test_live_api_tool_schemas_valid
FN:697,_RNvNtNtNtCsgTXWXfwjzne_17intervals_icu_mcp7dynamic6parser5testss_32test_parse_generates_description
FN:854,_RNvNtNtNtCsgTXWXfwjzne_17intervals_icu_mcp7dynamic6parser5testss_33test_extract_operation_tags_empty
FN:672,_RNvNtNtNtCsgTXWXfwjzne_17intervals_icu_mcp7dynamic6parser5testss_33test_parse_generates_operation_id
FN:1165,_RNvNtNtNtCsgTXWXfwjzne_17intervals_icu_mcp7dynamic6parser5testss_34test_parse_live_intervals_api_spec
FN:903,_RNvNtNtNtCsgTXWXfwjzne_17intervals_icu_mcp7dynamic6parser5testss_35test_is_auto_injected_athlete_param
FN:1232,_RNvNtNtNtCsgTXWXfwjzne_17intervals_icu_mcp7dynamic6parser5testss_36test_live_api_has_expected_endpoints
FN:1128,_RNvNtNtNtCsgTXWXfwjzne_17intervals_icu_mcp7dynamic6parser5testss_36test_method_to_annotations_read_only
FN:883,_RNvNtNtNtCsgTXWXfwjzne_17intervals_icu_mcp7dynamic6parser5testss_36test_should_filter_operation_exclude
FN:863,_RNvNtNtNtCsgTXWXfwjzne_17intervals_icu_mcp7dynamic6parser5testss_36test_should_filter_operation_include
FN:1035,_RNvNtNtNtCsgTXWXfwjzne_17intervals_icu_mcp7dynamic6parser5testss_37test_build_output_schema_no_responses
FN:1043,_RNvNtNtNtCsgTXWXfwjzne_17intervals_icu_mcp7dynamic6parser5testss_37test_build_output_schema_ref_handling
FN:1145,_RNvNtNtNtCsgTXWXfwjzne_17intervals_icu_mcp7dynamic6parser5testss_37test_method_to_annotations_idempotent
FN:530,_RNvNtNtNtCsgTXWXfwjzne_17intervals_icu_mcp7dynamic6parser5testss_37test_parse_multiple_methods_same_path
FN:1138,_RNvNtNtNtCsgTXWXfwjzne_17intervals_icu_mcp7dynamic6parser5testss_38test_method_to_annotations_destructive
FN:1020,_RNvNtNtNtCsgTXWXfwjzne_17intervals_icu_mcp7dynamic6parser5testss_39test_build_output_schema_204_no_content
FN:779,_RNvNtNtNtCsgTXWXfwjzne_17intervals_icu_mcp7dynamic6parser5testss_39test_parse_adds_response_control_params
FN:833,_RNvNtNtNtCsgTXWXfwjzne_17intervals_icu_mcp7dynamic6parser5testss_40test_generate_human_readable_description
FN:720,_RNvNtNtNtCsgTXWXfwjzne_17intervals_icu_mcp7dynamic6parser5testss_40test_parse_uses_summary_over_description
FN:1103,_RNvNtNtNtCsgTXWXfwjzne_17intervals_icu_mcp7dynamic6parser5testss_62test_preferred_json_media_type_accepts_json_like_content_types
FN:1069,_RNvNtNtNtCsgTXWXfwjzne_17intervals_icu_mcp7dynamic6parser5testss_69test_preferred_success_response_prioritizes_200_then_201_then_any_2xx
FN:146,_RNCNCNvNtNtCsgTXWXfwjzne_17intervals_icu_mcp7dynamic6parser18contains_multiparts_00B9_
FN:402,_RNCNCNvNtNtCsgTXWXfwjzne_17intervals_icu_mcp7dynamic6parser25preferred_json_media_type00B9_
FN:393,_RNCNCNvNtNtCsgTXWXfwjzne_17intervals_icu_mcp7dynamic6parser26preferred_success_responses0_00B9_
FN:247,_RNCNvNtNtCsgTXWXfwjzne_17intervals_icu_mcp7dynamic6parser16parameter_schema0B7_
FN:265,_RNCNvNtNtCsgTXWXfwjzne_17intervals_icu_mcp7dynamic6parser18add_body_parameter0B7_
FN:144,_RNCNvNtNtCsgTXWXfwjzne_17intervals_icu_mcp7dynamic6parser18contains_multipart0B7_
FN:146,_RNCNvNtNtCsgTXWXfwjzne_17intervals_icu_mcp7dynamic6parser18contains_multiparts_0B7_
FN:47,_RNCNvNtNtCsgTXWXfwjzne_17intervals_icu_mcp7dynamic6parser18parse_openapi_spec0B7_
FN:63,_RNCNvNtNtCsgTXWXfwjzne_17intervals_icu_mcp7dynamic6parser18parse_openapi_specs0_0B7_
FN:70,_RNCNvNtNtCsgTXWXfwjzne_17intervals_icu_mcp7dynamic6parser18parse_openapi_specs1_0B7_
FN:72,_RNCNvNtNtCsgTXWXfwjzne_17intervals_icu_mcp7dynamic6parser18parse_openapi_specs2_0B7_
FN:58,_RNCNvNtNtCsgTXWXfwjzne_17intervals_icu_mcp7dynamic6parser18parse_openapi_specs_0B7_
FN:428,_RNCNvNtNtCsgTXWXfwjzne_17intervals_icu_mcp7dynamic6parser19build_output_schema0B7_
FN:432,_RNCNvNtNtCsgTXWXfwjzne_17intervals_icu_mcp7dynamic6parser19build_output_schemas_0B7_
FN:119,_RNCNvNtNtCsgTXWXfwjzne_17intervals_icu_mcp7dynamic6parser22extract_operation_tags0B7_
FN:360,_RNCNvNtNtCsgTXWXfwjzne_17intervals_icu_mcp7dynamic6parser23generate_operation_name0B7_
FN:134,_RNCNvNtNtCsgTXWXfwjzne_17intervals_icu_mcp7dynamic6parser23should_filter_operation0B7_
FN:137,_RNCNvNtNtCsgTXWXfwjzne_17intervals_icu_mcp7dynamic6parser23should_filter_operations_0B7_
FN:399,_RNCNvNtNtCsgTXWXfwjzne_17intervals_icu_mcp7dynamic6parser25preferred_json_media_type0B7_
FN:388,_RNCNvNtNtCsgTXWXfwjzne_17intervals_icu_mcp7dynamic6parser26preferred_success_response0B7_
FN:390,_RNCNvNtNtCsgTXWXfwjzne_17intervals_icu_mcp7dynamic6parser26preferred_success_responses0_0B7_
FN:389,_RNCNvNtNtCsgTXWXfwjzne_17intervals_icu_mcp7dynamic6parser26preferred_success_responses_0B7_
FN:298,_RNvNtNtCsgTXWXfwjzne_17intervals_icu_mcp7dynamic6parser10build_tool
FN:243,_RNvNtNtCsgTXWXfwjzne_17intervals_icu_mcp7dynamic6parser16parameter_schema
FN:250,_RNvNtNtCsgTXWXfwjzne_17intervals_icu_mcp7dynamic6parser18add_body_parameter
FN:142,_RNvNtNtCsgTXWXfwjzne_17intervals_icu_mcp7dynamic6parser18contains_multipart
FN:149,_RNvNtNtCsgTXWXfwjzne_17intervals_icu_mcp7dynamic6parser18extract_parameters
FN:9,_RNvNtNtCsgTXWXfwjzne_17intervals_icu_mcp7dynamic6parser18parse_openapi_spec
FN:423,_RNvNtNtCsgTXWXfwjzne_17intervals_icu_mcp7dynamic6parser19build_output_schema
FN:342,_RNvNtNtCsgTXWXfwjzne_17intervals_icu_mcp7dynamic6parser21method_to_annotations
FN:116,_RNvNtNtCsgTXWXfwjzne_17intervals_icu_mcp7dynamic6parser22extract_operation_tags
FN:355,_RNvNtNtCsgTXWXfwjzne_17intervals_icu_mcp7dynamic6parser23generate_operation_name
FN:407,_RNvNtNtCsgTXWXfwjzne_17intervals_icu_mcp7dynamic6parser23normalize_output_schema
FN:128,_RNvNtNtCsgTXWXfwjzne_17intervals_icu_mcp7dynamic6parser23should_filter_operation
FN:398,_RNvNtNtCsgTXWXfwjzne_17intervals_icu_mcp7dynamic6parser25preferred_json_media_type
FN:385,_RNvNtNtCsgTXWXfwjzne_17intervals_icu_mcp7dynamic6parser26preferred_success_response
FN:234,_RNvNtNtCsgTXWXfwjzne_17intervals_icu_mcp7dynamic6parser30is_auto_injected_athlete_param
FN:273,_RNvNtNtCsgTXWXfwjzne_17intervals_icu_mcp7dynamic6parser31add_response_control_properties
FN:371,_RNvNtNtCsgTXWXfwjzne_17intervals_icu_mcp7dynamic6parser35generate_human_readable_description
FN:227,_RNvNtNtCsgTXWXfwjzne_17intervals_icu_mcp7dynamic6parser9param_key
FNDA:0,_RNCNCNvNtNtNtCsgTXWXfwjzne_17intervals_icu_mcp7dynamic6parser5testss_36test_live_api_has_expected_endpoints00Bb_
FNDA:0,_RNCNCNvNtNtNtCsgTXWXfwjzne_17intervals_icu_mcp7dynamic6parser5testss_36test_live_api_has_expected_endpoints0s0_0Bb_
FNDA:0,_RNCNCNvNtNtNtCsgTXWXfwjzne_17intervals_icu_mcp7dynamic6parser5testss_36test_live_api_has_expected_endpoints0s1_0Bb_
FNDA:0,_RNCNCNvNtNtNtCsgTXWXfwjzne_17intervals_icu_mcp7dynamic6parser5testss_36test_live_api_has_expected_endpoints0s_0Bb_
FNDA:1,_RNCNvNtNtNtCsgTXWXfwjzne_17intervals_icu_mcp7dynamic6parser5testss_28test_build_output_schema_2000B9_
FNDA:1,_RNCNvNtNtNtCsgTXWXfwjzne_17intervals_icu_mcp7dynamic6parser5testss_28test_parameter_schema_custom0B9_
FNDA:1,_RNCNvNtNtNtCsgTXWXfwjzne_17intervals_icu_mcp7dynamic6parser5testss_29test_parameter_schema_default0B9_
FNDA:0,_RNCNvNtNtNtCsgTXWXfwjzne_17intervals_icu_mcp7dynamic6parser5testss_32test_live_api_tool_schemas_valid0B9_
FNDA:0,_RNCNvNtNtNtCsgTXWXfwjzne_17intervals_icu_mcp7dynamic6parser5testss_34test_parse_live_intervals_api_spec0B9_
FNDA:0,_RNCNvNtNtNtCsgTXWXfwjzne_17intervals_icu_mcp7dynamic6parser5testss_36test_live_api_has_expected_endpoints0B9_
FNDA:1,_RNCNvNtNtNtCsgTXWXfwjzne_17intervals_icu_mcp7dynamic6parser5testss_37test_build_output_schema_ref_handling0B9_
FNDA:1,_RNCNvNtNtNtCsgTXWXfwjzne_17intervals_icu_mcp7dynamic6parser5testss_39test_parse_adds_response_control_params0B9_
FNDA:1,_RNCNvNtNtNtCsgTXWXfwjzne_17intervals_icu_mcp7dynamic6parser5testss_62test_preferred_json_media_type_accepts_json_like_content_types0B9_
FNDA:1,_RNvNtNtNtCsgTXWXfwjzne_17intervals_icu_mcp7dynamic6parser5testss_20test_parse_with_tags
FNDA:1,_RNvNtNtNtCsgTXWXfwjzne_17intervals_icu_mcp7dynamic6parser5testss_21test_parse_empty_spec
FNDA:1,_RNvNtNtNtCsgTXWXfwjzne_17intervals_icu_mcp7dynamic6parser5testss_22test_parse_simple_path
FNDA:1,_RNvNtNtNtCsgTXWXfwjzne_17intervals_icu_mcp7dynamic6parser5testss_23test_parse_exclude_tags
FNDA:1,_RNvNtNtNtCsgTXWXfwjzne_17intervals_icu_mcp7dynamic6parser5testss_24test_parse_spec_no_paths
FNDA:1,_RNvNtNtNtCsgTXWXfwjzne_17intervals_icu_mcp7dynamic6parser5testss_25test_param_key_extraction
FNDA:1,_RNvNtNtNtCsgTXWXfwjzne_17intervals_icu_mcp7dynamic6parser5testss_26test_parse_skips_multipart
FNDA:1,_RNvNtNtNtCsgTXWXfwjzne_17intervals_icu_mcp7dynamic6parser5testss_27test_extract_operation_tags
FNDA:1,_RNvNtNtNtCsgTXWXfwjzne_17intervals_icu_mcp7dynamic6parser5testss_28test_build_output_schema_200
FNDA:1,_RNvNtNtNtCsgTXWXfwjzne_17intervals_icu_mcp7dynamic6parser5testss_28test_build_output_schema_201
FNDA:1,_RNvNtNtNtCsgTXWXfwjzne_17intervals_icu_mcp7dynamic6parser5testss_28test_generate_operation_name
FNDA:1,_RNvNtNtNtCsgTXWXfwjzne_17intervals_icu_mcp7dynamic6parser5testss_28test_parameter_schema_custom
FNDA:1,_RNvNtNtNtCsgTXWXfwjzne_17intervals_icu_mcp7dynamic6parser5testss_28test_parse_path_level_params
FNDA:1,_RNvNtNtNtCsgTXWXfwjzne_17intervals_icu_mcp7dynamic6parser5testss_29test_param_key_missing_fields
FNDA:1,_RNvNtNtNtCsgTXWXfwjzne_17intervals_icu_mcp7dynamic6parser5testss_29test_parameter_schema_default
FNDA:1,_RNvNtNtNtCsgTXWXfwjzne_17intervals_icu_mcp7dynamic6parser5testss_30test_parse_path_with_parameter
FNDA:0,_RNvNtNtNtCsgTXWXfwjzne_17intervals_icu_mcp7dynamic6parser5testss_32test_live_api_tool_schemas_valid
FNDA:1,_RNvNtNtNtCsgTXWXfwjzne_17intervals_icu_mcp7dynamic6parser5testss_32test_parse_generates_description
FNDA:1,_RNvNtNtNtCsgTXWXfwjzne_17intervals_icu_mcp7dynamic6parser5testss_33test_extract_operation_tags_empty
FNDA:1,_RNvNtNtNtCsgTXWXfwjzne_17intervals_icu_mcp7dynamic6parser5testss_33test_parse_generates_operation_id
FNDA:0,_RNvNtNtNtCsgTXWXfwjzne_17intervals_icu_mcp7dynamic6parser5testss_34test_parse_live_intervals_api_spec
FNDA:1,_RNvNtNtNtCsgTXWXfwjzne_17intervals_icu_mcp7dynamic6parser5testss_35test_is_auto_injected_athlete_param
FNDA:0,_RNvNtNtNtCsgTXWXfwjzne_17intervals_icu_mcp7dynamic6parser5testss_36test_live_api_has_expected_endpoints
FNDA:1,_RNvNtNtNtCsgTXWXfwjzne_17intervals_icu_mcp7dynamic6parser5testss_36test_method_to_annotations_read_only
FNDA:1,_RNvNtNtNtCsgTXWXfwjzne_17intervals_icu_mcp7dynamic6parser5testss_36test_should_filter_operation_exclude
FNDA:1,_RNvNtNtNtCsgTXWXfwjzne_17intervals_icu_mcp7dynamic6parser5testss_36test_should_filter_operation_include
FNDA:1,_RNvNtNtNtCsgTXWXfwjzne_17intervals_icu_mcp7dynamic6parser5testss_37test_build_output_schema_no_responses
FNDA:1,_RNvNtNtNtCsgTXWXfwjzne_17intervals_icu_mcp7dynamic6parser5testss_37test_build_output_schema_ref_handling
FNDA:1,_RNvNtNtNtCsgTXWXfwjzne_17intervals_icu_mcp7dynamic6parser5testss_37test_method_to_annotations_idempotent
FNDA:1,_RNvNtNtNtCsgTXWXfwjzne_17intervals_icu_mcp7dynamic6parser5testss_37test_parse_multiple_methods_same_path
FNDA:1,_RNvNtNtNtCsgTXWXfwjzne_17intervals_icu_mcp7dynamic6parser5testss_38test_method_to_annotations_destructive
FNDA:1,_RNvNtNtNtCsgTXWXfwjzne_17intervals_icu_mcp7dynamic6parser5testss_39test_build_output_schema_204_no_content
FNDA:1,_RNvNtNtNtCsgTXWXfwjzne_17intervals_icu_mcp7dynamic6parser5testss_39test_parse_adds_response_control_params
FNDA:1,_RNvNtNtNtCsgTXWXfwjzne_17intervals_icu_mcp7dynamic6parser5testss_40test_generate_human_readable_description
FNDA:1,_RNvNtNtNtCsgTXWXfwjzne_17intervals_icu_mcp7dynamic6parser5testss_40test_parse_uses_summary_over_description
FNDA:1,_RNvNtNtNtCsgTXWXfwjzne_17intervals_icu_mcp7dynamic6parser5testss_62test_preferred_json_media_type_accepts_json_like_content_types
FNDA:1,_RNvNtNtNtCsgTXWXfwjzne_17intervals_icu_mcp7dynamic6parser5testss_69test_preferred_success_response_prioritizes_200_then_201_then_any_2xx
FNDA:2,_RNCNCNvNtNtCsgTXWXfwjzne_17intervals_icu_mcp7dynamic6parser18contains_multiparts_00B9_
FNDA:1,_RNCNCNvNtNtCsgTXWXfwjzne_17intervals_icu_mcp7dynamic6parser25preferred_json_media_type00B9_
FNDA:0,_RNCNCNvNtNtCsgTXWXfwjzne_17intervals_icu_mcp7dynamic6parser26preferred_success_responses0_00B9_
FNDA:1,_RNCNvNtNtCsgTXWXfwjzne_17intervals_icu_mcp7dynamic6parser16parameter_schema0B7_
FNDA:1,_RNCNvNtNtCsgTXWXfwjzne_17intervals_icu_mcp7dynamic6parser18add_body_parameter0B7_
FNDA:2,_RNCNvNtNtCsgTXWXfwjzne_17intervals_icu_mcp7dynamic6parser18contains_multipart0B7_
FNDA:2,_RNCNvNtNtCsgTXWXfwjzne_17intervals_icu_mcp7dynamic6parser18contains_multiparts_0B7_
FNDA:1,_RNCNvNtNtCsgTXWXfwjzne_17intervals_icu_mcp7dynamic6parser18parse_openapi_spec0B7_
FNDA:1,_RNCNvNtNtCsgTXWXfwjzne_17intervals_icu_mcp7dynamic6parser18parse_openapi_specs0_0B7_
FNDA:1,_RNCNvNtNtCsgTXWXfwjzne_17intervals_icu_mcp7dynamic6parser18parse_openapi_specs1_0B7_
FNDA:1,_RNCNvNtNtCsgTXWXfwjzne_17intervals_icu_mcp7dynamic6parser18parse_openapi_specs2_0B7_
FNDA:1,_RNCNvNtNtCsgTXWXfwjzne_17intervals_icu_mcp7dynamic6parser18parse_openapi_specs_0B7_
FNDA:5,_RNCNvNtNtCsgTXWXfwjzne_17intervals_icu_mcp7dynamic6parser19build_output_schema0B7_
FNDA:3,_RNCNvNtNtCsgTXWXfwjzne_17intervals_icu_mcp7dynamic6parser19build_output_schemas_0B7_
FNDA:5,_RNCNvNtNtCsgTXWXfwjzne_17intervals_icu_mcp7dynamic6parser22extract_operation_tags0B7_
FNDA:6,_RNCNvNtNtCsgTXWXfwjzne_17intervals_icu_mcp7dynamic6parser23generate_operation_name0B7_
FNDA:4,_RNCNvNtNtCsgTXWXfwjzne_17intervals_icu_mcp7dynamic6parser23should_filter_operation0B7_
FNDA:4,_RNCNvNtNtCsgTXWXfwjzne_17intervals_icu_mcp7dynamic6parser23should_filter_operations_0B7_
FNDA:1,_RNCNvNtNtCsgTXWXfwjzne_17intervals_icu_mcp7dynamic6parser25preferred_json_media_type0B7_
FNDA:4,_RNCNvNtNtCsgTXWXfwjzne_17intervals_icu_mcp7dynamic6parser26preferred_success_response0B7_
FNDA:0,_RNCNvNtNtCsgTXWXfwjzne_17intervals_icu_mcp7dynamic6parser26preferred_success_responses0_0B7_
FNDA:2,_RNCNvNtNtCsgTXWXfwjzne_17intervals_icu_mcp7dynamic6parser26preferred_success_responses_0B7_
FNDA:13,_RNvNtNtCsgTXWXfwjzne_17intervals_icu_mcp7dynamic6parser10build_tool
FNDA:5,_RNvNtNtCsgTXWXfwjzne_17intervals_icu_mcp7dynamic6parser16parameter_schema
FNDA:1,_RNvNtNtCsgTXWXfwjzne_17intervals_icu_mcp7dynamic6parser18add_body_parameter
FNDA:14,_RNvNtNtCsgTXWXfwjzne_17intervals_icu_mcp7dynamic6parser18contains_multipart
FNDA:13,_RNvNtNtCsgTXWXfwjzne_17intervals_icu_mcp7dynamic6parser18extract_parameters
FNDA:15,_RNvNtNtCsgTXWXfwjzne_17intervals_icu_mcp7dynamic6parser18parse_openapi_spec
FNDA:18,_RNvNtNtCsgTXWXfwjzne_17intervals_icu_mcp7dynamic6parser19build_output_schema
FNDA:19,_RNvNtNtCsgTXWXfwjzne_17intervals_icu_mcp7dynamic6parser21method_to_annotations
FNDA:18,_RNvNtNtCsgTXWXfwjzne_17intervals_icu_mcp7dynamic6parser22extract_operation_tags
FNDA:4,_RNvNtNtCsgTXWXfwjzne_17intervals_icu_mcp7dynamic6parser23generate_operation_name
FNDA:3,_RNvNtNtCsgTXWXfwjzne_17intervals_icu_mcp7dynamic6parser23normalize_output_schema
FNDA:20,_RNvNtNtCsgTXWXfwjzne_17intervals_icu_mcp7dynamic6parser23should_filter_operation
FNDA:4,_RNvNtNtCsgTXWXfwjzne_17intervals_icu_mcp7dynamic6parser25preferred_json_media_type
FNDA:8,_RNvNtNtCsgTXWXfwjzne_17intervals_icu_mcp7dynamic6parser26preferred_success_response
FNDA:11,_RNvNtNtCsgTXWXfwjzne_17intervals_icu_mcp7dynamic6parser30is_auto_injected_athlete_param
FNDA:13,_RNvNtNtCsgTXWXfwjzne_17intervals_icu_mcp7dynamic6parser31add_response_control_properties
FNDA:5,_RNvNtNtCsgTXWXfwjzne_17intervals_icu_mcp7dynamic6parser35generate_human_readable_description
FNDA:8,_RNvNtNtCsgTXWXfwjzne_17intervals_icu_mcp7dynamic6parser9param_key
FNF:90
FNH:78
DA:9,15
DA:10,15
DA:11,15
DA:12,15
DA:13,15
DA:14,15
DA:15,15
DA:16,1
DA:19,14
DA:20,13
DA:21,0
DA:24,13
DA:25,13
DA:26,13
DA:27,13
DA:28,13
DA:30,91
DA:31,91
DA:32,75
DA:35,16
DA:36,16
DA:37,2
DA:38,14
DA:40,14
DA:41,1
DA:42,13
DA:44,13
DA:45,13
DA:46,13
DA:47,13
DA:49,13
DA:50,13
DA:51,0
DA:54,13
DA:55,13
DA:56,13
DA:57,13
DA:58,13
DA:59,1
DA:60,1
DA:61,1
DA:62,1
DA:63,13
DA:65,13
DA:66,13
DA:68,13
DA:69,13
DA:70,13
DA:71,13
DA:72,13
DA:74,13
DA:75,13
DA:76,1
DA:77,12
DA:79,13
DA:81,13
DA:82,13
DA:85,13
DA:87,13
DA:88,13
DA:89,13
DA:90,13
DA:91,13
DA:92,13
DA:93,13
DA:94,13
DA:95,0
DA:97,13
DA:98,13
DA:99,13
DA:100,13
DA:101,13
DA:102,13
DA:103,13
DA:104,13
DA:105,13
DA:106,13
DA:107,13
DA:108,13
DA:113,14
DA:114,15
DA:116,18
DA:117,18
DA:118,18
DA:119,18
DA:120,5
DA:121,5
DA:122,5
DA:123,5
DA:124,5
DA:125,18
DA:126,18
DA:128,20
DA:129,20
DA:130,20
DA:131,20
DA:132,20
DA:133,20
DA:134,4
DA:135,16
DA:136,16
DA:137,4
DA:138,12
DA:139,12
DA:140,20
DA:142,14
DA:143,14
DA:144,14
DA:145,14
DA:146,14
DA:147,14
DA:149,13
DA:150,13
DA:151,13
DA:152,13
DA:153,13
DA:154,13
DA:155,13
DA:156,1
DA:157,1
DA:158,1
DA:160,13
DA:161,13
DA:162,13
DA:163,13
DA:164,13
DA:166,4
DA:167,4
DA:168,4
DA:171,13
DA:172,13
DA:173,13
DA:175,13
DA:176,5
DA:177,0
DA:179,5
DA:180,0
DA:182,5
DA:183,5
DA:185,5
DA:186,5
DA:187,1
DA:188,0
DA:191,5
DA:192,5
DA:193,5
DA:194,5
DA:195,5
DA:197,5
DA:198,3
DA:199,2
DA:201,2
DA:202,2
DA:203,0
DA:204,0
DA:206,0
DA:207,0
DA:208,0
DA:209,0
DA:210,2
DA:211,2
DA:214,2
DA:215,1
DA:216,1
DA:218,2
DA:219,2
DA:220,1
DA:221,1
DA:224,13
DA:225,13
DA:227,8
DA:228,8
DA:229,8
DA:230,7
DA:231,6
DA:232,8
DA:234,11
DA:235,11
DA:236,11
DA:237,9
DA:238,8
DA:239,6
DA:240,5
DA:241,11
DA:243,5
DA:244,5
DA:245,5
DA:246,5
DA:247,5
DA:248,5
DA:250,1
DA:251,1
DA:252,1
DA:253,1
DA:254,1
DA:255,1
DA:256,1
DA:257,1
DA:258,1
DA:259,1
DA:263,1
DA:264,1
DA:265,1
DA:266,1
DA:267,1
DA:268,1
DA:269,0
DA:270,1
DA:271,1
DA:273,13
DA:274,13
DA:275,13
DA:276,13
DA:277,13
DA:278,13
DA:281,13
DA:282,13
DA:283,13
DA:284,13
DA:285,13
DA:286,13
DA:289,13
DA:290,13
DA:291,13
DA:292,13
DA:293,13
DA:296,13
DA:298,13
DA:299,13
DA:300,13
DA:301,13
DA:302,13
DA:303,13
DA:304,13
DA:305,13
DA:306,13
DA:307,13
DA:308,13
DA:309,13
DA:310,13
DA:311,1
DA:312,12
DA:314,13
DA:315,13
DA:316,13
DA:317,0
DA:318,0
DA:322,13
DA:323,13
DA:324,13
DA:325,0
DA:326,13
DA:328,13
DA:329,13
DA:332,13
DA:333,0
DA:334,0
DA:335,0
DA:336,0
DA:337,13
DA:339,13
DA:340,13
DA:342,19
DA:343,19
DA:344,19
DA:345,6
DA:346,5
DA:347,4
DA:349,19
DA:350,19
DA:351,19
DA:352,19
DA:353,19
DA:355,4
DA:356,4
DA:357,4
DA:358,4
DA:359,4
DA:360,6
DA:361,4
DA:363,4
DA:364,4
DA:365,0
DA:367,4
DA:369,4
DA:371,5
DA:372,5
DA:373,5
DA:374,3
DA:375,2
DA:376,1
DA:377,1
DA:378,0
DA:381,5
DA:382,5
DA:383,5
DA:385,8
DA:386,8
DA:387,8
DA:388,8
DA:389,8
DA:390,8
DA:391,0
DA:392,0
DA:393,0
DA:394,0
DA:395,0
DA:396,8
DA:398,4
DA:399,4
DA:400,1
DA:401,1
DA:402,1
DA:403,1
DA:404,1
DA:405,4
DA:407,3
DA:408,3
DA:409,1
DA:410,1
DA:411,1
DA:412,1
DA:413,1
DA:415,1
DA:417,2
DA:419,3
DA:423,18
DA:424,18
DA:425,18
DA:426,18
DA:427,18
DA:428,18
DA:429,18
DA:430,18
DA:431,18
DA:432,18
DA:433,18
DA:434,18
DA:435,18
DA:447,1
DA:448,1
DA:449,1
DA:450,1
DA:451,1
DA:454,1
DA:455,1
DA:456,1
DA:457,1
DA:460,1
DA:461,1
DA:462,1
DA:463,1
DA:466,1
DA:467,1
DA:468,1
DA:469,1
DA:472,1
DA:473,1
DA:474,1
DA:475,1
DA:476,1
DA:477,1
DA:478,1
DA:479,1
DA:480,1
DA:481,1
DA:487,1
DA:488,1
DA:489,1
DA:490,1
DA:492,1
DA:493,1
DA:494,1
DA:495,1
DA:496,1
DA:499,1
DA:500,1
DA:501,1
DA:502,1
DA:503,1
DA:504,1
DA:505,1
DA:506,1
DA:507,1
DA:508,1
DA:509,1
DA:510,1
DA:511,1
DA:512,1
DA:519,1
DA:520,1
DA:521,1
DA:522,1
DA:524,1
DA:525,1
DA:526,1
DA:527,1
DA:530,1
DA:531,1
DA:532,1
DA:533,1
DA:534,1
DA:535,1
DA:536,1
DA:537,1
DA:538,1
DA:539,1
DA:541,1
DA:542,1
DA:543,1
DA:544,1
DA:545,1
DA:546,1
DA:547,1
DA:548,1
DA:557,1
DA:558,1
DA:559,1
DA:560,1
DA:562,1
DA:563,1
DA:564,1
DA:566,1
DA:567,1
DA:568,1
DA:569,1
DA:572,1
DA:573,1
DA:574,1
DA:575,1
DA:576,1
DA:577,1
DA:578,1
DA:579,1
DA:580,1
DA:581,1
DA:582,1
DA:584,1
DA:585,1
DA:586,1
DA:587,1
DA:588,1
DA:589,1
DA:590,1
DA:598,1
DA:599,1
DA:601,1
DA:602,1
DA:603,1
DA:604,1
DA:605,1
DA:606,1
DA:607,1
DA:610,1
DA:611,1
DA:612,1
DA:613,1
DA:614,1
DA:615,1
DA:616,1
DA:617,1
DA:618,1
DA:619,1
DA:620,1
DA:622,1
DA:623,1
DA:624,1
DA:625,1
DA:626,1
DA:633,1
DA:634,1
DA:636,1
DA:637,1
DA:638,1
DA:639,1
DA:640,1
DA:641,1
DA:642,1
DA:645,1
DA:646,1
DA:647,1
DA:648,1
DA:649,1
DA:650,1
DA:651,1
DA:652,1
DA:653,1
DA:654,1
DA:655,1
DA:656,1
DA:657,1
DA:666,1
DA:667,1
DA:668,1
DA:669,1
DA:672,1
DA:673,1
DA:674,1
DA:675,1
DA:676,1
DA:677,1
DA:678,1
DA:679,1
DA:680,1
DA:686,1
DA:687,1
DA:688,1
DA:689,1
DA:692,1
DA:693,1
DA:694,1
DA:697,1
DA:698,1
DA:699,1
DA:700,1
DA:701,1
DA:702,1
DA:703,1
DA:704,1
DA:705,1
DA:711,1
DA:712,1
DA:713,1
DA:714,1
DA:715,1
DA:716,1
DA:717,1
DA:720,1
DA:721,1
DA:722,1
DA:723,1
DA:724,1
DA:725,1
DA:726,1
DA:727,1
DA:728,1
DA:729,1
DA:730,1
DA:736,1
DA:737,1
DA:738,1
DA:739,1
DA:740,1
DA:741,1
DA:744,1
DA:745,1
DA:746,1
DA:747,1
DA:748,1
DA:749,1
DA:750,1
DA:751,1
DA:752,1
DA:753,1
DA:754,1
DA:756,1
DA:757,1
DA:758,1
DA:759,1
DA:760,1
DA:761,1
DA:762,1
DA:769,1
DA:770,1
DA:771,1
DA:772,1
DA:775,1
DA:776,1
DA:779,1
DA:780,1
DA:781,1
DA:782,1
DA:783,1
DA:784,1
DA:785,1
DA:786,1
DA:787,1
DA:788,1
DA:794,1
DA:795,1
DA:796,1
DA:797,1
DA:800,1
DA:801,1
DA:802,1
DA:803,1
DA:804,1
DA:805,1
DA:806,1
DA:807,1
DA:808,1
DA:809,1
DA:810,1
DA:817,1
DA:818,1
DA:819,1
DA:822,1
DA:823,1
DA:826,1
DA:827,1
DA:830,1
DA:833,1
DA:834,1
DA:835,1
DA:836,1
DA:837,1
DA:838,1
DA:841,1
DA:844,1
DA:845,1
DA:847,1
DA:848,1
DA:849,1
DA:850,1
DA:851,1
DA:854,1
DA:857,1
DA:858,1
DA:859,1
DA:860,1
DA:863,1
DA:864,1
DA:865,1
DA:868,1
DA:869,1
DA:870,1
DA:871,1
DA:872,1
DA:875,1
DA:876,1
DA:877,1
DA:878,1
DA:880,1
DA:883,1
DA:884,1
DA:885,1
DA:888,1
DA:889,1
DA:890,1
DA:891,1
DA:895,1
DA:896,1
DA:897,1
DA:898,1
DA:899,1
DA:900,1
DA:903,1
DA:905,1
DA:906,1
DA:907,1
DA:908,1
DA:912,1
DA:913,1
DA:914,1
DA:915,1
DA:919,1
DA:920,1
DA:921,1
DA:922,1
DA:926,1
DA:927,1
DA:928,1
DA:929,1
DA:930,1
DA:933,1
DA:934,1
DA:935,1
DA:938,1
DA:939,1
DA:940,1
DA:941,1
DA:944,1
DA:945,1
DA:946,1
DA:947,1
DA:948,1
DA:949,1
DA:952,1
DA:954,1
DA:955,1
DA:958,1
DA:959,1
DA:960,1
DA:963,1
DA:964,1
DA:965,1
DA:966,1
DA:967,1
DA:970,1
DA:971,1
DA:972,1
DA:973,1
DA:975,1
DA:976,1
DA:977,1
DA:980,1
DA:983,1
DA:984,1
DA:985,1
DA:986,1
DA:987,1
DA:988,1
DA:989,1
DA:990,1
DA:991,1
DA:992,1
DA:994,1
DA:995,1
DA:996,1
DA:997,1
DA:998,1
DA:1001,1
DA:1004,1
DA:1005,1
DA:1006,1
DA:1007,1
DA:1008,1
DA:1009,1
DA:1010,1
DA:1011,1
DA:1012,1
DA:1013,1
DA:1015,1
DA:1016,1
DA:1017,1
DA:1020,1
DA:1023,1
DA:1024,1
DA:1025,1
DA:1026,1
DA:1027,1
DA:1029,1
DA:1031,1
DA:1032,1
DA:1035,1
DA:1037,1
DA:1038,1
DA:1039,1
DA:1040,1
DA:1043,1
DA:1046,1
DA:1047,1
DA:1048,1
DA:1049,1
DA:1050,1
DA:1051,1
DA:1052,1
DA:1053,1
DA:1055,1
DA:1056,1
DA:1057,1
DA:1058,1
DA:1060,1
DA:1061,1
DA:1062,1
DA:1064,1
DA:1065,1
DA:1066,1
DA:1069,1
DA:1072,1
DA:1073,1
DA:1074,1
DA:1075,1
DA:1077,1
DA:1078,1
DA:1079,1
DA:1083,1
DA:1084,1
DA:1085,1
DA:1086,1
DA:1090,1
DA:1091,1
DA:1092,1
DA:1093,1
DA:1095,1
DA:1096,1
DA:1097,1
DA:1100,1
DA:1103,1
DA:1106,1
DA:1107,1
DA:1108,1
DA:1109,1
DA:1111,1
DA:1112,1
DA:1113,1
DA:1116,1
DA:1117,1
DA:1118,1
DA:1119,1
DA:1120,1
DA:1121,1
DA:1122,1
DA:1125,1
DA:1128,1
DA:1129,1
DA:1130,1
DA:1131,1
DA:1133,1
DA:1134,1
DA:1135,1
DA:1138,1
DA:1139,1
DA:1140,1
DA:1141,1
DA:1142,1
DA:1145,1
DA:1146,1
DA:1147,1
DA:1149,1
DA:1150,1
DA:1152,1
DA:1153,1
DA:1154,1
DA:1165,0
DA:1166,0
DA:1167,0
DA:1168,0
DA:1169,0
DA:1170,0
DA:1171,0
DA:1172,0
DA:1173,0
DA:1174,0
DA:1176,0
DA:1177,0
DA:1179,0
DA:1183,0
DA:1184,0
DA:1186,0
DA:1190,0
DA:1191,0
DA:1192,0
DA:1193,0
DA:1194,0
DA:1195,0
DA:1199,0
DA:1200,0
DA:1201,0
DA:1202,0
DA:1203,0
DA:1204,0
DA:1205,0
DA:1206,0
DA:1207,0
DA:1208,0
DA:1210,0
DA:1211,0
DA:1214,0
DA:1215,0
DA:1216,0
DA:1217,0
DA:1218,0
DA:1219,0
DA:1220,0
DA:1221,0
DA:1222,0
DA:1223,0
DA:1224,0
DA:1225,0
DA:1226,0
DA:1227,0
DA:1228,0
DA:1232,0
DA:1233,0
DA:1234,0
DA:1235,0
DA:1236,0
DA:1237,0
DA:1238,0
DA:1239,0
DA:1240,0
DA:1241,0
DA:1243,0
DA:1244,0
DA:1247,0
DA:1248,0
DA:1251,0
DA:1252,0
DA:1255,0
DA:1256,0
DA:1257,0
DA:1258,0
DA:1261,0
DA:1262,0
DA:1263,0
DA:1264,0
DA:1265,0
BRF:0
BRH:0
LF:933
LH:813
end_of_record
SF:/Users/solovey/Documents/dev/rusty_intervals_mcp/crates/intervals_icu_mcp/src/dynamic/runtime.rs
FN:155,_RNCNvMs0_NtNtCsgTXWXfwjzne_17intervals_icu_mcp7dynamic7runtimeNtB7_14DynamicRuntime16dispatch_openapi0Bb_
FN:151,_RNvMs0_NtNtCsgTXWXfwjzne_17intervals_icu_mcp7dynamic7runtimeNtB5_14DynamicRuntime16dispatch_openapi
FN:70,_RINvMs_NtNtCsgTXWXfwjzne_17intervals_icu_mcp7dynamic7runtimeNtB5_27DynamicRuntimeConfigBuilder10athlete_idReEB9_
FN:80,_RINvMs_NtNtCsgTXWXfwjzne_17intervals_icu_mcp7dynamic7runtimeNtB5_27DynamicRuntimeConfigBuilder11spec_sourceNtNtCsehV1Oe06VSW_5alloc6string6StringEB9_
FN:80,_RINvMs_NtNtCsgTXWXfwjzne_17intervals_icu_mcp7dynamic7runtimeNtB5_27DynamicRuntimeConfigBuilder11spec_sourceReEB9_
FN:75,_RINvMs_NtNtCsgTXWXfwjzne_17intervals_icu_mcp7dynamic7runtimeNtB5_27DynamicRuntimeConfigBuilder7api_keyReEB9_
FN:65,_RINvMs_NtNtCsgTXWXfwjzne_17intervals_icu_mcp7dynamic7runtimeNtB5_27DynamicRuntimeConfigBuilder8base_urlReEB9_
FN:202,_RNCNCNvMs0_NtNtCsgTXWXfwjzne_17intervals_icu_mcp7dynamic7runtimeNtB9_14DynamicRuntime15ensure_registry00Bd_
FN:255,_RNCNCNvMs0_NtNtCsgTXWXfwjzne_17intervals_icu_mcp7dynamic7runtimeNtB9_14DynamicRuntime9load_spec00Bd_
FN:288,_RNCNCNvNtNtCsgTXWXfwjzne_17intervals_icu_mcp7dynamic7runtime21load_spec_from_source00B9_
FN:302,_RNCNCNvNtNtCsgTXWXfwjzne_17intervals_icu_mcp7dynamic7runtime21load_spec_from_source0s0_0B9_
FN:303,_RNCNCNvNtNtCsgTXWXfwjzne_17intervals_icu_mcp7dynamic7runtime21load_spec_from_source0s1_0B9_
FN:296,_RNCNCNvNtNtCsgTXWXfwjzne_17intervals_icu_mcp7dynamic7runtime21load_spec_from_source0s_0B9_
FN:30,_RNCNvMNtNtCsgTXWXfwjzne_17intervals_icu_mcp7dynamic7runtimeNtB4_20DynamicRuntimeConfig8from_env0B8_
FN:36,_RNCNvMNtNtCsgTXWXfwjzne_17intervals_icu_mcp7dynamic7runtimeNtB4_20DynamicRuntimeConfig8from_envs_0B8_
FN:168,_RNCNvMs0_NtNtCsgTXWXfwjzne_17intervals_icu_mcp7dynamic7runtimeNtB7_14DynamicRuntime15ensure_registry0Bb_
FN:234,_RNCNvMs0_NtNtCsgTXWXfwjzne_17intervals_icu_mcp7dynamic7runtimeNtB7_14DynamicRuntime18try_build_registry0Bb_
FN:217,_RNCNvMs0_NtNtCsgTXWXfwjzne_17intervals_icu_mcp7dynamic7runtimeNtB7_14DynamicRuntime22should_attempt_refresh0Bb_
FN:240,_RNCNvMs0_NtNtCsgTXWXfwjzne_17intervals_icu_mcp7dynamic7runtimeNtB7_14DynamicRuntime9load_spec0Bb_
FN:94,_RNCNvMs_NtNtCsgTXWXfwjzne_17intervals_icu_mcp7dynamic7runtimeNtB6_27DynamicRuntimeConfigBuilder5build0Ba_
FN:281,_RNCNvNtNtCsgTXWXfwjzne_17intervals_icu_mcp7dynamic7runtime21load_spec_from_source0B7_
FN:272,_RNCNvNtNtCsgTXWXfwjzne_17intervals_icu_mcp7dynamic7runtime23default_local_spec_path0B7_
FN:49,_RNvMNtNtCsgTXWXfwjzne_17intervals_icu_mcp7dynamic7runtimeNtB2_20DynamicRuntimeConfig7builder
FN:28,_RNvMNtNtCsgTXWXfwjzne_17intervals_icu_mcp7dynamic7runtimeNtB2_20DynamicRuntimeConfig8from_env
FN:141,_RNvMs0_NtNtCsgTXWXfwjzne_17intervals_icu_mcp7dynamic7runtimeNtB5_14DynamicRuntime10athlete_id
FN:168,_RNvMs0_NtNtCsgTXWXfwjzne_17intervals_icu_mcp7dynamic7runtimeNtB5_14DynamicRuntime15ensure_registry
FN:131,_RNvMs0_NtNtCsgTXWXfwjzne_17intervals_icu_mcp7dynamic7runtimeNtB5_14DynamicRuntime17cached_tool_count
FN:234,_RNvMs0_NtNtCsgTXWXfwjzne_17intervals_icu_mcp7dynamic7runtimeNtB5_14DynamicRuntime18try_build_registry
FN:217,_RNvMs0_NtNtCsgTXWXfwjzne_17intervals_icu_mcp7dynamic7runtimeNtB5_14DynamicRuntime22should_attempt_refresh
FN:115,_RNvMs0_NtNtCsgTXWXfwjzne_17intervals_icu_mcp7dynamic7runtimeNtB5_14DynamicRuntime3new
FN:146,_RNvMs0_NtNtCsgTXWXfwjzne_17intervals_icu_mcp7dynamic7runtimeNtB5_14DynamicRuntime7api_key
FN:136,_RNvMs0_NtNtCsgTXWXfwjzne_17intervals_icu_mcp7dynamic7runtimeNtB5_14DynamicRuntime8base_url
FN:126,_RNvMs0_NtNtCsgTXWXfwjzne_17intervals_icu_mcp7dynamic7runtimeNtB5_14DynamicRuntime8from_env
FN:240,_RNvMs0_NtNtCsgTXWXfwjzne_17intervals_icu_mcp7dynamic7runtimeNtB5_14DynamicRuntime9load_spec
FN:85,_RNvMs_NtNtCsgTXWXfwjzne_17intervals_icu_mcp7dynamic7runtimeNtB4_27DynamicRuntimeConfigBuilder16refresh_interval
FN:90,_RNvMs_NtNtCsgTXWXfwjzne_17intervals_icu_mcp7dynamic7runtimeNtB4_27DynamicRuntimeConfigBuilder5build
FN:278,_RNvNtNtCsgTXWXfwjzne_17intervals_icu_mcp7dynamic7runtime21load_spec_from_source
FN:268,_RNvNtNtCsgTXWXfwjzne_17intervals_icu_mcp7dynamic7runtime23default_local_spec_path
FN:576,_RNCNCNvNtNtNtCsgTXWXfwjzne_17intervals_icu_mcp7dynamic7runtime5testss_37test_load_spec_from_source_local_file00Bb_
FN:604,_RNCNCNvNtNtNtCsgTXWXfwjzne_17intervals_icu_mcp7dynamic7runtime5testss_37test_load_spec_from_source_remote_url00Bb_
FN:345,_RNCNvNtNtNtCsgTXWXfwjzne_17intervals_icu_mcp7dynamic7runtime5tests23write_temp_openapi_spec0B9_
FN:355,_RNCNvNtNtNtCsgTXWXfwjzne_17intervals_icu_mcp7dynamic7runtime5tests25start_mock_openapi_server0B9_
FN:478,_RNCNvNtNtNtCsgTXWXfwjzne_17intervals_icu_mcp7dynamic7runtime5testss_34test_runtime_ensure_registry_empty0B9_
FN:659,_RNCNvNtNtNtCsgTXWXfwjzne_17intervals_icu_mcp7dynamic7runtime5testss_35test_runtime_registry_initial_state0B9_
FN:558,_RNCNvNtNtNtCsgTXWXfwjzne_17intervals_icu_mcp7dynamic7runtime5testss_37test_load_spec_from_source_local_file0B9_
FN:585,_RNCNvNtNtNtCsgTXWXfwjzne_17intervals_icu_mcp7dynamic7runtime5testss_37test_load_spec_from_source_remote_url0B9_
FN:539,_RNCNvNtNtNtCsgTXWXfwjzne_17intervals_icu_mcp7dynamic7runtime5testss_38test_load_spec_from_source_invalid_url0B9_
FN:669,_RNCNvNtNtNtCsgTXWXfwjzne_17intervals_icu_mcp7dynamic7runtime5testss_39test_runtime_last_refresh_initial_state0B9_
FN:548,_RNCNvNtNtNtCsgTXWXfwjzne_17intervals_icu_mcp7dynamic7runtime5testss_41test_load_spec_from_source_file_not_found0B9_
FN:501,_RNCNvNtNtNtCsgTXWXfwjzne_17intervals_icu_mcp7dynamic7runtime5testss_55test_runtime_try_build_registry_from_remote_spec_source0B9_
FN:314,_RNvNtNtNtCsgTXWXfwjzne_17intervals_icu_mcp7dynamic7runtime5tests20minimal_openapi_spec
FN:345,_RNvNtNtNtCsgTXWXfwjzne_17intervals_icu_mcp7dynamic7runtime5tests23write_temp_openapi_spec
FN:355,_RNvNtNtNtCsgTXWXfwjzne_17intervals_icu_mcp7dynamic7runtime5tests25start_mock_openapi_server
FN:679,_RNvNtNtNtCsgTXWXfwjzne_17intervals_icu_mcp7dynamic7runtime5testss_14test_constants
FN:434,_RNvNtNtNtCsgTXWXfwjzne_17intervals_icu_mcp7dynamic7runtime5testss_16test_runtime_new
FN:632,_RNvNtNtNtCsgTXWXfwjzne_17intervals_icu_mcp7dynamic7runtime5testss_17test_config_clone
FN:646,_RNvNtNtNtCsgTXWXfwjzne_17intervals_icu_mcp7dynamic7runtime5testss_18test_runtime_clone
FN:392,_RNvNtNtNtCsgTXWXfwjzne_17intervals_icu_mcp7dynamic7runtime5testss_19test_config_builder
FN:449,_RNvNtNtNtCsgTXWXfwjzne_17intervals_icu_mcp7dynamic7runtime5testss_21test_runtime_from_env
FN:413,_RNvNtNtNtCsgTXWXfwjzne_17intervals_icu_mcp7dynamic7runtime5testss_26test_config_builder_fluent
FN:407,_RNvNtNtNtCsgTXWXfwjzne_17intervals_icu_mcp7dynamic7runtime5testss_28test_config_builder_defaults
FN:620,_RNvNtNtNtCsgTXWXfwjzne_17intervals_icu_mcp7dynamic7runtime5testss_28test_config_with_spec_source
FN:522,_RNvNtNtNtCsgTXWXfwjzne_17intervals_icu_mcp7dynamic7runtime5testss_28test_default_local_spec_path
FN:372,_RNvNtNtNtCsgTXWXfwjzne_17intervals_icu_mcp7dynamic7runtime5testss_29test_config_from_env_defaults
FN:464,_RNvNtNtNtCsgTXWXfwjzne_17intervals_icu_mcp7dynamic7runtime5testss_30test_runtime_cached_tool_count
FN:611,_RNvNtNtNtCsgTXWXfwjzne_17intervals_icu_mcp7dynamic7runtime5testss_33test_config_refresh_interval_zero
FN:478,_RNvNtNtNtCsgTXWXfwjzne_17intervals_icu_mcp7dynamic7runtime5testss_34test_runtime_ensure_registry_empty
FN:659,_RNvNtNtNtCsgTXWXfwjzne_17intervals_icu_mcp7dynamic7runtime5testss_35test_runtime_registry_initial_state
FN:558,_RNvNtNtNtCsgTXWXfwjzne_17intervals_icu_mcp7dynamic7runtime5testss_37test_load_spec_from_source_local_file
FN:585,_RNvNtNtNtCsgTXWXfwjzne_17intervals_icu_mcp7dynamic7runtime5testss_37test_load_spec_from_source_remote_url
FN:530,_RNvNtNtNtCsgTXWXfwjzne_17intervals_icu_mcp7dynamic7runtime5testss_38test_default_local_spec_path_structure
FN:539,_RNvNtNtNtCsgTXWXfwjzne_17intervals_icu_mcp7dynamic7runtime5testss_38test_load_spec_from_source_invalid_url
FN:669,_RNvNtNtNtCsgTXWXfwjzne_17intervals_icu_mcp7dynamic7runtime5testss_39test_runtime_last_refresh_initial_state
FN:548,_RNvNtNtNtCsgTXWXfwjzne_17intervals_icu_mcp7dynamic7runtime5testss_41test_load_spec_from_source_file_not_found
FN:501,_RNvNtNtNtCsgTXWXfwjzne_17intervals_icu_mcp7dynamic7runtime5testss_55test_runtime_try_build_registry_from_remote_spec_source
FNDA:0,_RNCNvMs0_NtNtCsgTXWXfwjzne_17intervals_icu_mcp7dynamic7runtimeNtB7_14DynamicRuntime16dispatch_openapi0Bb_
FNDA:0,_RNvMs0_NtNtCsgTXWXfwjzne_17intervals_icu_mcp7dynamic7runtimeNtB5_14DynamicRuntime16dispatch_openapi
FNDA:4,_RINvMs_NtNtCsgTXWXfwjzne_17intervals_icu_mcp7dynamic7runtimeNtB5_27DynamicRuntimeConfigBuilder10athlete_idReEB9_
FNDA:3,_RINvMs_NtNtCsgTXWXfwjzne_17intervals_icu_mcp7dynamic7runtimeNtB5_27DynamicRuntimeConfigBuilder11spec_sourceNtNtCsehV1Oe06VSW_5alloc6string6StringEB9_
FNDA:3,_RINvMs_NtNtCsgTXWXfwjzne_17intervals_icu_mcp7dynamic7runtimeNtB5_27DynamicRuntimeConfigBuilder11spec_sourceReEB9_
FNDA:4,_RINvMs_NtNtCsgTXWXfwjzne_17intervals_icu_mcp7dynamic7runtimeNtB5_27DynamicRuntimeConfigBuilder7api_keyReEB9_
FNDA:5,_RINvMs_NtNtCsgTXWXfwjzne_17intervals_icu_mcp7dynamic7runtimeNtB5_27DynamicRuntimeConfigBuilder8base_urlReEB9_
FNDA:2,_RNCNCNvMs0_NtNtCsgTXWXfwjzne_17intervals_icu_mcp7dynamic7runtimeNtB9_14DynamicRuntime15ensure_registry00Bd_
FNDA:0,_RNCNCNvMs0_NtNtCsgTXWXfwjzne_17intervals_icu_mcp7dynamic7runtimeNtB9_14DynamicRuntime9load_spec00Bd_
FNDA:1,_RNCNCNvNtNtCsgTXWXfwjzne_17intervals_icu_mcp7dynamic7runtime21load_spec_from_source00B9_
FNDA:3,_RNCNCNvNtNtCsgTXWXfwjzne_17intervals_icu_mcp7dynamic7runtime21load_spec_from_source0s0_0B9_
FNDA:0,_RNCNCNvNtNtCsgTXWXfwjzne_17intervals_icu_mcp7dynamic7runtime21load_spec_from_source0s1_0B9_
FNDA:0,_RNCNCNvNtNtCsgTXWXfwjzne_17intervals_icu_mcp7dynamic7runtime21load_spec_from_source0s_0B9_
FNDA:3,_RNCNvMNtNtCsgTXWXfwjzne_17intervals_icu_mcp7dynamic7runtimeNtB4_20DynamicRuntimeConfig8from_env0B8_
FNDA:0,_RNCNvMNtNtCsgTXWXfwjzne_17intervals_icu_mcp7dynamic7runtimeNtB4_20DynamicRuntimeConfig8from_envs_0B8_
FNDA:3,_RNCNvMs0_NtNtCsgTXWXfwjzne_17intervals_icu_mcp7dynamic7runtimeNtB7_14DynamicRuntime15ensure_registry0Bb_
FNDA:4,_RNCNvMs0_NtNtCsgTXWXfwjzne_17intervals_icu_mcp7dynamic7runtimeNtB7_14DynamicRuntime18try_build_registry0Bb_
FNDA:0,_RNCNvMs0_NtNtCsgTXWXfwjzne_17intervals_icu_mcp7dynamic7runtimeNtB7_14DynamicRuntime22should_attempt_refresh0Bb_
FNDA:4,_RNCNvMs0_NtNtCsgTXWXfwjzne_17intervals_icu_mcp7dynamic7runtimeNtB7_14DynamicRuntime9load_spec0Bb_
FNDA:22,_RNCNvMs_NtNtCsgTXWXfwjzne_17intervals_icu_mcp7dynamic7runtimeNtB6_27DynamicRuntimeConfigBuilder5build0Ba_
FNDA:8,_RNCNvNtNtCsgTXWXfwjzne_17intervals_icu_mcp7dynamic7runtime21load_spec_from_source0B7_
FNDA:2,_RNCNvNtNtCsgTXWXfwjzne_17intervals_icu_mcp7dynamic7runtime23default_local_spec_path0B7_
FNDA:27,_RNvMNtNtCsgTXWXfwjzne_17intervals_icu_mcp7dynamic7runtimeNtB2_20DynamicRuntimeConfig7builder
FNDA:3,_RNvMNtNtCsgTXWXfwjzne_17intervals_icu_mcp7dynamic7runtimeNtB2_20DynamicRuntimeConfig8from_env
FNDA:3,_RNvMs0_NtNtCsgTXWXfwjzne_17intervals_icu_mcp7dynamic7runtimeNtB5_14DynamicRuntime10athlete_id
FNDA:3,_RNvMs0_NtNtCsgTXWXfwjzne_17intervals_icu_mcp7dynamic7runtimeNtB5_14DynamicRuntime15ensure_registry
FNDA:3,_RNvMs0_NtNtCsgTXWXfwjzne_17intervals_icu_mcp7dynamic7runtimeNtB5_14DynamicRuntime17cached_tool_count
FNDA:4,_RNvMs0_NtNtCsgTXWXfwjzne_17intervals_icu_mcp7dynamic7runtimeNtB5_14DynamicRuntime18try_build_registry
FNDA:0,_RNvMs0_NtNtCsgTXWXfwjzne_17intervals_icu_mcp7dynamic7runtimeNtB5_14DynamicRuntime22should_attempt_refresh
FNDA:23,_RNvMs0_NtNtCsgTXWXfwjzne_17intervals_icu_mcp7dynamic7runtimeNtB5_14DynamicRuntime3new
FNDA:1,_RNvMs0_NtNtCsgTXWXfwjzne_17intervals_icu_mcp7dynamic7runtimeNtB5_14DynamicRuntime7api_key
FNDA:4,_RNvMs0_NtNtCsgTXWXfwjzne_17intervals_icu_mcp7dynamic7runtimeNtB5_14DynamicRuntime8base_url
FNDA:2,_RNvMs0_NtNtCsgTXWXfwjzne_17intervals_icu_mcp7dynamic7runtimeNtB5_14DynamicRuntime8from_env
FNDA:4,_RNvMs0_NtNtCsgTXWXfwjzne_17intervals_icu_mcp7dynamic7runtimeNtB5_14DynamicRuntime9load_spec
FNDA:3,_RNvMs_NtNtCsgTXWXfwjzne_17intervals_icu_mcp7dynamic7runtimeNtB4_27DynamicRuntimeConfigBuilder16refresh_interval
FNDA:27,_RNvMs_NtNtCsgTXWXfwjzne_17intervals_icu_mcp7dynamic7runtimeNtB4_27DynamicRuntimeConfigBuilder5build
FNDA:8,_RNvNtNtCsgTXWXfwjzne_17intervals_icu_mcp7dynamic7runtime21load_spec_from_source
FNDA:2,_RNvNtNtCsgTXWXfwjzne_17intervals_icu_mcp7dynamic7runtime23default_local_spec_path
FNDA:1,_RNCNCNvNtNtNtCsgTXWXfwjzne_17intervals_icu_mcp7dynamic7runtime5testss_37test_load_spec_from_source_local_file00Bb_
FNDA:1,_RNCNCNvNtNtNtCsgTXWXfwjzne_17intervals_icu_mcp7dynamic7runtime5testss_37test_load_spec_from_source_remote_url00Bb_
FNDA:1,_RNCNvNtNtNtCsgTXWXfwjzne_17intervals_icu_mcp7dynamic7runtime5tests23write_temp_openapi_spec0B9_
FNDA:2,_RNCNvNtNtNtCsgTXWXfwjzne_17intervals_icu_mcp7dynamic7runtime5tests25start_mock_openapi_server0B9_
FNDA:1,_RNCNvNtNtNtCsgTXWXfwjzne_17intervals_icu_mcp7dynamic7runtime5testss_34test_runtime_ensure_registry_empty0B9_
FNDA:1,_RNCNvNtNtNtCsgTXWXfwjzne_17intervals_icu_mcp7dynamic7runtime5testss_35test_runtime_registry_initial_state0B9_
FNDA:1,_RNCNvNtNtNtCsgTXWXfwjzne_17intervals_icu_mcp7dynamic7runtime5testss_37test_load_spec_from_source_local_file0B9_
FNDA:1,_RNCNvNtNtNtCsgTXWXfwjzne_17intervals_icu_mcp7dynamic7runtime5testss_37test_load_spec_from_source_remote_url0B9_
FNDA:1,_RNCNvNtNtNtCsgTXWXfwjzne_17intervals_icu_mcp7dynamic7runtime5testss_38test_load_spec_from_source_invalid_url0B9_
FNDA:1,_RNCNvNtNtNtCsgTXWXfwjzne_17intervals_icu_mcp7dynamic7runtime5testss_39test_runtime_last_refresh_initial_state0B9_
FNDA:1,_RNCNvNtNtNtCsgTXWXfwjzne_17intervals_icu_mcp7dynamic7runtime5testss_41test_load_spec_from_source_file_not_found0B9_
FNDA:1,_RNCNvNtNtNtCsgTXWXfwjzne_17intervals_icu_mcp7dynamic7runtime5testss_55test_runtime_try_build_registry_from_remote_spec_source0B9_
FNDA:3,_RNvNtNtNtCsgTXWXfwjzne_17intervals_icu_mcp7dynamic7runtime5tests20minimal_openapi_spec
FNDA:1,_RNvNtNtNtCsgTXWXfwjzne_17intervals_icu_mcp7dynamic7runtime5tests23write_temp_openapi_spec
FNDA:2,_RNvNtNtNtCsgTXWXfwjzne_17intervals_icu_mcp7dynamic7runtime5tests25start_mock_openapi_server
FNDA:1,_RNvNtNtNtCsgTXWXfwjzne_17intervals_icu_mcp7dynamic7runtime5testss_14test_constants
FNDA:1,_RNvNtNtNtCsgTXWXfwjzne_17intervals_icu_mcp7dynamic7runtime5testss_16test_runtime_new
FNDA:1,_RNvNtNtNtCsgTXWXfwjzne_17intervals_icu_mcp7dynamic7runtime5testss_17test_config_clone
FNDA:1,_RNvNtNtNtCsgTXWXfwjzne_17intervals_icu_mcp7dynamic7runtime5testss_18test_runtime_clone
FNDA:1,_RNvNtNtNtCsgTXWXfwjzne_17intervals_icu_mcp7dynamic7runtime5testss_19test_config_builder
FNDA:1,_RNvNtNtNtCsgTXWXfwjzne_17intervals_icu_mcp7dynamic7runtime5testss_21test_runtime_from_env
FNDA:1,_RNvNtNtNtCsgTXWXfwjzne_17intervals_icu_mcp7dynamic7runtime5testss_26test_config_builder_fluent
FNDA:1,_RNvNtNtNtCsgTXWXfwjzne_17intervals_icu_mcp7dynamic7runtime5testss_28test_config_builder_defaults
FNDA:1,_RNvNtNtNtCsgTXWXfwjzne_17intervals_icu_mcp7dynamic7runtime5testss_28test_config_with_spec_source
FNDA:1,_RNvNtNtNtCsgTXWXfwjzne_17intervals_icu_mcp7dynamic7runtime5testss_28test_default_local_spec_path
FNDA:1,_RNvNtNtNtCsgTXWXfwjzne_17intervals_icu_mcp7dynamic7runtime5testss_29test_config_from_env_defaults
FNDA:1,_RNvNtNtNtCsgTXWXfwjzne_17intervals_icu_mcp7dynamic7runtime5testss_30test_runtime_cached_tool_count
FNDA:1,_RNvNtNtNtCsgTXWXfwjzne_17intervals_icu_mcp7dynamic7runtime5testss_33test_config_refresh_interval_zero
FNDA:1,_RNvNtNtNtCsgTXWXfwjzne_17intervals_icu_mcp7dynamic7runtime5testss_34test_runtime_ensure_registry_empty
FNDA:1,_RNvNtNtNtCsgTXWXfwjzne_17intervals_icu_mcp7dynamic7runtime5testss_35test_runtime_registry_initial_state
FNDA:1,_RNvNtNtNtCsgTXWXfwjzne_17intervals_icu_mcp7dynamic7runtime5testss_37test_load_spec_from_source_local_file
FNDA:1,_RNvNtNtNtCsgTXWXfwjzne_17intervals_icu_mcp7dynamic7runtime5testss_37test_load_spec_from_source_remote_url
FNDA:1,_RNvNtNtNtCsgTXWXfwjzne_17intervals_icu_mcp7dynamic7runtime5testss_38test_default_local_spec_path_structure
FNDA:1,_RNvNtNtNtCsgTXWXfwjzne_17intervals_icu_mcp7dynamic7runtime5testss_38test_load_spec_from_source_invalid_url
FNDA:1,_RNvNtNtNtCsgTXWXfwjzne_17intervals_icu_mcp7dynamic7runtime5testss_39test_runtime_last_refresh_initial_state
FNDA:1,_RNvNtNtNtCsgTXWXfwjzne_17intervals_icu_mcp7dynamic7runtime5testss_41test_load_spec_from_source_file_not_found
FNDA:1,_RNvNtNtNtCsgTXWXfwjzne_17intervals_icu_mcp7dynamic7runtime5testss_55test_runtime_try_build_registry_from_remote_spec_source
FNF:74
FNH:66
DA:28,3
DA:29,3
DA:30,3
DA:31,3
DA:32,3
DA:33,3
DA:34,3
DA:35,3
DA:36,3
DA:37,3
DA:39,3
DA:40,3
DA:41,3
DA:42,3
DA:43,3
DA:44,3
DA:45,3
DA:46,3
DA:49,27
DA:50,27
DA:51,27
DA:65,5
DA:66,5
DA:67,5
DA:68,5
DA:70,4
DA:71,4
DA:72,4
DA:73,4
DA:75,4
DA:76,4
DA:77,4
DA:78,4
DA:80,6
DA:81,6
DA:82,6
DA:83,6
DA:85,3
DA:86,3
DA:87,3
DA:88,3
DA:90,27
DA:92,27
DA:93,27
DA:94,27
DA:95,27
DA:96,27
DA:97,27
DA:98,27
DA:100,27
DA:115,23
DA:116,23
DA:117,23
DA:118,23
DA:119,23
DA:120,23
DA:121,23
DA:122,23
DA:123,23
DA:126,2
DA:127,2
DA:128,2
DA:131,3
DA:132,3
DA:133,3
DA:136,4
DA:137,4
DA:138,4
DA:141,3
DA:142,3
DA:143,3
DA:146,1
DA:147,1
DA:148,1
DA:151,0
DA:152,0
DA:153,0
DA:154,0
DA:155,0
DA:156,0
DA:157,0
DA:158,0
DA:159,0
DA:160,0
DA:161,0
DA:162,0
DA:163,0
DA:164,0
DA:165,0
DA:168,3
DA:169,3
DA:170,0
DA:171,0
DA:172,0
DA:175,0
DA:176,0
DA:178,0
DA:179,0
DA:180,0
DA:181,0
DA:182,0
DA:183,0
DA:184,0
DA:185,0
DA:186,0
DA:189,0
DA:191,0
DA:192,0
DA:196,0
DA:199,3
DA:201,3
DA:202,3
DA:203,2
DA:204,2
DA:205,1
DA:206,1
DA:208,1
DA:209,1
DA:211,1
DA:212,1
DA:214,1
DA:215,3
DA:217,0
DA:218,0
DA:219,0
DA:220,0
DA:222,0
DA:223,0
DA:225,0
DA:226,0
DA:228,0
DA:229,0
DA:232,0
DA:234,4
DA:235,4
DA:236,2
DA:237,2
DA:238,4
DA:240,4
DA:241,4
DA:242,4
DA:243,0
DA:245,0
DA:247,0
DA:250,0
DA:251,0
DA:252,0
DA:253,0
DA:254,0
DA:255,0
DA:256,0
DA:257,0
DA:258,0
DA:259,0
DA:260,0
DA:261,0
DA:265,4
DA:268,2
DA:269,2
DA:270,2
DA:271,2
DA:272,2
DA:273,2
DA:274,2
DA:275,2
DA:276,2
DA:278,8
DA:279,8
DA:280,8
DA:281,8
DA:282,8
DA:283,3
DA:284,3
DA:285,3
DA:286,3
DA:287,3
DA:288,3
DA:289,2
DA:290,2
DA:291,0
DA:292,2
DA:293,2
DA:294,2
DA:295,2
DA:296,2
DA:297,2
DA:298,5
DA:300,5
DA:301,5
DA:302,5
DA:303,2
DA:304,8
DA:314,3
DA:315,3
DA:316,3
DA:317,3
DA:318,3
DA:319,3
DA:321,3
DA:322,3
DA:323,3
DA:324,3
DA:325,3
DA:326,3
DA:328,3
DA:329,3
DA:330,3
DA:331,3
DA:334,3
DA:335,3
DA:336,3
DA:343,3
DA:345,1
DA:346,1
DA:347,1
DA:348,1
DA:349,1
DA:350,1
DA:351,1
DA:352,1
DA:353,1
DA:355,2
DA:356,2
DA:358,2
DA:359,2
DA:360,2
DA:361,2
DA:362,2
DA:364,2
DA:365,2
DA:372,1
DA:373,1
DA:376,1
DA:377,1
DA:378,1
DA:379,1
DA:380,1
DA:381,1
DA:382,1
DA:384,1
DA:385,1
DA:386,1
DA:387,1
DA:388,1
DA:389,1
DA:392,1
DA:393,1
DA:394,1
DA:395,1
DA:396,1
DA:397,1
DA:398,1
DA:400,1
DA:401,1
DA:402,1
DA:403,1
DA:404,1
DA:407,1
DA:408,1
DA:409,1
DA:410,1
DA:413,1
DA:414,1
DA:415,1
DA:416,1
DA:417,1
DA:418,1
DA:419,1
DA:420,1
DA:422,1
DA:423,1
DA:424,1
DA:425,1
DA:426,1
DA:427,1
DA:434,1
DA:435,1
DA:436,1
DA:437,1
DA:438,1
DA:439,1
DA:441,1
DA:442,1
DA:443,1
DA:444,1
DA:445,1
DA:446,1
DA:449,1
DA:450,1
DA:453,1
DA:454,1
DA:455,1
DA:456,1
DA:457,1
DA:459,1
DA:460,1
DA:461,1
DA:464,1
DA:467,1
DA:468,1
DA:470,1
DA:473,1
DA:474,1
DA:475,1
DA:478,1
DA:480,1
DA:481,1
DA:482,1
DA:484,1
DA:486,1
DA:487,1
DA:488,1
DA:489,1
DA:493,1
DA:494,1
DA:495,1
DA:496,1
DA:497,1
DA:498,1
DA:501,1
DA:502,1
DA:503,1
DA:504,1
DA:505,1
DA:507,1
DA:509,1
DA:510,1
DA:511,1
DA:512,1
DA:513,1
DA:514,1
DA:515,1
DA:522,1
DA:523,1
DA:526,1
DA:527,1
DA:530,1
DA:531,1
DA:534,1
DA:535,1
DA:536,1
DA:539,1
DA:540,1
DA:543,1
DA:544,1
DA:545,1
DA:548,1
DA:549,1
DA:552,1
DA:553,1
DA:554,1
DA:555,1
DA:558,1
DA:559,1
DA:560,1
DA:562,1
DA:563,1
DA:565,1
DA:566,1
DA:567,1
DA:568,1
DA:569,1
DA:570,1
DA:573,1
DA:574,1
DA:575,1
DA:576,1
DA:577,1
DA:581,1
DA:582,1
DA:585,1
DA:586,1
DA:587,1
DA:589,1
DA:590,1
DA:591,1
DA:593,1
DA:594,1
DA:595,1
DA:596,1
DA:597,1
DA:598,1
DA:601,1
DA:602,1
DA:603,1
DA:604,1
DA:605,1
DA:606,1
DA:607,1
DA:608,1
DA:611,1
DA:612,1
DA:613,1
DA:614,1
DA:616,1
DA:617,1
DA:620,1
DA:621,1
DA:622,1
DA:623,1
DA:625,1
DA:627,1
DA:629,1
DA:632,1
DA:633,1
DA:634,1
DA:635,1
DA:636,1
DA:637,1
DA:639,1
DA:640,1
DA:641,1
DA:642,1
DA:643,1
DA:646,1
DA:647,1
DA:648,1
DA:649,1
DA:651,1
DA:652,1
DA:654,1
DA:655,1
DA:656,1
DA:659,1
DA:660,1
DA:661,1
DA:664,1
DA:665,1
DA:666,1
DA:669,1
DA:670,1
DA:671,1
DA:674,1
DA:675,1
DA:676,1
DA:679,1
DA:680,1
DA:681,1
DA:682,1
BRF:0
BRH:0
LF:482
LH:416
end_of_record
SF:/Users/solovey/Documents/dev/rusty_intervals_mcp/crates/intervals_icu_mcp/src/dynamic/types.rs
FN:54,_RNvMNtNtCsgTXWXfwjzne_17intervals_icu_mcp7dynamic5typesNtB2_15DynamicRegistry10list_tools
FN:61,_RNvMNtNtCsgTXWXfwjzne_17intervals_icu_mcp7dynamic5typesNtB2_15DynamicRegistry3len
FN:42,_RNvMNtNtCsgTXWXfwjzne_17intervals_icu_mcp7dynamic5typesNtB2_15DynamicRegistry3new
FN:71,_RNvMNtNtCsgTXWXfwjzne_17intervals_icu_mcp7dynamic5typesNtB2_15DynamicRegistry6insert
FN:66,_RNvMNtNtCsgTXWXfwjzne_17intervals_icu_mcp7dynamic5typesNtB2_15DynamicRegistry8is_empty
FN:49,_RNvMNtNtCsgTXWXfwjzne_17intervals_icu_mcp7dynamic5typesNtB2_15DynamicRegistry9operation
FN:77,_RNvXs_NtNtCsgTXWXfwjzne_17intervals_icu_mcp7dynamic5typesNtB4_15DynamicRegistryNtNtCse2qo0L34Llq_4core7default7Default7default
FN:293,_RNvNtNtNtCsgTXWXfwjzne_17intervals_icu_mcp7dynamic5types5testss_17test_registry_len
FN:203,_RNvNtNtNtCsgTXWXfwjzne_17intervals_icu_mcp7dynamic5types5testss_17test_registry_new
FN:430,_RNvNtNtNtCsgTXWXfwjzne_17intervals_icu_mcp7dynamic5types5testss_21test_param_spec_clone
FN:210,_RNvNtNtNtCsgTXWXfwjzne_17intervals_icu_mcp7dynamic5types5testss_21test_registry_default
FN:339,_RNvNtNtNtCsgTXWXfwjzne_17intervals_icu_mcp7dynamic5types5testss_23test_registry_overwrite
FN:256,_RNvNtNtNtCsgTXWXfwjzne_17intervals_icu_mcp7dynamic5types5testss_24test_registry_list_tools
FN:444,_RNvNtNtNtCsgTXWXfwjzne_17intervals_icu_mcp7dynamic5types5testss_28test_dynamic_operation_clone
FN:100,_RNvNtNtNtCsgTXWXfwjzne_17intervals_icu_mcp7dynamic5types5testss_28test_param_location_equality
FN:92,_RNvNtNtNtCsgTXWXfwjzne_17intervals_icu_mcp7dynamic5types5testss_28test_param_location_variants
FN:115,_RNvNtNtNtCsgTXWXfwjzne_17intervals_icu_mcp7dynamic5types5testss_28test_param_spec_construction
FN:216,_RNvNtNtNtCsgTXWXfwjzne_17intervals_icu_mcp7dynamic5types5testss_28test_registry_insert_and_get
FN:128,_RNvNtNtNtCsgTXWXfwjzne_17intervals_icu_mcp7dynamic5types5testss_29test_param_spec_auto_injected
FN:249,_RNvNtNtNtCsgTXWXfwjzne_17intervals_icu_mcp7dynamic5types5testss_29test_registry_get_nonexistent
FN:392,_RNvNtNtNtCsgTXWXfwjzne_17intervals_icu_mcp7dynamic5types5testss_33test_registry_multiple_operations
FN:144,_RNvNtNtNtCsgTXWXfwjzne_17intervals_icu_mcp7dynamic5types5testss_35test_dynamic_operation_construction
FN:172,_RNvNtNtNtCsgTXWXfwjzne_17intervals_icu_mcp7dynamic5types5testss_41test_dynamic_operation_with_output_schema
FN:55,_RNCNvMNtNtCsgTXWXfwjzne_17intervals_icu_mcp7dynamic5typesNtB4_15DynamicRegistry10list_tools0B8_
FN:56,_RNCNvMNtNtCsgTXWXfwjzne_17intervals_icu_mcp7dynamic5typesNtB4_15DynamicRegistry10list_toolss_0B8_
FNDA:1,_RNvMNtNtCsgTXWXfwjzne_17intervals_icu_mcp7dynamic5typesNtB2_15DynamicRegistry10list_tools
FNDA:15,_RNvMNtNtCsgTXWXfwjzne_17intervals_icu_mcp7dynamic5typesNtB2_15DynamicRegistry3len
FNDA:23,_RNvMNtNtCsgTXWXfwjzne_17intervals_icu_mcp7dynamic5typesNtB2_15DynamicRegistry3new
FNDA:26,_RNvMNtNtCsgTXWXfwjzne_17intervals_icu_mcp7dynamic5typesNtB2_15DynamicRegistry6insert
FNDA:6,_RNvMNtNtCsgTXWXfwjzne_17intervals_icu_mcp7dynamic5typesNtB2_15DynamicRegistry8is_empty
FNDA:21,_RNvMNtNtCsgTXWXfwjzne_17intervals_icu_mcp7dynamic5typesNtB2_15DynamicRegistry9operation
FNDA:1,_RNvXs_NtNtCsgTXWXfwjzne_17intervals_icu_mcp7dynamic5typesNtB4_15DynamicRegistryNtNtCse2qo0L34Llq_4core7default7Default7default
FNDA:1,_RNvNtNtNtCsgTXWXfwjzne_17intervals_icu_mcp7dynamic5types5testss_17test_registry_len
FNDA:1,_RNvNtNtNtCsgTXWXfwjzne_17intervals_icu_mcp7dynamic5types5testss_17test_registry_new
FNDA:1,_RNvNtNtNtCsgTXWXfwjzne_17intervals_icu_mcp7dynamic5types5testss_21test_param_spec_clone
FNDA:1,_RNvNtNtNtCsgTXWXfwjzne_17intervals_icu_mcp7dynamic5types5testss_21test_registry_default
FNDA:1,_RNvNtNtNtCsgTXWXfwjzne_17intervals_icu_mcp7dynamic5types5testss_23test_registry_overwrite
FNDA:1,_RNvNtNtNtCsgTXWXfwjzne_17intervals_icu_mcp7dynamic5types5testss_24test_registry_list_tools
FNDA:1,_RNvNtNtNtCsgTXWXfwjzne_17intervals_icu_mcp7dynamic5types5testss_28test_dynamic_operation_clone
FNDA:1,_RNvNtNtNtCsgTXWXfwjzne_17intervals_icu_mcp7dynamic5types5testss_28test_param_location_equality
FNDA:1,_RNvNtNtNtCsgTXWXfwjzne_17intervals_icu_mcp7dynamic5types5testss_28test_param_location_variants
FNDA:1,_RNvNtNtNtCsgTXWXfwjzne_17intervals_icu_mcp7dynamic5types5testss_28test_param_spec_construction
FNDA:1,_RNvNtNtNtCsgTXWXfwjzne_17intervals_icu_mcp7dynamic5types5testss_28test_registry_insert_and_get
FNDA:1,_RNvNtNtNtCsgTXWXfwjzne_17intervals_icu_mcp7dynamic5types5testss_29test_param_spec_auto_injected
FNDA:1,_RNvNtNtNtCsgTXWXfwjzne_17intervals_icu_mcp7dynamic5types5testss_29test_registry_get_nonexistent
FNDA:1,_RNvNtNtNtCsgTXWXfwjzne_17intervals_icu_mcp7dynamic5types5testss_33test_registry_multiple_operations
FNDA:1,_RNvNtNtNtCsgTXWXfwjzne_17intervals_icu_mcp7dynamic5types5testss_35test_dynamic_operation_construction
FNDA:1,_RNvNtNtNtCsgTXWXfwjzne_17intervals_icu_mcp7dynamic5types5testss_41test_dynamic_operation_with_output_schema
FNDA:3,_RNCNvMNtNtCsgTXWXfwjzne_17intervals_icu_mcp7dynamic5typesNtB4_15DynamicRegistry10list_tools0B8_
FNDA:2,_RNCNvMNtNtCsgTXWXfwjzne_17intervals_icu_mcp7dynamic5typesNtB4_15DynamicRegistry10list_toolss_0B8_
FNF:25
FNH:25
DA:42,23
DA:43,23
DA:44,23
DA:45,23
DA:46,23
DA:49,21
DA:50,21
DA:51,21
DA:54,1
DA:55,3
DA:56,2
DA:57,1
DA:58,1
DA:61,15
DA:62,15
DA:63,15
DA:66,6
DA:67,6
DA:68,6
DA:71,26
DA:72,26
DA:73,26
DA:77,1
DA:78,1
DA:79,1
DA:92,1
DA:93,1
DA:94,1
DA:96,1
DA:97,1
DA:100,1
DA:101,1
DA:102,1
DA:103,1
DA:105,1
DA:106,1
DA:107,1
DA:108,1
DA:115,1
DA:116,1
DA:117,1
DA:118,1
DA:119,1
DA:120,1
DA:122,1
DA:123,1
DA:124,1
DA:125,1
DA:128,1
DA:129,1
DA:130,1
DA:131,1
DA:132,1
DA:133,1
DA:135,1
DA:136,1
DA:137,1
DA:144,1
DA:147,1
DA:148,1
DA:149,1
DA:150,1
DA:153,1
DA:154,1
DA:155,1
DA:156,1
DA:157,1
DA:158,1
DA:159,1
DA:160,1
DA:161,1
DA:162,1
DA:164,1
DA:165,1
DA:166,1
DA:167,1
DA:168,1
DA:169,1
DA:172,1
DA:175,1
DA:176,1
DA:177,1
DA:178,1
DA:181,1
DA:182,1
DA:184,1
DA:185,1
DA:186,1
DA:187,1
DA:188,1
DA:189,1
DA:190,1
DA:191,1
DA:192,1
DA:193,1
DA:195,1
DA:196,1
DA:203,1
DA:204,1
DA:205,1
DA:206,1
DA:207,1
DA:210,1
DA:211,1
DA:212,1
DA:213,1
DA:216,1
DA:219,1
DA:221,1
DA:222,1
DA:223,1
DA:224,1
DA:227,1
DA:228,1
DA:229,1
DA:230,1
DA:231,1
DA:232,1
DA:233,1
DA:234,1
DA:235,1
DA:236,1
DA:238,1
DA:240,1
DA:241,1
DA:243,1
DA:244,1
DA:245,1
DA:246,1
DA:249,1
DA:250,1
DA:251,1
DA:252,1
DA:253,1
DA:256,1
DA:259,1
DA:262,3
DA:263,3
DA:264,3
DA:265,3
DA:266,3
DA:267,3
DA:268,3
DA:269,3
DA:270,3
DA:271,3
DA:272,3
DA:273,3
DA:274,3
DA:275,3
DA:276,3
DA:277,3
DA:278,3
DA:279,3
DA:280,3
DA:281,3
DA:283,1
DA:284,1
DA:287,1
DA:288,1
DA:289,1
DA:290,1
DA:293,1
DA:296,1
DA:297,1
DA:299,1
DA:300,1
DA:301,1
DA:302,1
DA:305,1
DA:306,1
DA:307,1
DA:308,1
DA:309,1
DA:310,1
DA:311,1
DA:312,1
DA:313,1
DA:314,1
DA:315,1
DA:316,1
DA:319,1
DA:321,1
DA:322,1
DA:323,1
DA:324,1
DA:325,1
DA:326,1
DA:327,1
DA:328,1
DA:329,1
DA:330,1
DA:331,1
DA:332,1
DA:335,1
DA:336,1
DA:339,1
DA:342,1
DA:344,1
DA:345,1
DA:346,1
DA:347,1
DA:350,1
DA:351,1
DA:352,1
DA:353,1
DA:354,1
DA:355,1
DA:356,1
DA:357,1
DA:358,1
DA:359,1
DA:360,1
DA:361,1
DA:364,1
DA:365,1
DA:366,1
DA:367,1
DA:370,1
DA:371,1
DA:372,1
DA:373,1
DA:374,1
DA:375,1
DA:376,1
DA:377,1
DA:378,1
DA:379,1
DA:380,1
DA:381,1
DA:385,1
DA:386,1
DA:387,1
DA:388,1
DA:389,1
DA:392,1
DA:395,1
DA:397,5
DA:398,5
DA:399,5
DA:400,5
DA:401,5
DA:402,5
DA:403,5
DA:404,5
DA:405,5
DA:406,5
DA:407,5
DA:408,5
DA:409,5
DA:410,5
DA:411,5
DA:412,5
DA:413,5
DA:414,5
DA:415,5
DA:416,5
DA:417,5
DA:419,1
DA:422,5
DA:423,5
DA:424,5
DA:425,5
DA:427,1
DA:430,1
DA:431,1
DA:432,1
DA:433,1
DA:434,1
DA:435,1
DA:437,1
DA:438,1
DA:439,1
DA:440,1
DA:441,1
DA:444,1
DA:447,1
DA:448,1
DA:449,1
DA:450,1
DA:453,1
DA:454,1
DA:455,1
DA:456,1
DA:457,1
DA:458,1
DA:459,1
DA:460,1
DA:461,1
DA:462,1
DA:463,1
DA:464,1
DA:465,1
DA:466,1
DA:468,1
DA:469,1
DA:470,1
DA:471,1
DA:472,1
BRF:0
BRH:0
LF:301
LH:301
end_of_record
SF:/Users/solovey/Documents/dev/rusty_intervals_mcp/crates/intervals_icu_mcp/src/engines/adaptation.rs
FN:313,_RNvNtNtNtCsgTXWXfwjzne_17intervals_icu_mcp7engines10adaptation5testss_18adaptation_plateau
FN:338,_RNvNtNtNtCsgTXWXfwjzne_17intervals_icu_mcp7engines10adaptation5testss_22curve_profile_sprinter
FN:281,_RNvNtNtNtCsgTXWXfwjzne_17intervals_icu_mcp7engines10adaptation5testss_24adaptation_fatigue_state
FN:289,_RNvNtNtNtCsgTXWXfwjzne_17intervals_icu_mcp7engines10adaptation5testss_24adaptation_vo2_expansion
FN:305,_RNvNtNtNtCsgTXWXfwjzne_17intervals_icu_mcp7engines10adaptation5testss_26adaptation_anaerobic_build
FN:297,_RNvNtNtNtCsgTXWXfwjzne_17intervals_icu_mcp7engines10adaptation5testss_32adaptation_aerobic_consolidation
FN:273,_RNvNtNtNtCsgTXWXfwjzne_17intervals_icu_mcp7engines10adaptation5testss_32adaptation_baseline_when_no_data
FN:321,_RNvNtNtNtCsgTXWXfwjzne_17intervals_icu_mcp7engines10adaptation5testss_33adaptation_mixed_when_conflicting
FN:330,_RNvNtNtNtCsgTXWXfwjzne_17intervals_icu_mcp7engines10adaptation5testss_33curve_profile_all_rounder_default
FN:353,_RNvNtNtNtCsgTXWXfwjzne_17intervals_icu_mcp7engines10adaptation5testss_34curve_profile_endurance_specialist
FN:368,_RNvNtNtNtCsgTXWXfwjzne_17intervals_icu_mcp7engines10adaptation5testss_37curve_profile_balanced_runner_default
FN:130,_RNvNtNtCsgTXWXfwjzne_17intervals_icu_mcp7engines10adaptation19classify_adaptation
FN:193,_RNvNtNtCsgTXWXfwjzne_17intervals_icu_mcp7engines10adaptation22classify_curve_profile
FNDA:1,_RNvNtNtNtCsgTXWXfwjzne_17intervals_icu_mcp7engines10adaptation5testss_18adaptation_plateau
FNDA:1,_RNvNtNtNtCsgTXWXfwjzne_17intervals_icu_mcp7engines10adaptation5testss_22curve_profile_sprinter
FNDA:1,_RNvNtNtNtCsgTXWXfwjzne_17intervals_icu_mcp7engines10adaptation5testss_24adaptation_fatigue_state
FNDA:1,_RNvNtNtNtCsgTXWXfwjzne_17intervals_icu_mcp7engines10adaptation5testss_24adaptation_vo2_expansion
FNDA:1,_RNvNtNtNtCsgTXWXfwjzne_17intervals_icu_mcp7engines10adaptation5testss_26adaptation_anaerobic_build
FNDA:1,_RNvNtNtNtCsgTXWXfwjzne_17intervals_icu_mcp7engines10adaptation5testss_32adaptation_aerobic_consolidation
FNDA:1,_RNvNtNtNtCsgTXWXfwjzne_17intervals_icu_mcp7engines10adaptation5testss_32adaptation_baseline_when_no_data
FNDA:1,_RNvNtNtNtCsgTXWXfwjzne_17intervals_icu_mcp7engines10adaptation5testss_33adaptation_mixed_when_conflicting
FNDA:1,_RNvNtNtNtCsgTXWXfwjzne_17intervals_icu_mcp7engines10adaptation5testss_33curve_profile_all_rounder_default
FNDA:1,_RNvNtNtNtCsgTXWXfwjzne_17intervals_icu_mcp7engines10adaptation5testss_34curve_profile_endurance_specialist
FNDA:1,_RNvNtNtNtCsgTXWXfwjzne_17intervals_icu_mcp7engines10adaptation5testss_37curve_profile_balanced_runner_default
FNDA:7,_RNvNtNtCsgTXWXfwjzne_17intervals_icu_mcp7engines10adaptation19classify_adaptation
FNDA:4,_RNvNtNtCsgTXWXfwjzne_17intervals_icu_mcp7engines10adaptation22classify_curve_profile
FNF:13
FNH:13
DA:130,7
DA:131,7
DA:132,7
DA:133,7
DA:134,7
DA:135,7
DA:136,7
DA:137,7
DA:138,7
DA:140,7
DA:141,1
DA:142,6
DA:144,6
DA:145,6
DA:146,6
DA:147,6
DA:148,6
DA:151,6
DA:152,3
DA:153,1
DA:154,1
DA:156,1
DA:157,5
DA:160,5
DA:161,1
DA:162,4
DA:165,4
DA:166,1
DA:167,3
DA:170,3
DA:171,1
DA:172,2
DA:175,2
DA:177,1
DA:178,1
DA:181,1
DA:182,0
DA:184,1
DA:185,0
DA:187,0
DA:188,7
DA:193,4
DA:194,4
DA:195,4
DA:196,4
DA:197,4
DA:198,4
DA:199,4
DA:200,4
DA:201,4
DA:203,2
DA:204,1
DA:206,1
DA:210,2
DA:212,0
DA:213,0
DA:215,0
DA:216,0
DA:218,0
DA:219,0
DA:220,0
DA:222,0
DA:223,0
DA:224,0
DA:226,0
DA:228,0
DA:232,2
DA:233,2
DA:234,2
DA:235,2
DA:237,2
DA:238,1
DA:240,1
DA:241,1
DA:242,1
DA:244,0
DA:245,1
DA:246,1
DA:248,1
DA:249,0
DA:250,0
DA:251,0
DA:253,0
DA:254,0
DA:255,0
DA:257,0
DA:258,0
DA:259,0
DA:261,0
DA:263,0
DA:266,4
DA:273,1
DA:274,1
DA:275,1
DA:278,1
DA:281,1
DA:282,1
DA:283,1
DA:286,1
DA:289,1
DA:290,1
DA:291,1
DA:294,1
DA:297,1
DA:298,1
DA:299,1
DA:302,1
DA:305,1
DA:306,1
DA:307,1
DA:310,1
DA:313,1
DA:314,1
DA:315,1
DA:318,1
DA:321,1
DA:323,1
DA:324,1
DA:327,1
DA:330,1
DA:331,1
DA:332,1
DA:335,1
DA:338,1
DA:339,1
DA:340,1
DA:341,1
DA:342,1
DA:343,1
DA:344,1
DA:345,1
DA:350,1
DA:353,1
DA:354,1
DA:355,1
DA:356,1
DA:357,1
DA:358,1
DA:359,1
DA:360,1
DA:365,1
DA:368,1
DA:369,1
DA:370,1
DA:373,1
BRF:0
BRH:0
LF:145
LH:118
end_of_record
SF:/Users/solovey/Documents/dev/rusty_intervals_mcp/crates/intervals_icu_mcp/src/engines/ade.rs
FN:247,_RNvNtNtNtCsgTXWXfwjzne_17intervals_icu_mcp7engines3ade5testss_16ade_loaded_taper
FN:282,_RNvNtNtNtCsgTXWXfwjzne_17intervals_icu_mcp7engines3ade5testss_19ade_heat_escalation
FN:213,_RNvNtNtNtCsgTXWXfwjzne_17intervals_icu_mcp7engines3ade5testss_24ade_functional_overreach
FN:194,_RNvNtNtNtCsgTXWXfwjzne_17intervals_icu_mcp7engines3ade5testss_26ade_tsb_maladaptation_risk
FN:177,_RNvNtNtNtCsgTXWXfwjzne_17intervals_icu_mcp7engines3ade5testss_27ade_baseline_load_accepting
FN:231,_RNvNtNtNtCsgTXWXfwjzne_17intervals_icu_mcp7engines3ade5testss_32ade_load_pressure_from_ramp_rate
FN:264,_RNvNtNtNtCsgTXWXfwjzne_17intervals_icu_mcp7engines3ade5testss_41ade_acwr_validation_gate_reduces_severity
FN:71,_RNvNtNtCsgTXWXfwjzne_17intervals_icu_mcp7engines3ade11compute_ade
FNDA:1,_RNvNtNtNtCsgTXWXfwjzne_17intervals_icu_mcp7engines3ade5testss_16ade_loaded_taper
FNDA:1,_RNvNtNtNtCsgTXWXfwjzne_17intervals_icu_mcp7engines3ade5testss_19ade_heat_escalation
FNDA:1,_RNvNtNtNtCsgTXWXfwjzne_17intervals_icu_mcp7engines3ade5testss_24ade_functional_overreach
FNDA:1,_RNvNtNtNtCsgTXWXfwjzne_17intervals_icu_mcp7engines3ade5testss_26ade_tsb_maladaptation_risk
FNDA:1,_RNvNtNtNtCsgTXWXfwjzne_17intervals_icu_mcp7engines3ade5testss_27ade_baseline_load_accepting
FNDA:1,_RNvNtNtNtCsgTXWXfwjzne_17intervals_icu_mcp7engines3ade5testss_32ade_load_pressure_from_ramp_rate
FNDA:1,_RNvNtNtNtCsgTXWXfwjzne_17intervals_icu_mcp7engines3ade5testss_41ade_acwr_validation_gate_reduces_severity
FNDA:7,_RNvNtNtCsgTXWXfwjzne_17intervals_icu_mcp7engines3ade11compute_ade
FNF:8
FNH:8
DA:71,7
DA:72,7
DA:73,7
DA:74,7
DA:75,7
DA:76,7
DA:77,7
DA:78,7
DA:79,7
DA:80,7
DA:81,7
DA:82,7
DA:83,7
DA:84,7
DA:85,7
DA:88,7
DA:89,7
DA:90,1
DA:91,6
DA:92,2
DA:93,4
DA:94,0
DA:95,4
DA:96,0
DA:99,7
DA:100,0
DA:101,0
DA:102,0
DA:103,0
DA:104,0
DA:105,7
DA:108,7
DA:109,7
DA:110,1
DA:111,6
DA:112,0
DA:116,7
DA:117,1
DA:118,0
DA:119,1
DA:120,1
DA:121,1
DA:122,6
DA:125,7
DA:126,7
DA:127,5
DA:128,0
DA:129,0
DA:130,5
DA:131,1
DA:132,1
DA:133,4
DA:134,2
DA:135,0
DA:138,7
DA:139,1
DA:140,1
DA:141,1
DA:142,1
DA:143,0
DA:144,6
DA:146,7
DA:147,1
DA:149,6
DA:152,7
DA:153,1
DA:154,6
DA:155,1
DA:156,5
DA:157,4
DA:159,1
DA:162,7
DA:163,7
DA:164,7
DA:165,7
DA:166,7
DA:167,7
DA:168,7
DA:169,7
DA:170,7
DA:177,1
DA:178,1
DA:179,1
DA:180,1
DA:184,1
DA:185,1
DA:187,1
DA:189,1
DA:190,1
DA:191,1
DA:194,1
DA:196,1
DA:197,1
DA:198,1
DA:202,1
DA:203,1
DA:205,1
DA:207,1
DA:208,1
DA:209,1
DA:210,1
DA:213,1
DA:215,1
DA:216,1
DA:217,1
DA:221,1
DA:222,1
DA:224,1
DA:226,1
DA:227,1
DA:228,1
DA:231,1
DA:232,1
DA:233,1
DA:234,1
DA:238,1
DA:239,1
DA:241,1
DA:243,1
DA:244,1
DA:247,1
DA:248,1
DA:249,1
DA:250,1
DA:254,1
DA:255,1
DA:257,1
DA:259,1
DA:261,1
DA:264,1
DA:265,1
DA:266,1
DA:267,1
DA:271,1
DA:272,1
DA:274,1
DA:277,1
DA:278,1
DA:279,1
DA:282,1
DA:283,1
DA:284,1
DA:285,1
DA:289,1
DA:290,1
DA:292,1
DA:294,1
DA:295,1
BRF:0
BRH:0
LF:148
LH:135
end_of_record
SF:/Users/solovey/Documents/dev/rusty_intervals_mcp/crates/intervals_icu_mcp/src/engines/analysis.rs
FN:1298,_RNCNvNtNtNtCsgTXWXfwjzne_17intervals_icu_mcp7engines8analysis5testss_31test_workout_insights_low_grade0B9_
FN:673,_RNCNvNtNtNtCsgTXWXfwjzne_17intervals_icu_mcp7engines8analysis5testss_32test_workout_insights_generation0B9_
FN:1230,_RNCNvNtNtNtCsgTXWXfwjzne_17intervals_icu_mcp7engines8analysis5testss_35test_workout_insights_high_hr_drift0B9_
FN:1248,_RNCNvNtNtNtCsgTXWXfwjzne_17intervals_icu_mcp7engines8analysis5testss_39test_workout_insights_moderate_hr_drift0B9_
FN:1266,_RNCNvNtNtNtCsgTXWXfwjzne_17intervals_icu_mcp7engines8analysis5testss_40test_workout_insights_high_pace_variance0B9_
FN:1284,_RNCNvNtNtNtCsgTXWXfwjzne_17intervals_icu_mcp7engines8analysis5testss_43test_workout_insights_good_pace_consistency0B9_
FN:384,_RNvMs0_NtNtCsgTXWXfwjzne_17intervals_icu_mcp7engines8analysisNtB5_15WorkoutInsights8generate
FN:277,_RNvMs_NtNtCsgTXWXfwjzne_17intervals_icu_mcp7engines8analysisNtB4_14AnalysisEngine13analyze_trend
FN:140,_RNvMs_NtNtCsgTXWXfwjzne_17intervals_icu_mcp7engines8analysisNtB4_14AnalysisEngine13grade_workout
FN:197,_RNvMs_NtNtCsgTXWXfwjzne_17intervals_icu_mcp7engines8analysisNtB4_14AnalysisEngine15compare_periods
FN:330,_RNvMs_NtNtCsgTXWXfwjzne_17intervals_icu_mcp7engines8analysisNtB4_14AnalysisEngine17linear_regression
FN:356,_RNvMs_NtNtCsgTXWXfwjzne_17intervals_icu_mcp7engines8analysisNtB4_14AnalysisEngine17trend_description
FN:177,_RNvMs_NtNtCsgTXWXfwjzne_17intervals_icu_mcp7engines8analysisNtB4_14AnalysisEngine18calculate_hr_drift
FN:321,_RNvMs_NtNtCsgTXWXfwjzne_17intervals_icu_mcp7engines8analysisNtB4_14AnalysisEngine19calc_percent_change
FN:185,_RNvMs_NtNtCsgTXWXfwjzne_17intervals_icu_mcp7engines8analysisNtB4_14AnalysisEngine23calculate_pace_variance
FN:572,_RNvNtNtNtCsgTXWXfwjzne_17intervals_icu_mcp7engines8analysis5testss_18test_pace_variance
FN:466,_RNvNtNtNtCsgTXWXfwjzne_17intervals_icu_mcp7engines8analysis5testss_19test_percent_change
FN:475,_RNvNtNtNtCsgTXWXfwjzne_17intervals_icu_mcp7engines8analysis5testss_19test_trend_analysis
FN:433,_RNvNtNtNtCsgTXWXfwjzne_17intervals_icu_mcp7engines8analysis5testss_20test_workout_grading
FN:614,_RNvNtNtNtCsgTXWXfwjzne_17intervals_icu_mcp7engines8analysis5testss_21test_trend_directions
FN:693,_RNvNtNtNtCsgTXWXfwjzne_17intervals_icu_mcp7engines8analysis5testss_24test_analysis_type_clone
FN:700,_RNvNtNtNtCsgTXWXfwjzne_17intervals_icu_mcp7engines8analysis5testss_24test_analysis_type_debug
FN:874,_RNvNtNtNtCsgTXWXfwjzne_17intervals_icu_mcp7engines8analysis5testss_24test_trend_insight_clone
FN:890,_RNvNtNtNtCsgTXWXfwjzne_17intervals_icu_mcp7engines8analysis5testss_24test_trend_insight_debug
FN:799,_RNvNtNtNtCsgTXWXfwjzne_17intervals_icu_mcp7engines8analysis5testss_24test_workout_grade_clone
FN:806,_RNvNtNtNtCsgTXWXfwjzne_17intervals_icu_mcp7engines8analysis5testss_24test_workout_grade_debug
FN:459,_RNvNtNtNtCsgTXWXfwjzne_17intervals_icu_mcp7engines8analysis5testss_25test_hr_drift_calculation
FN:1171,_RNvNtNtNtCsgTXWXfwjzne_17intervals_icu_mcp7engines8analysis5testss_25test_period_summary_clone
FN:1189,_RNvNtNtNtCsgTXWXfwjzne_17intervals_icu_mcp7engines8analysis5testss_25test_period_summary_debug
FN:1110,_RNvNtNtNtCsgTXWXfwjzne_17intervals_icu_mcp7engines8analysis5testss_26test_period_analysis_clone
FN:1136,_RNvNtNtNtCsgTXWXfwjzne_17intervals_icu_mcp7engines8analysis5testss_26test_period_analysis_debug
FN:945,_RNvNtNtNtCsgTXWXfwjzne_17intervals_icu_mcp7engines8analysis5testss_26test_trend_direction_clone
FN:952,_RNvNtNtNtCsgTXWXfwjzne_17intervals_icu_mcp7engines8analysis5testss_26test_trend_direction_debug
FN:727,_RNvNtNtNtCsgTXWXfwjzne_17intervals_icu_mcp7engines8analysis5testss_26test_workout_metrics_clone
FN:763,_RNvNtNtNtCsgTXWXfwjzne_17intervals_icu_mcp7engines8analysis5testss_26test_workout_metrics_debug
FN:856,_RNvNtNtNtCsgTXWXfwjzne_17intervals_icu_mcp7engines8analysis5testss_26test_zone_distribution_sum
FN:682,_RNvNtNtNtCsgTXWXfwjzne_17intervals_icu_mcp7engines8analysis5testss_27test_analysis_type_variants
FN:1159,_RNvNtNtNtCsgTXWXfwjzne_17intervals_icu_mcp7engines8analysis5testss_27test_period_summary_default
FN:1072,_RNvNtNtNtCsgTXWXfwjzne_17intervals_icu_mcp7engines8analysis5testss_27test_workout_analysis_clone
FN:1091,_RNvNtNtNtCsgTXWXfwjzne_17intervals_icu_mcp7engines8analysis5testss_27test_workout_analysis_debug
FN:813,_RNvNtNtNtCsgTXWXfwjzne_17intervals_icu_mcp7engines8analysis5testss_27test_workout_grade_equality
FN:970,_RNvNtNtNtCsgTXWXfwjzne_17intervals_icu_mcp7engines8analysis5testss_28test_metric_comparison_clone
FN:988,_RNvNtNtNtCsgTXWXfwjzne_17intervals_icu_mcp7engines8analysis5testss_28test_metric_comparison_debug
FN:1204,_RNvNtNtNtCsgTXWXfwjzne_17intervals_icu_mcp7engines8analysis5testss_28test_trend_windows_constants
FN:549,_RNvNtNtNtCsgTXWXfwjzne_17intervals_icu_mcp7engines8analysis5testss_28test_workout_grading_no_plan
FN:711,_RNvNtNtNtCsgTXWXfwjzne_17intervals_icu_mcp7engines8analysis5testss_28test_workout_metrics_default
FN:825,_RNvNtNtNtCsgTXWXfwjzne_17intervals_icu_mcp7engines8analysis5testss_28test_zone_distribution_clone
FN:843,_RNvNtNtNtCsgTXWXfwjzne_17intervals_icu_mcp7engines8analysis5testss_28test_zone_distribution_debug
FN:587,_RNvNtNtNtCsgTXWXfwjzne_17intervals_icu_mcp7engines8analysis5testss_29test_like_for_like_comparison
FN:959,_RNvNtNtNtCsgTXWXfwjzne_17intervals_icu_mcp7engines8analysis5testss_29test_trend_direction_equality
FN:778,_RNvNtNtNtCsgTXWXfwjzne_17intervals_icu_mcp7engines8analysis5testss_31test_workout_grade_all_variants
FN:491,_RNvNtNtNtCsgTXWXfwjzne_17intervals_icu_mcp7engines8analysis5testss_31test_workout_grading_all_grades
FN:1289,_RNvNtNtNtCsgTXWXfwjzne_17intervals_icu_mcp7engines8analysis5testss_31test_workout_insights_low_grade
FN:659,_RNvNtNtNtCsgTXWXfwjzne_17intervals_icu_mcp7engines8analysis5testss_32test_workout_insights_generation
FN:1303,_RNvNtNtNtCsgTXWXfwjzne_17intervals_icu_mcp7engines8analysis5testss_32test_workout_insights_no_metrics
FN:934,_RNvNtNtNtCsgTXWXfwjzne_17intervals_icu_mcp7engines8analysis5testss_33test_trend_direction_all_variants
FN:1020,_RNvNtNtNtCsgTXWXfwjzne_17intervals_icu_mcp7engines8analysis5testss_35test_like_for_like_comparison_clone
FN:1042,_RNvNtNtNtCsgTXWXfwjzne_17intervals_icu_mcp7engines8analysis5testss_35test_like_for_like_comparison_debug
FN:1217,_RNvNtNtNtCsgTXWXfwjzne_17intervals_icu_mcp7engines8analysis5testss_35test_workout_insights_high_hr_drift
FN:750,_RNvNtNtNtCsgTXWXfwjzne_17intervals_icu_mcp7engines8analysis5testss_35test_workout_metrics_partial_fields
FN:1002,_RNvNtNtNtCsgTXWXfwjzne_17intervals_icu_mcp7engines8analysis5testss_37test_metric_comparison_negative_delta
FN:903,_RNvNtNtNtCsgTXWXfwjzne_17intervals_icu_mcp7engines8analysis5testss_38test_trend_insight_with_all_directions
FN:1235,_RNvNtNtNtCsgTXWXfwjzne_17intervals_icu_mcp7engines8analysis5testss_39test_workout_insights_moderate_hr_drift
FN:1253,_RNvNtNtNtCsgTXWXfwjzne_17intervals_icu_mcp7engines8analysis5testss_40test_workout_insights_high_pace_variance
FN:1055,_RNvNtNtNtCsgTXWXfwjzne_17intervals_icu_mcp7engines8analysis5testss_43test_like_for_like_comparison_empty_metrics
FN:1271,_RNvNtNtNtCsgTXWXfwjzne_17intervals_icu_mcp7engines8analysis5testss_43test_workout_insights_good_pace_consistency
FN:291,_RNCNvMs_NtNtCsgTXWXfwjzne_17intervals_icu_mcp7engines8analysisNtB6_14AnalysisEngine13analyze_trend0Ba_
FN:299,_RNCNvMs_NtNtCsgTXWXfwjzne_17intervals_icu_mcp7engines8analysisNtB6_14AnalysisEngine13analyze_trends_0Ba_
FN:191,_RNCNvMs_NtNtCsgTXWXfwjzne_17intervals_icu_mcp7engines8analysisNtB6_14AnalysisEngine23calculate_pace_variance0Ba_
FNDA:1,_RNCNvNtNtNtCsgTXWXfwjzne_17intervals_icu_mcp7engines8analysis5testss_31test_workout_insights_low_grade0B9_
FNDA:1,_RNCNvNtNtNtCsgTXWXfwjzne_17intervals_icu_mcp7engines8analysis5testss_32test_workout_insights_generation0B9_
FNDA:1,_RNCNvNtNtNtCsgTXWXfwjzne_17intervals_icu_mcp7engines8analysis5testss_35test_workout_insights_high_hr_drift0B9_
FNDA:1,_RNCNvNtNtNtCsgTXWXfwjzne_17intervals_icu_mcp7engines8analysis5testss_39test_workout_insights_moderate_hr_drift0B9_
FNDA:1,_RNCNvNtNtNtCsgTXWXfwjzne_17intervals_icu_mcp7engines8analysis5testss_40test_workout_insights_high_pace_variance0B9_
FNDA:1,_RNCNvNtNtNtCsgTXWXfwjzne_17intervals_icu_mcp7engines8analysis5testss_43test_workout_insights_good_pace_consistency0B9_
FNDA:7,_RNvMs0_NtNtCsgTXWXfwjzne_17intervals_icu_mcp7engines8analysisNtB5_15WorkoutInsights8generate
FNDA:4,_RNvMs_NtNtCsgTXWXfwjzne_17intervals_icu_mcp7engines8analysisNtB4_14AnalysisEngine13analyze_trend
FNDA:9,_RNvMs_NtNtCsgTXWXfwjzne_17intervals_icu_mcp7engines8analysisNtB4_14AnalysisEngine13grade_workout
FNDA:1,_RNvMs_NtNtCsgTXWXfwjzne_17intervals_icu_mcp7engines8analysisNtB4_14AnalysisEngine15compare_periods
FNDA:4,_RNvMs_NtNtCsgTXWXfwjzne_17intervals_icu_mcp7engines8analysisNtB4_14AnalysisEngine17linear_regression
FNDA:4,_RNvMs_NtNtCsgTXWXfwjzne_17intervals_icu_mcp7engines8analysisNtB4_14AnalysisEngine17trend_description
FNDA:1,_RNvMs_NtNtCsgTXWXfwjzne_17intervals_icu_mcp7engines8analysisNtB4_14AnalysisEngine18calculate_hr_drift
FNDA:7,_RNvMs_NtNtCsgTXWXfwjzne_17intervals_icu_mcp7engines8analysisNtB4_14AnalysisEngine19calc_percent_change
FNDA:3,_RNvMs_NtNtCsgTXWXfwjzne_17intervals_icu_mcp7engines8analysisNtB4_14AnalysisEngine23calculate_pace_variance
FNDA:1,_RNvNtNtNtCsgTXWXfwjzne_17intervals_icu_mcp7engines8analysis5testss_18test_pace_variance
FNDA:1,_RNvNtNtNtCsgTXWXfwjzne_17intervals_icu_mcp7engines8analysis5testss_19test_percent_change
FNDA:1,_RNvNtNtNtCsgTXWXfwjzne_17intervals_icu_mcp7engines8analysis5testss_19test_trend_analysis
FNDA:1,_RNvNtNtNtCsgTXWXfwjzne_17intervals_icu_mcp7engines8analysis5testss_20test_workout_grading
FNDA:1,_RNvNtNtNtCsgTXWXfwjzne_17intervals_icu_mcp7engines8analysis5testss_21test_trend_directions
FNDA:1,_RNvNtNtNtCsgTXWXfwjzne_17intervals_icu_mcp7engines8analysis5testss_24test_analysis_type_clone
FNDA:1,_RNvNtNtNtCsgTXWXfwjzne_17intervals_icu_mcp7engines8analysis5testss_24test_analysis_type_debug
FNDA:1,_RNvNtNtNtCsgTXWXfwjzne_17intervals_icu_mcp7engines8analysis5testss_24test_trend_insight_clone
FNDA:1,_RNvNtNtNtCsgTXWXfwjzne_17intervals_icu_mcp7engines8analysis5testss_24test_trend_insight_debug
FNDA:1,_RNvNtNtNtCsgTXWXfwjzne_17intervals_icu_mcp7engines8analysis5testss_24test_workout_grade_clone
FNDA:1,_RNvNtNtNtCsgTXWXfwjzne_17intervals_icu_mcp7engines8analysis5testss_24test_workout_grade_debug
FNDA:1,_RNvNtNtNtCsgTXWXfwjzne_17intervals_icu_mcp7engines8analysis5testss_25test_hr_drift_calculation
FNDA:1,_RNvNtNtNtCsgTXWXfwjzne_17intervals_icu_mcp7engines8analysis5testss_25test_period_summary_clone
FNDA:1,_RNvNtNtNtCsgTXWXfwjzne_17intervals_icu_mcp7engines8analysis5testss_25test_period_summary_debug
FNDA:1,_RNvNtNtNtCsgTXWXfwjzne_17intervals_icu_mcp7engines8analysis5testss_26test_period_analysis_clone
FNDA:1,_RNvNtNtNtCsgTXWXfwjzne_17intervals_icu_mcp7engines8analysis5testss_26test_period_analysis_debug
FNDA:1,_RNvNtNtNtCsgTXWXfwjzne_17intervals_icu_mcp7engines8analysis5testss_26test_trend_direction_clone
FNDA:1,_RNvNtNtNtCsgTXWXfwjzne_17intervals_icu_mcp7engines8analysis5testss_26test_trend_direction_debug
FNDA:1,_RNvNtNtNtCsgTXWXfwjzne_17intervals_icu_mcp7engines8analysis5testss_26test_workout_metrics_clone
FNDA:1,_RNvNtNtNtCsgTXWXfwjzne_17intervals_icu_mcp7engines8analysis5testss_26test_workout_metrics_debug
FNDA:1,_RNvNtNtNtCsgTXWXfwjzne_17intervals_icu_mcp7engines8analysis5testss_26test_zone_distribution_sum
FNDA:1,_RNvNtNtNtCsgTXWXfwjzne_17intervals_icu_mcp7engines8analysis5testss_27test_analysis_type_variants
FNDA:1,_RNvNtNtNtCsgTXWXfwjzne_17intervals_icu_mcp7engines8analysis5testss_27test_period_summary_default
FNDA:1,_RNvNtNtNtCsgTXWXfwjzne_17intervals_icu_mcp7engines8analysis5testss_27test_workout_analysis_clone
FNDA:1,_RNvNtNtNtCsgTXWXfwjzne_17intervals_icu_mcp7engines8analysis5testss_27test_workout_analysis_debug
FNDA:1,_RNvNtNtNtCsgTXWXfwjzne_17intervals_icu_mcp7engines8analysis5testss_27test_workout_grade_equality
FNDA:1,_RNvNtNtNtCsgTXWXfwjzne_17intervals_icu_mcp7engines8analysis5testss_28test_metric_comparison_clone
FNDA:1,_RNvNtNtNtCsgTXWXfwjzne_17intervals_icu_mcp7engines8analysis5testss_28test_metric_comparison_debug
FNDA:1,_RNvNtNtNtCsgTXWXfwjzne_17intervals_icu_mcp7engines8analysis5testss_28test_trend_windows_constants
FNDA:1,_RNvNtNtNtCsgTXWXfwjzne_17intervals_icu_mcp7engines8analysis5testss_28test_workout_grading_no_plan
FNDA:1,_RNvNtNtNtCsgTXWXfwjzne_17intervals_icu_mcp7engines8analysis5testss_28test_workout_metrics_default
FNDA:1,_RNvNtNtNtCsgTXWXfwjzne_17intervals_icu_mcp7engines8analysis5testss_28test_zone_distribution_clone
FNDA:1,_RNvNtNtNtCsgTXWXfwjzne_17intervals_icu_mcp7engines8analysis5testss_28test_zone_distribution_debug
FNDA:1,_RNvNtNtNtCsgTXWXfwjzne_17intervals_icu_mcp7engines8analysis5testss_29test_like_for_like_comparison
FNDA:1,_RNvNtNtNtCsgTXWXfwjzne_17intervals_icu_mcp7engines8analysis5testss_29test_trend_direction_equality
FNDA:1,_RNvNtNtNtCsgTXWXfwjzne_17intervals_icu_mcp7engines8analysis5testss_31test_workout_grade_all_variants
FNDA:1,_RNvNtNtNtCsgTXWXfwjzne_17intervals_icu_mcp7engines8analysis5testss_31test_workout_grading_all_grades
FNDA:1,_RNvNtNtNtCsgTXWXfwjzne_17intervals_icu_mcp7engines8analysis5testss_31test_workout_insights_low_grade
FNDA:1,_RNvNtNtNtCsgTXWXfwjzne_17intervals_icu_mcp7engines8analysis5testss_32test_workout_insights_generation
FNDA:1,_RNvNtNtNtCsgTXWXfwjzne_17intervals_icu_mcp7engines8analysis5testss_32test_workout_insights_no_metrics
FNDA:1,_RNvNtNtNtCsgTXWXfwjzne_17intervals_icu_mcp7engines8analysis5testss_33test_trend_direction_all_variants
FNDA:1,_RNvNtNtNtCsgTXWXfwjzne_17intervals_icu_mcp7engines8analysis5testss_35test_like_for_like_comparison_clone
FNDA:1,_RNvNtNtNtCsgTXWXfwjzne_17intervals_icu_mcp7engines8analysis5testss_35test_like_for_like_comparison_debug
FNDA:1,_RNvNtNtNtCsgTXWXfwjzne_17intervals_icu_mcp7engines8analysis5testss_35test_workout_insights_high_hr_drift
FNDA:1,_RNvNtNtNtCsgTXWXfwjzne_17intervals_icu_mcp7engines8analysis5testss_35test_workout_metrics_partial_fields
FNDA:1,_RNvNtNtNtCsgTXWXfwjzne_17intervals_icu_mcp7engines8analysis5testss_37test_metric_comparison_negative_delta
FNDA:1,_RNvNtNtNtCsgTXWXfwjzne_17intervals_icu_mcp7engines8analysis5testss_38test_trend_insight_with_all_directions
FNDA:1,_RNvNtNtNtCsgTXWXfwjzne_17intervals_icu_mcp7engines8analysis5testss_39test_workout_insights_moderate_hr_drift
FNDA:1,_RNvNtNtNtCsgTXWXfwjzne_17intervals_icu_mcp7engines8analysis5testss_40test_workout_insights_high_pace_variance
FNDA:1,_RNvNtNtNtCsgTXWXfwjzne_17intervals_icu_mcp7engines8analysis5testss_43test_like_for_like_comparison_empty_metrics
FNDA:1,_RNvNtNtNtCsgTXWXfwjzne_17intervals_icu_mcp7engines8analysis5testss_43test_workout_insights_good_pace_consistency
FNDA:16,_RNCNvMs_NtNtCsgTXWXfwjzne_17intervals_icu_mcp7engines8analysisNtB6_14AnalysisEngine13analyze_trend0Ba_
FNDA:16,_RNCNvMs_NtNtCsgTXWXfwjzne_17intervals_icu_mcp7engines8analysisNtB6_14AnalysisEngine13analyze_trends_0Ba_
FNDA:10,_RNCNvMs_NtNtCsgTXWXfwjzne_17intervals_icu_mcp7engines8analysisNtB6_14AnalysisEngine23calculate_pace_variance0Ba_
FNF:69
FNH:69
DA:140,9
DA:141,9
DA:142,9
DA:143,9
DA:144,9
DA:145,7
DA:146,7
DA:147,7
DA:149,7
DA:150,2
DA:151,5
DA:152,2
DA:153,3
DA:154,1
DA:155,2
DA:156,1
DA:158,1
DA:162,2
DA:163,2
DA:164,1
DA:165,1
DA:166,1
DA:168,0
DA:171,0
DA:174,9
DA:177,1
DA:178,1
DA:179,0
DA:180,1
DA:181,1
DA:182,1
DA:185,3
DA:186,3
DA:187,1
DA:188,2
DA:190,2
DA:191,10
DA:193,2
DA:194,3
DA:197,1
DA:198,1
DA:199,1
DA:200,1
DA:201,1
DA:202,1
DA:204,1
DA:205,1
DA:206,1
DA:207,1
DA:208,1
DA:209,1
DA:210,1
DA:211,1
DA:212,1
DA:213,1
DA:216,1
DA:217,1
DA:218,1
DA:219,1
DA:220,1
DA:221,1
DA:222,1
DA:223,1
DA:224,1
DA:225,1
DA:228,1
DA:229,1
DA:230,1
DA:231,1
DA:232,1
DA:233,1
DA:234,1
DA:235,1
DA:236,1
DA:237,1
DA:240,1
DA:241,1
DA:242,1
DA:243,1
DA:244,1
DA:245,1
DA:246,1
DA:249,1
DA:250,1
DA:251,1
DA:252,0
DA:256,1
DA:257,1
DA:262,0
DA:264,0
DA:268,1
DA:269,1
DA:270,1
DA:271,1
DA:272,1
DA:273,1
DA:274,1
DA:277,4
DA:278,4
DA:279,4
DA:280,4
DA:281,4
DA:282,4
DA:283,0
DA:284,4
DA:286,4
DA:287,4
DA:289,4
DA:290,4
DA:291,16
DA:292,4
DA:294,4
DA:295,0
DA:296,4
DA:299,16
DA:300,4
DA:302,4
DA:303,2
DA:304,2
DA:305,1
DA:307,1
DA:310,4
DA:312,4
DA:313,4
DA:314,4
DA:315,4
DA:316,4
DA:317,4
DA:318,4
DA:321,7
DA:322,7
DA:323,0
DA:325,7
DA:327,7
DA:330,4
DA:331,4
DA:332,4
DA:333,0
DA:334,4
DA:336,4
DA:337,4
DA:338,4
DA:339,4
DA:341,16
DA:342,16
DA:343,16
DA:344,16
DA:345,16
DA:346,16
DA:347,16
DA:349,4
DA:350,4
DA:352,4
DA:353,4
DA:356,4
DA:357,4
DA:359,2
DA:362,2
DA:366,1
DA:369,1
DA:373,1
DA:376,4
DA:384,7
DA:385,7
DA:388,7
DA:389,3
DA:390,1
DA:391,1
DA:392,2
DA:393,1
DA:394,1
DA:395,1
DA:396,1
DA:397,4
DA:400,7
DA:401,3
DA:402,1
DA:403,2
DA:404,2
DA:405,2
DA:406,4
DA:409,7
DA:410,1
DA:411,1
DA:412,1
DA:413,4
DA:414,4
DA:415,4
DA:416,1
DA:417,1
DA:418,1
DA:419,1
DA:420,1
DA:421,1
DA:424,7
DA:425,7
DA:433,1
DA:434,1
DA:435,1
DA:436,1
DA:437,1
DA:439,1
DA:440,1
DA:441,1
DA:442,1
DA:443,1
DA:444,1
DA:448,1
DA:449,1
DA:450,1
DA:451,1
DA:452,1
DA:453,1
DA:456,1
DA:459,1
DA:460,1
DA:461,1
DA:462,1
DA:463,1
DA:466,1
DA:467,1
DA:468,1
DA:470,1
DA:471,1
DA:472,1
DA:475,1
DA:476,1
DA:477,1
DA:478,1
DA:479,1
DA:480,1
DA:481,1
DA:484,1
DA:485,1
DA:486,1
DA:487,1
DA:488,1
DA:491,1
DA:492,1
DA:493,1
DA:494,1
DA:495,1
DA:498,1
DA:499,1
DA:500,1
DA:501,1
DA:502,1
DA:503,1
DA:508,1
DA:509,1
DA:510,1
DA:511,1
DA:512,1
DA:513,1
DA:518,1
DA:519,1
DA:520,1
DA:521,1
DA:522,1
DA:523,1
DA:528,1
DA:529,1
DA:530,1
DA:531,1
DA:532,1
DA:533,1
DA:538,1
DA:539,1
DA:540,1
DA:541,1
DA:542,1
DA:543,1
DA:546,1
DA:549,1
DA:550,1
DA:551,1
DA:552,1
DA:553,1
DA:554,1
DA:555,1
DA:556,1
DA:560,1
DA:561,1
DA:562,1
DA:563,1
DA:564,1
DA:565,1
DA:566,1
DA:569,1
DA:572,1
DA:573,1
DA:574,1
DA:575,1
DA:577,1
DA:578,1
DA:579,1
DA:581,1
DA:582,1
DA:583,1
DA:584,1
DA:587,1
DA:588,1
DA:589,1
DA:590,1
DA:591,1
DA:592,1
DA:593,1
DA:594,1
DA:596,1
DA:597,1
DA:598,1
DA:599,1
DA:600,1
DA:601,1
DA:602,1
DA:604,1
DA:605,1
DA:607,1
DA:608,1
DA:609,1
DA:610,1
DA:611,1
DA:614,1
DA:618,1
DA:619,1
DA:620,1
DA:621,1
DA:622,1
DA:623,1
DA:625,1
DA:626,1
DA:627,1
DA:628,1
DA:633,1
DA:634,1
DA:635,1
DA:636,1
DA:637,1
DA:639,1
DA:640,1
DA:641,1
DA:642,1
DA:647,1
DA:648,1
DA:649,1
DA:650,1
DA:651,1
DA:653,1
DA:654,1
DA:655,1
DA:656,1
DA:659,1
DA:660,1
DA:661,1
DA:662,1
DA:663,1
DA:664,1
DA:665,1
DA:666,1
DA:668,1
DA:669,1
DA:670,1
DA:671,1
DA:672,1
DA:673,1
DA:675,1
DA:682,1
DA:683,1
DA:684,1
DA:685,1
DA:686,1
DA:688,1
DA:689,1
DA:690,1
DA:693,1
DA:694,1
DA:695,1
DA:696,1
DA:697,1
DA:700,1
DA:701,1
DA:702,1
DA:703,1
DA:704,1
DA:711,1
DA:712,1
DA:713,1
DA:714,1
DA:715,1
DA:716,1
DA:717,1
DA:718,1
DA:719,1
DA:720,1
DA:721,1
DA:722,1
DA:723,1
DA:724,1
DA:727,1
DA:728,1
DA:729,1
DA:730,1
DA:731,1
DA:732,1
DA:733,1
DA:734,1
DA:735,1
DA:736,1
DA:737,1
DA:738,1
DA:739,1
DA:740,1
DA:741,1
DA:743,1
DA:744,1
DA:745,1
DA:746,1
DA:747,1
DA:750,1
DA:751,1
DA:752,1
DA:753,1
DA:754,1
DA:755,1
DA:757,1
DA:758,1
DA:759,1
DA:760,1
DA:763,1
DA:764,1
DA:765,1
DA:766,1
DA:767,1
DA:768,1
DA:769,1
DA:770,1
DA:771,1
DA:778,1
DA:779,1
DA:780,1
DA:781,1
DA:782,1
DA:783,1
DA:784,1
DA:785,1
DA:787,5
DA:788,25
DA:789,25
DA:790,5
DA:792,20
DA:796,1
DA:799,1
DA:800,1
DA:801,1
DA:802,1
DA:803,1
DA:806,1
DA:807,1
DA:808,1
DA:809,1
DA:810,1
DA:813,1
DA:814,1
DA:815,1
DA:816,1
DA:817,1
DA:818,1
DA:825,1
DA:826,1
DA:827,1
DA:828,1
DA:829,1
DA:830,1
DA:831,1
DA:832,1
DA:833,1
DA:835,1
DA:836,1
DA:837,1
DA:838,1
DA:839,1
DA:840,1
DA:843,1
DA:844,1
DA:845,1
DA:846,1
DA:847,1
DA:848,1
DA:849,1
DA:850,1
DA:851,1
DA:852,1
DA:853,1
DA:856,1
DA:857,1
DA:858,1
DA:859,1
DA:860,1
DA:861,1
DA:862,1
DA:863,1
DA:864,1
DA:865,1
DA:866,1
DA:867,1
DA:874,1
DA:875,1
DA:876,1
DA:877,1
DA:878,1
DA:879,1
DA:880,1
DA:881,1
DA:883,1
DA:884,1
DA:885,1
DA:886,1
DA:887,1
DA:890,1
DA:891,1
DA:892,1
DA:893,1
DA:894,1
DA:895,1
DA:896,1
DA:897,1
DA:898,1
DA:899,1
DA:900,1
DA:903,1
DA:904,1
DA:905,1
DA:906,1
DA:907,1
DA:908,1
DA:909,1
DA:911,1
DA:912,1
DA:913,1
DA:914,1
DA:915,1
DA:916,1
DA:917,1
DA:918,1
DA:919,1
DA:920,1
DA:921,1
DA:922,1
DA:924,1
DA:925,1
DA:926,1
DA:927,1
DA:934,1
DA:935,1
DA:936,1
DA:937,1
DA:939,1
DA:940,1
DA:941,1
DA:942,1
DA:945,1
DA:946,1
DA:947,1
DA:948,1
DA:949,1
DA:952,1
DA:953,1
DA:954,1
DA:955,1
DA:956,1
DA:959,1
DA:960,1
DA:961,1
DA:962,1
DA:963,1
DA:970,1
DA:971,1
DA:972,1
DA:973,1
DA:974,1
DA:975,1
DA:976,1
DA:977,1
DA:978,1
DA:980,1
DA:981,1
DA:982,1
DA:983,1
DA:984,1
DA:985,1
DA:988,1
DA:989,1
DA:990,1
DA:991,1
DA:992,1
DA:993,1
DA:994,1
DA:995,1
DA:996,1
DA:997,1
DA:998,1
DA:999,1
DA:1002,1
DA:1003,1
DA:1004,1
DA:1005,1
DA:1006,1
DA:1007,1
DA:1008,1
DA:1009,1
DA:1011,1
DA:1012,1
DA:1013,1
DA:1020,1
DA:1021,1
DA:1022,1
DA:1023,1
DA:1024,1
DA:1025,1
DA:1026,1
DA:1027,1
DA:1028,1
DA:1029,1
DA:1030,1
DA:1031,1
DA:1032,1
DA:1033,1
DA:1035,1
DA:1036,1
DA:1037,1
DA:1038,1
DA:1039,1
DA:1042,1
DA:1043,1
DA:1044,1
DA:1045,1
DA:1046,1
DA:1047,1
DA:1048,1
DA:1049,1
DA:1050,1
DA:1051,1
DA:1052,1
DA:1055,1
DA:1056,1
DA:1057,1
DA:1058,1
DA:1059,1
DA:1060,1
DA:1061,1
DA:1063,1
DA:1064,1
DA:1065,1
DA:1072,1
DA:1073,1
DA:1074,1
DA:1075,1
DA:1076,1
DA:1077,1
DA:1078,1
DA:1079,1
DA:1080,1
DA:1081,1
DA:1083,1
DA:1084,1
DA:1085,1
DA:1086,1
DA:1087,1
DA:1088,1
DA:1091,1
DA:1092,1
DA:1093,1
DA:1094,1
DA:1095,1
DA:1096,1
DA:1097,1
DA:1098,1
DA:1099,1
DA:1100,1
DA:1101,1
DA:1102,1
DA:1103,1
DA:1110,1
DA:1111,1
DA:1112,1
DA:1113,1
DA:1114,1
DA:1115,1
DA:1116,1
DA:1117,1
DA:1118,1
DA:1119,1
DA:1120,1
DA:1121,1
DA:1122,1
DA:1123,1
DA:1124,1
DA:1126,1
DA:1127,1
DA:1128,1
DA:1132,1
DA:1133,1
DA:1136,1
DA:1137,1
DA:1138,1
DA:1139,1
DA:1140,1
DA:1141,1
DA:1142,1
DA:1143,1
DA:1144,1
DA:1145,1
DA:1146,1
DA:1147,1
DA:1148,1
DA:1149,1
DA:1150,1
DA:1151,1
DA:1152,1
DA:1159,1
DA:1160,1
DA:1161,1
DA:1162,1
DA:1163,1
DA:1164,1
DA:1165,1
DA:1166,1
DA:1167,1
DA:1168,1
DA:1171,1
DA:1172,1
DA:1173,1
DA:1174,1
DA:1175,1
DA:1176,1
DA:1177,1
DA:1178,1
DA:1179,1
DA:1180,1
DA:1181,1
DA:1183,1
DA:1184,1
DA:1185,1
DA:1186,1
DA:1189,1
DA:1190,1
DA:1191,1
DA:1192,1
DA:1193,1
DA:1194,1
DA:1195,1
DA:1196,1
DA:1197,1
DA:1204,1
DA:1206,1
DA:1207,1
DA:1208,1
DA:1209,1
DA:1210,1
DA:1217,1
DA:1218,1
DA:1219,1
DA:1220,1
DA:1221,1
DA:1222,1
DA:1223,1
DA:1225,1
DA:1226,1
DA:1227,1
DA:1228,1
DA:1229,1
DA:1230,1
DA:1232,1
DA:1235,1
DA:1236,1
DA:1237,1
DA:1238,1
DA:1239,1
DA:1240,1
DA:1241,1
DA:1243,1
DA:1244,1
DA:1245,1
DA:1246,1
DA:1247,1
DA:1248,1
DA:1250,1
DA:1253,1
DA:1254,1
DA:1255,1
DA:1256,1
DA:1257,1
DA:1258,1
DA:1259,1
DA:1261,1
DA:1262,1
DA:1263,1
DA:1264,1
DA:1265,1
DA:1266,1
DA:1268,1
DA:1271,1
DA:1272,1
DA:1273,1
DA:1274,1
DA:1275,1
DA:1276,1
DA:1277,1
DA:1279,1
DA:1280,1
DA:1281,1
DA:1282,1
DA:1283,1
DA:1284,1
DA:1286,1
DA:1289,1
DA:1290,1
DA:1291,1
DA:1293,1
DA:1294,1
DA:1295,1
DA:1296,1
DA:1297,1
DA:1298,1
DA:1300,1
DA:1303,1
DA:1304,1
DA:1305,1
DA:1307,1
DA:1308,1
DA:1309,1
BRF:0
BRH:0
LF:840
LH:830
end_of_record
SF:/Users/solovey/Documents/dev/rusty_intervals_mcp/crates/intervals_icu_mcp/src/engines/analysis_audit.rs
FN:5,_RNvNtNtCsgTXWXfwjzne_17intervals_icu_mcp7engines14analysis_audit16build_data_audit
FN:64,_RNvNtNtCsgTXWXfwjzne_17intervals_icu_mcp7engines14analysis_audit19payload_has_entries
FN:50,_RNvNtNtCsgTXWXfwjzne_17intervals_icu_mcp7engines14analysis_audit26fitness_payload_has_signal
FN:54,_RNCNCNvNtNtCsgTXWXfwjzne_17intervals_icu_mcp7engines14analysis_audit26fitness_payload_has_signal00B9_
FN:9,_RNCNvNtNtCsgTXWXfwjzne_17intervals_icu_mcp7engines14analysis_audit16build_data_audit0B7_
FN:10,_RNCNvNtNtCsgTXWXfwjzne_17intervals_icu_mcp7engines14analysis_audit16build_data_audits_0B7_
FN:65,_RNCNvNtNtCsgTXWXfwjzne_17intervals_icu_mcp7engines14analysis_audit19payload_has_entries0B7_
FN:54,_RNCNvNtNtCsgTXWXfwjzne_17intervals_icu_mcp7engines14analysis_audit26fitness_payload_has_signal0B7_
FN:185,_RNvNtNtNtCsgTXWXfwjzne_17intervals_icu_mcp7engines14analysis_audit5testss_28audit_fitness_array_all_null
FN:243,_RNvNtNtNtCsgTXWXfwjzne_17intervals_icu_mcp7engines14analysis_audit5testss_31audit_detects_streams_available
FN:171,_RNvNtNtNtCsgTXWXfwjzne_17intervals_icu_mcp7engines14analysis_audit5testss_31audit_fitness_array_with_signal
FN:376,_RNvNtNtNtCsgTXWXfwjzne_17intervals_icu_mcp7engines14analysis_audit5testss_32audit_full_data_no_degraded_mode
FN:210,_RNvNtNtNtCsgTXWXfwjzne_17intervals_icu_mcp7engines14analysis_audit5testss_33audit_detects_intervals_available
FN:113,_RNvNtNtNtCsgTXWXfwjzne_17intervals_icu_mcp7engines14analysis_audit5testss_37audit_detects_wellness_data_available
FN:449,_RNvNtNtNtCsgTXWXfwjzne_17intervals_icu_mcp7engines14analysis_audit5testss_38payload_has_entries_none_returns_false
FN:422,_RNvNtNtNtCsgTXWXfwjzne_17intervals_icu_mcp7engines14analysis_audit5testss_38payload_has_entries_null_returns_false
FN:232,_RNvNtNtNtCsgTXWXfwjzne_17intervals_icu_mcp7engines14analysis_audit5testss_40audit_detects_intervals_unavailable_null
FN:454,_RNvNtNtNtCsgTXWXfwjzne_17intervals_icu_mcp7engines14analysis_audit5testss_42payload_has_entries_primitive_returns_true
FN:199,_RNvNtNtNtCsgTXWXfwjzne_17intervals_icu_mcp7engines14analysis_audit5testss_43audit_fitness_non_object_non_array_is_false
FN:89,_RNvNtNtNtCsgTXWXfwjzne_17intervals_icu_mcp7engines14analysis_audit5testss_44audit_records_missing_fitness_summary_reason
FN:284,_RNvNtNtNtCsgTXWXfwjzne_17intervals_icu_mcp7engines14analysis_audit5testss_45audit_records_degraded_mode_for_no_activities
FN:432,_RNvNtNtNtCsgTXWXfwjzne_17intervals_icu_mcp7engines14analysis_audit5testss_45payload_has_entries_empty_array_returns_false
FN:403,_RNvNtNtNtCsgTXWXfwjzne_17intervals_icu_mcp7engines14analysis_audit5testss_46audit_includes_fetch_warnings_in_degraded_mode
FN:301,_RNvNtNtNtCsgTXWXfwjzne_17intervals_icu_mcp7engines14analysis_audit5testss_46audit_records_degraded_mode_for_empty_wellness
FN:427,_RNvNtNtNtCsgTXWXfwjzne_17intervals_icu_mcp7engines14analysis_audit5testss_46payload_has_entries_empty_object_returns_false
FN:221,_RNvNtNtNtCsgTXWXfwjzne_17intervals_icu_mcp7engines14analysis_audit5testss_47audit_detects_intervals_unavailable_empty_array
FN:156,_RNvNtNtNtCsgTXWXfwjzne_17intervals_icu_mcp7engines14analysis_audit5testss_47audit_fitness_null_values_not_considered_signal
FN:351,_RNvNtNtNtCsgTXWXfwjzne_17intervals_icu_mcp7engines14analysis_audit5testss_47audit_records_degraded_mode_for_missing_streams
FN:444,_RNvNtNtNtCsgTXWXfwjzne_17intervals_icu_mcp7engines14analysis_audit5testss_48payload_has_entries_non_empty_array_returns_true
FN:326,_RNvNtNtNtCsgTXWXfwjzne_17intervals_icu_mcp7engines14analysis_audit5testss_49audit_records_degraded_mode_for_missing_intervals
FN:437,_RNvNtNtNtCsgTXWXfwjzne_17intervals_icu_mcp7engines14analysis_audit5testss_49payload_has_entries_non_empty_object_returns_true
FN:124,_RNvNtNtNtCsgTXWXfwjzne_17intervals_icu_mcp7engines14analysis_audit5testss_52audit_detects_fitness_data_available_with_all_fields
FN:272,_RNvNtNtNtCsgTXWXfwjzne_17intervals_icu_mcp7engines14analysis_audit5testss_54audit_detects_activities_available_from_workout_detail
FN:254,_RNvNtNtNtCsgTXWXfwjzne_17intervals_icu_mcp7engines14analysis_audit5testss_55audit_detects_activities_available_from_activities_list
FN:102,_RNvNtNtNtCsgTXWXfwjzne_17intervals_icu_mcp7engines14analysis_audit5testss_55audit_marks_streams_unavailable_when_payload_is_missing
FN:142,_RNvNtNtNtCsgTXWXfwjzne_17intervals_icu_mcp7engines14analysis_audit5testss_56audit_detects_fitness_data_available_with_partial_fields
FN:78,_RNvNtNtNtCsgTXWXfwjzne_17intervals_icu_mcp7engines14analysis_audit5testss_59audit_marks_wellness_unavailable_for_empty_wellness_payload
FN:97,_RNCNvNtNtNtCsgTXWXfwjzne_17intervals_icu_mcp7engines14analysis_audit5testss_44audit_records_missing_fitness_summary_reason0B9_
FN:296,_RNCNvNtNtNtCsgTXWXfwjzne_17intervals_icu_mcp7engines14analysis_audit5testss_45audit_records_degraded_mode_for_no_activities0B9_
FN:417,_RNCNvNtNtNtCsgTXWXfwjzne_17intervals_icu_mcp7engines14analysis_audit5testss_46audit_includes_fetch_warnings_in_degraded_mode0B9_
FN:321,_RNCNvNtNtNtCsgTXWXfwjzne_17intervals_icu_mcp7engines14analysis_audit5testss_46audit_records_degraded_mode_for_empty_wellness0B9_
FN:371,_RNCNvNtNtNtCsgTXWXfwjzne_17intervals_icu_mcp7engines14analysis_audit5testss_47audit_records_degraded_mode_for_missing_streams0B9_
FN:346,_RNCNvNtNtNtCsgTXWXfwjzne_17intervals_icu_mcp7engines14analysis_audit5testss_49audit_records_degraded_mode_for_missing_intervals0B9_
FNDA:37,_RNvNtNtCsgTXWXfwjzne_17intervals_icu_mcp7engines14analysis_audit16build_data_audit
FNDA:81,_RNvNtNtCsgTXWXfwjzne_17intervals_icu_mcp7engines14analysis_audit19payload_has_entries
FNDA:15,_RNvNtNtCsgTXWXfwjzne_17intervals_icu_mcp7engines14analysis_audit26fitness_payload_has_signal
FNDA:14,_RNCNCNvNtNtCsgTXWXfwjzne_17intervals_icu_mcp7engines14analysis_audit26fitness_payload_has_signal00B9_
FNDA:4,_RNCNvNtNtCsgTXWXfwjzne_17intervals_icu_mcp7engines14analysis_audit16build_data_audit0B7_
FNDA:4,_RNCNvNtNtCsgTXWXfwjzne_17intervals_icu_mcp7engines14analysis_audit16build_data_audits_0B7_
FNDA:19,_RNCNvNtNtCsgTXWXfwjzne_17intervals_icu_mcp7engines14analysis_audit19payload_has_entries0B7_
FNDA:50,_RNCNvNtNtCsgTXWXfwjzne_17intervals_icu_mcp7engines14analysis_audit26fitness_payload_has_signal0B7_
FNDA:1,_RNvNtNtNtCsgTXWXfwjzne_17intervals_icu_mcp7engines14analysis_audit5testss_28audit_fitness_array_all_null
FNDA:1,_RNvNtNtNtCsgTXWXfwjzne_17intervals_icu_mcp7engines14analysis_audit5testss_31audit_detects_streams_available
FNDA:1,_RNvNtNtNtCsgTXWXfwjzne_17intervals_icu_mcp7engines14analysis_audit5testss_31audit_fitness_array_with_signal
FNDA:1,_RNvNtNtNtCsgTXWXfwjzne_17intervals_icu_mcp7engines14analysis_audit5testss_32audit_full_data_no_degraded_mode
FNDA:1,_RNvNtNtNtCsgTXWXfwjzne_17intervals_icu_mcp7engines14analysis_audit5testss_33audit_detects_intervals_available
FNDA:1,_RNvNtNtNtCsgTXWXfwjzne_17intervals_icu_mcp7engines14analysis_audit5testss_37audit_detects_wellness_data_available
FNDA:1,_RNvNtNtNtCsgTXWXfwjzne_17intervals_icu_mcp7engines14analysis_audit5testss_38payload_has_entries_none_returns_false
FNDA:1,_RNvNtNtNtCsgTXWXfwjzne_17intervals_icu_mcp7engines14analysis_audit5testss_38payload_has_entries_null_returns_false
FNDA:1,_RNvNtNtNtCsgTXWXfwjzne_17intervals_icu_mcp7engines14analysis_audit5testss_40audit_detects_intervals_unavailable_null
FNDA:1,_RNvNtNtNtCsgTXWXfwjzne_17intervals_icu_mcp7engines14analysis_audit5testss_42payload_has_entries_primitive_returns_true
FNDA:1,_RNvNtNtNtCsgTXWXfwjzne_17intervals_icu_mcp7engines14analysis_audit5testss_43audit_fitness_non_object_non_array_is_false
FNDA:1,_RNvNtNtNtCsgTXWXfwjzne_17intervals_icu_mcp7engines14analysis_audit5testss_44audit_records_missing_fitness_summary_reason
FNDA:1,_RNvNtNtNtCsgTXWXfwjzne_17intervals_icu_mcp7engines14analysis_audit5testss_45audit_records_degraded_mode_for_no_activities
FNDA:1,_RNvNtNtNtCsgTXWXfwjzne_17intervals_icu_mcp7engines14analysis_audit5testss_45payload_has_entries_empty_array_returns_false
FNDA:1,_RNvNtNtNtCsgTXWXfwjzne_17intervals_icu_mcp7engines14analysis_audit5testss_46audit_includes_fetch_warnings_in_degraded_mode
FNDA:1,_RNvNtNtNtCsgTXWXfwjzne_17intervals_icu_mcp7engines14analysis_audit5testss_46audit_records_degraded_mode_for_empty_wellness
FNDA:1,_RNvNtNtNtCsgTXWXfwjzne_17intervals_icu_mcp7engines14analysis_audit5testss_46payload_has_entries_empty_object_returns_false
FNDA:1,_RNvNtNtNtCsgTXWXfwjzne_17intervals_icu_mcp7engines14analysis_audit5testss_47audit_detects_intervals_unavailable_empty_array
FNDA:1,_RNvNtNtNtCsgTXWXfwjzne_17intervals_icu_mcp7engines14analysis_audit5testss_47audit_fitness_null_values_not_considered_signal
FNDA:1,_RNvNtNtNtCsgTXWXfwjzne_17intervals_icu_mcp7engines14analysis_audit5testss_47audit_records_degraded_mode_for_missing_streams
FNDA:1,_RNvNtNtNtCsgTXWXfwjzne_17intervals_icu_mcp7engines14analysis_audit5testss_48payload_has_entries_non_empty_array_returns_true
FNDA:1,_RNvNtNtNtCsgTXWXfwjzne_17intervals_icu_mcp7engines14analysis_audit5testss_49audit_records_degraded_mode_for_missing_intervals
FNDA:1,_RNvNtNtNtCsgTXWXfwjzne_17intervals_icu_mcp7engines14analysis_audit5testss_49payload_has_entries_non_empty_object_returns_true
FNDA:1,_RNvNtNtNtCsgTXWXfwjzne_17intervals_icu_mcp7engines14analysis_audit5testss_52audit_detects_fitness_data_available_with_all_fields
FNDA:1,_RNvNtNtNtCsgTXWXfwjzne_17intervals_icu_mcp7engines14analysis_audit5testss_54audit_detects_activities_available_from_workout_detail
FNDA:1,_RNvNtNtNtCsgTXWXfwjzne_17intervals_icu_mcp7engines14analysis_audit5testss_55audit_detects_activities_available_from_activities_list
FNDA:1,_RNvNtNtNtCsgTXWXfwjzne_17intervals_icu_mcp7engines14analysis_audit5testss_55audit_marks_streams_unavailable_when_payload_is_missing
FNDA:1,_RNvNtNtNtCsgTXWXfwjzne_17intervals_icu_mcp7engines14analysis_audit5testss_56audit_detects_fitness_data_available_with_partial_fields
FNDA:1,_RNvNtNtNtCsgTXWXfwjzne_17intervals_icu_mcp7engines14analysis_audit5testss_59audit_marks_wellness_unavailable_for_empty_wellness_payload
FNDA:2,_RNCNvNtNtNtCsgTXWXfwjzne_17intervals_icu_mcp7engines14analysis_audit5testss_44audit_records_missing_fitness_summary_reason0B9_
FNDA:1,_RNCNvNtNtNtCsgTXWXfwjzne_17intervals_icu_mcp7engines14analysis_audit5testss_45audit_records_degraded_mode_for_no_activities0B9_
FNDA:3,_RNCNvNtNtNtCsgTXWXfwjzne_17intervals_icu_mcp7engines14analysis_audit5testss_46audit_includes_fetch_warnings_in_degraded_mode0B9_
FNDA:1,_RNCNvNtNtNtCsgTXWXfwjzne_17intervals_icu_mcp7engines14analysis_audit5testss_46audit_records_degraded_mode_for_empty_wellness0B9_
FNDA:1,_RNCNvNtNtNtCsgTXWXfwjzne_17intervals_icu_mcp7engines14analysis_audit5testss_47audit_records_degraded_mode_for_missing_streams0B9_
FNDA:1,_RNCNvNtNtNtCsgTXWXfwjzne_17intervals_icu_mcp7engines14analysis_audit5testss_49audit_records_degraded_mode_for_missing_intervals0B9_
FNF:43
FNH:43
DA:5,37
DA:6,37
DA:7,37
DA:8,37
DA:9,37
DA:10,37
DA:11,37
DA:13,37
DA:14,37
DA:15,37
DA:16,37
DA:17,37
DA:19,37
DA:20,37
DA:22,37
DA:23,37
DA:24,16
DA:25,21
DA:26,37
DA:27,2
DA:28,35
DA:29,37
DA:30,29
DA:31,29
DA:32,37
DA:33,2
DA:34,35
DA:35,37
DA:36,4
DA:37,33
DA:38,37
DA:41,37
DA:42,37
DA:43,37
DA:44,37
DA:45,37
DA:46,37
DA:48,37
DA:50,15
DA:51,15
DA:52,12
DA:53,12
DA:54,50
DA:55,3
DA:57,3
DA:58,2
DA:59,1
DA:61,1
DA:62,15
DA:64,81
DA:65,81
DA:66,7
DA:67,10
DA:68,1
DA:69,1
DA:70,19
DA:71,81
DA:78,1
DA:79,1
DA:80,1
DA:81,1
DA:82,1
DA:84,1
DA:85,1
DA:86,1
DA:89,1
DA:90,1
DA:91,1
DA:93,1
DA:94,1
DA:95,1
DA:96,1
DA:97,2
DA:99,1
DA:102,1
DA:103,1
DA:104,1
DA:105,1
DA:106,1
DA:108,1
DA:109,1
DA:110,1
DA:113,1
DA:114,1
DA:115,1
DA:116,1
DA:117,1
DA:119,1
DA:120,1
DA:121,1
DA:124,1
DA:125,1
DA:126,1
DA:127,1
DA:128,1
DA:129,1
DA:130,1
DA:131,1
DA:132,1
DA:133,1
DA:134,1
DA:135,1
DA:137,1
DA:138,1
DA:139,1
DA:142,1
DA:143,1
DA:144,1
DA:145,1
DA:146,1
DA:147,1
DA:148,1
DA:149,1
DA:151,1
DA:152,1
DA:153,1
DA:156,1
DA:157,1
DA:158,1
DA:159,1
DA:160,1
DA:161,1
DA:162,1
DA:163,1
DA:164,1
DA:166,1
DA:167,1
DA:168,1
DA:171,1
DA:172,1
DA:173,1
DA:174,1
DA:175,1
DA:176,1
DA:177,1
DA:178,1
DA:180,1
DA:181,1
DA:182,1
DA:185,1
DA:186,1
DA:187,1
DA:188,1
DA:189,1
DA:190,1
DA:191,1
DA:192,1
DA:194,1
DA:195,1
DA:196,1
DA:199,1
DA:200,1
DA:201,1
DA:202,1
DA:203,1
DA:205,1
DA:206,1
DA:207,1
DA:210,1
DA:211,1
DA:212,1
DA:213,1
DA:214,1
DA:216,1
DA:217,1
DA:218,1
DA:221,1
DA:222,1
DA:223,1
DA:224,1
DA:225,1
DA:227,1
DA:228,1
DA:229,1
DA:232,1
DA:233,1
DA:234,1
DA:235,1
DA:236,1
DA:238,1
DA:239,1
DA:240,1
DA:243,1
DA:244,1
DA:245,1
DA:246,1
DA:247,1
DA:249,1
DA:250,1
DA:251,1
DA:254,1
DA:257,1
DA:258,1
DA:259,1
DA:260,1
DA:261,1
DA:262,1
DA:263,1
DA:264,1
DA:265,1
DA:267,1
DA:268,1
DA:269,1
DA:272,1
DA:273,1
DA:274,1
DA:275,1
DA:276,1
DA:277,1
DA:279,1
DA:280,1
DA:281,1
DA:284,1
DA:285,1
DA:286,1
DA:287,1
DA:288,1
DA:289,1
DA:291,1
DA:292,1
DA:293,1
DA:294,1
DA:295,1
DA:296,1
DA:298,1
DA:301,1
DA:304,1
DA:305,1
DA:306,1
DA:307,1
DA:308,1
DA:309,1
DA:310,1
DA:311,1
DA:312,1
DA:313,1
DA:314,1
DA:316,1
DA:317,1
DA:318,1
DA:319,1
DA:320,1
DA:321,1
DA:323,1
DA:326,1
DA:329,1
DA:330,1
DA:331,1
DA:332,1
DA:333,1
DA:334,1
DA:335,1
DA:336,1
DA:337,1
DA:338,1
DA:339,1
DA:341,1
DA:342,1
DA:343,1
DA:344,1
DA:345,1
DA:346,1
DA:348,1
DA:351,1
DA:354,1
DA:355,1
DA:356,1
DA:357,1
DA:358,1
DA:359,1
DA:360,1
DA:361,1
DA:362,1
DA:363,1
DA:364,1
DA:366,1
DA:367,1
DA:368,1
DA:369,1
DA:370,1
DA:371,1
DA:373,1
DA:376,1
DA:379,1
DA:380,1
DA:381,1
DA:382,1
DA:383,1
DA:384,1
DA:385,1
DA:386,1
DA:387,1
DA:388,1
DA:389,1
DA:390,1
DA:391,1
DA:393,1
DA:394,1
DA:395,1
DA:396,1
DA:397,1
DA:398,1
DA:399,1
DA:400,1
DA:403,1
DA:404,1
DA:405,1
DA:406,1
DA:407,1
DA:408,1
DA:409,1
DA:411,1
DA:413,1
DA:414,1
DA:415,1
DA:416,1
DA:417,3
DA:419,1
DA:422,1
DA:423,1
DA:424,1
DA:427,1
DA:428,1
DA:429,1
DA:432,1
DA:433,1
DA:434,1
DA:437,1
DA:438,1
DA:439,1
DA:440,1
DA:441,1
DA:444,1
DA:445,1
DA:446,1
DA:449,1
DA:450,1
DA:451,1
DA:454,1
DA:455,1
DA:456,1
BRF:0
BRH:0
LF:352
LH:352
end_of_record
SF:/Users/solovey/Documents/dev/rusty_intervals_mcp/crates/intervals_icu_mcp/src/engines/analysis_fetch.rs
FN:606,_RNvNtNtCsgTXWXfwjzne_17intervals_icu_mcp7engines14analysis_fetch15fetch_race_data
FN:121,_RNvNtNtCsgTXWXfwjzne_17intervals_icu_mcp7engines14analysis_fetch16parse_event_date
FN:338,_RNvNtNtCsgTXWXfwjzne_17intervals_icu_mcp7engines14analysis_fetch17fetch_period_data
FN:437,_RNvNtNtCsgTXWXfwjzne_17intervals_icu_mcp7engines14analysis_fetch19fetch_recovery_data
FN:114,_RNvNtNtCsgTXWXfwjzne_17intervals_icu_mcp7engines14analysis_fetch19parse_activity_date
FN:62,_RNvNtNtCsgTXWXfwjzne_17intervals_icu_mcp7engines14analysis_fetch21build_previous_window
FN:69,_RNvNtNtCsgTXWXfwjzne_17intervals_icu_mcp7engines14analysis_fetch21extract_activity_load
FN:232,_RNvNtNtCsgTXWXfwjzne_17intervals_icu_mcp7engines14analysis_fetch21parse_planned_workout
FN:128,_RNvNtNtCsgTXWXfwjzne_17intervals_icu_mcp7engines14analysis_fetch22dedupe_and_sort_events
FN:87,_RNvNtNtCsgTXWXfwjzne_17intervals_icu_mcp7engines14analysis_fetch23build_daily_load_series
FN:473,_RNvNtNtCsgTXWXfwjzne_17intervals_icu_mcp7engines14analysis_fetch25fetch_single_workout_data
FN:316,_RNvNtNtCsgTXWXfwjzne_17intervals_icu_mcp7engines14analysis_fetch25normalize_streams_payload
FN:272,_RNvNtNtCsgTXWXfwjzne_17intervals_icu_mcp7engines14analysis_fetch27normalize_intervals_payload
FN:194,_RNvNtNtCsgTXWXfwjzne_17intervals_icu_mcp7engines14analysis_fetch27upcoming_rate_limit_warning
FN:198,_RNvNtNtCsgTXWXfwjzne_17intervals_icu_mcp7engines14analysis_fetch29fetch_calendar_events_between
FN:292,_RNvNtNtCsgTXWXfwjzne_17intervals_icu_mcp7engines14analysis_fetch33normalize_stream_descriptor_array
FN:153,_RNvNtNtCsgTXWXfwjzne_17intervals_icu_mcp7engines14analysis_fetch33normalize_upcoming_events_payload
FN:77,_RNCNCNCNCNvNtNtCsgTXWXfwjzne_17intervals_icu_mcp7engines14analysis_fetch21extract_activity_load0000Bd_
FN:82,_RNCNCNCNCNvNtNtCsgTXWXfwjzne_17intervals_icu_mcp7engines14analysis_fetch21extract_activity_loads_0000Bd_
FN:77,_RNCNCNCNvNtNtCsgTXWXfwjzne_17intervals_icu_mcp7engines14analysis_fetch21extract_activity_load000Bb_
FN:82,_RNCNCNCNvNtNtCsgTXWXfwjzne_17intervals_icu_mcp7engines14analysis_fetch21extract_activity_loads_000Bb_
FN:182,_RNCNCNCNvNtNtCsgTXWXfwjzne_17intervals_icu_mcp7engines14analysis_fetch33normalize_upcoming_events_payload0s0_00Bb_
FN:346,_RNCNCNvNtNtCsgTXWXfwjzne_17intervals_icu_mcp7engines14analysis_fetch17fetch_period_data00B9_
FN:367,_RNCNCNvNtNtCsgTXWXfwjzne_17intervals_icu_mcp7engines14analysis_fetch17fetch_period_data0s0_0B9_
FN:380,_RNCNCNvNtNtCsgTXWXfwjzne_17intervals_icu_mcp7engines14analysis_fetch17fetch_period_data0s1_0B9_
FN:426,_RNCNCNvNtNtCsgTXWXfwjzne_17intervals_icu_mcp7engines14analysis_fetch17fetch_period_data0s2_0B9_
FN:350,_RNCNCNvNtNtCsgTXWXfwjzne_17intervals_icu_mcp7engines14analysis_fetch17fetch_period_data0s_0B9_
FN:447,_RNCNCNvNtNtCsgTXWXfwjzne_17intervals_icu_mcp7engines14analysis_fetch19fetch_recovery_data00B9_
FN:463,_RNCNCNvNtNtCsgTXWXfwjzne_17intervals_icu_mcp7engines14analysis_fetch19fetch_recovery_data0s0_0B9_
FN:457,_RNCNCNvNtNtCsgTXWXfwjzne_17intervals_icu_mcp7engines14analysis_fetch19fetch_recovery_data0s_0B9_
FN:77,_RNCNCNvNtNtCsgTXWXfwjzne_17intervals_icu_mcp7engines14analysis_fetch21extract_activity_load00B9_
FN:82,_RNCNCNvNtNtCsgTXWXfwjzne_17intervals_icu_mcp7engines14analysis_fetch21extract_activity_loads_00B9_
FN:83,_RNCNCNvNtNtCsgTXWXfwjzne_17intervals_icu_mcp7engines14analysis_fetch21extract_activity_loads_0s_0B9_
FN:249,_RNCNCNvNtNtCsgTXWXfwjzne_17intervals_icu_mcp7engines14analysis_fetch21parse_planned_workouts_00B9_
FN:250,_RNCNCNvNtNtCsgTXWXfwjzne_17intervals_icu_mcp7engines14analysis_fetch21parse_planned_workouts_0s_0B9_
FN:131,_RNCNCNvNtNtCsgTXWXfwjzne_17intervals_icu_mcp7engines14analysis_fetch22dedupe_and_sort_events00B9_
FN:145,_RNCNCNvNtNtCsgTXWXfwjzne_17intervals_icu_mcp7engines14analysis_fetch22dedupe_and_sort_eventss_00B9_
FN:147,_RNCNCNvNtNtCsgTXWXfwjzne_17intervals_icu_mcp7engines14analysis_fetch22dedupe_and_sort_eventss_0s0_0B9_
FN:146,_RNCNCNvNtNtCsgTXWXfwjzne_17intervals_icu_mcp7engines14analysis_fetch22dedupe_and_sort_eventss_0s_0B9_
FN:481,_RNCNCNvNtNtCsgTXWXfwjzne_17intervals_icu_mcp7engines14analysis_fetch25fetch_single_workout_data00B9_
FN:519,_RNCNCNvNtNtCsgTXWXfwjzne_17intervals_icu_mcp7engines14analysis_fetch25fetch_single_workout_data0s1_0B9_
FN:519,_RNCNCNvNtNtCsgTXWXfwjzne_17intervals_icu_mcp7engines14analysis_fetch25fetch_single_workout_data0s2_0B9_
FN:573,_RNCNCNvNtNtCsgTXWXfwjzne_17intervals_icu_mcp7engines14analysis_fetch25fetch_single_workout_data0s8_0B9_
FN:573,_RNCNCNvNtNtCsgTXWXfwjzne_17intervals_icu_mcp7engines14analysis_fetch25fetch_single_workout_data0s9_0B9_
FN:539,_RNCNCNvNtNtCsgTXWXfwjzne_17intervals_icu_mcp7engines14analysis_fetch25fetch_single_workout_data0s_0B9_
FN:212,_RNCNCNvNtNtCsgTXWXfwjzne_17intervals_icu_mcp7engines14analysis_fetch29fetch_calendar_events_between00B9_
FN:225,_RNCNCNvNtNtCsgTXWXfwjzne_17intervals_icu_mcp7engines14analysis_fetch29fetch_calendar_events_between0s0_0B9_
FN:221,_RNCNCNvNtNtCsgTXWXfwjzne_17intervals_icu_mcp7engines14analysis_fetch29fetch_calendar_events_between0s_0B9_
FN:303,_RNCNCNvNtNtCsgTXWXfwjzne_17intervals_icu_mcp7engines14analysis_fetch33normalize_stream_descriptor_arrays_00B9_
FN:169,_RNCNCNvNtNtCsgTXWXfwjzne_17intervals_icu_mcp7engines14analysis_fetch33normalize_upcoming_events_payload00B9_
FN:178,_RNCNCNvNtNtCsgTXWXfwjzne_17intervals_icu_mcp7engines14analysis_fetch33normalize_upcoming_events_payload0s0_0B9_
FN:177,_RNCNCNvNtNtCsgTXWXfwjzne_17intervals_icu_mcp7engines14analysis_fetch33normalize_upcoming_events_payload0s_0B9_
FN:609,_RNCNvNtNtCsgTXWXfwjzne_17intervals_icu_mcp7engines14analysis_fetch15fetch_race_data0B7_
FN:124,_RNCNvNtNtCsgTXWXfwjzne_17intervals_icu_mcp7engines14analysis_fetch16parse_event_date0B7_
FN:125,_RNCNvNtNtCsgTXWXfwjzne_17intervals_icu_mcp7engines14analysis_fetch16parse_event_dates_0B7_
FN:341,_RNCNvNtNtCsgTXWXfwjzne_17intervals_icu_mcp7engines14analysis_fetch17fetch_period_data0B7_
FN:440,_RNCNvNtNtCsgTXWXfwjzne_17intervals_icu_mcp7engines14analysis_fetch19fetch_recovery_data0B7_
FN:117,_RNCNvNtNtCsgTXWXfwjzne_17intervals_icu_mcp7engines14analysis_fetch19parse_activity_date0B7_
FN:118,_RNCNvNtNtCsgTXWXfwjzne_17intervals_icu_mcp7engines14analysis_fetch19parse_activity_dates_0B7_
FN:74,_RNCNvNtNtCsgTXWXfwjzne_17intervals_icu_mcp7engines14analysis_fetch21extract_activity_load0B7_
FN:79,_RNCNvNtNtCsgTXWXfwjzne_17intervals_icu_mcp7engines14analysis_fetch21extract_activity_loads_0B7_
FN:241,_RNCNvNtNtCsgTXWXfwjzne_17intervals_icu_mcp7engines14analysis_fetch21parse_planned_workout0B7_
FN:256,_RNCNvNtNtCsgTXWXfwjzne_17intervals_icu_mcp7engines14analysis_fetch21parse_planned_workouts0_0B7_
FN:257,_RNCNvNtNtCsgTXWXfwjzne_17intervals_icu_mcp7engines14analysis_fetch21parse_planned_workouts1_0B7_
FN:259,_RNCNvNtNtCsgTXWXfwjzne_17intervals_icu_mcp7engines14analysis_fetch21parse_planned_workouts2_0B7_
FN:246,_RNCNvNtNtCsgTXWXfwjzne_17intervals_icu_mcp7engines14analysis_fetch21parse_planned_workouts_0B7_
FN:130,_RNCNvNtNtCsgTXWXfwjzne_17intervals_icu_mcp7engines14analysis_fetch22dedupe_and_sort_events0B7_
FN:140,_RNCNvNtNtCsgTXWXfwjzne_17intervals_icu_mcp7engines14analysis_fetch22dedupe_and_sort_eventss_0B7_
FN:99,_RNCNvNtNtCsgTXWXfwjzne_17intervals_icu_mcp7engines14analysis_fetch23build_daily_load_series0B7_
FN:476,_RNCNvNtNtCsgTXWXfwjzne_17intervals_icu_mcp7engines14analysis_fetch25fetch_single_workout_data0B7_
FN:203,_RNCNvNtNtCsgTXWXfwjzne_17intervals_icu_mcp7engines14analysis_fetch29fetch_calendar_events_between0B7_
FN:299,_RNCNvNtNtCsgTXWXfwjzne_17intervals_icu_mcp7engines14analysis_fetch33normalize_stream_descriptor_array0B7_
FN:305,_RNCNvNtNtCsgTXWXfwjzne_17intervals_icu_mcp7engines14analysis_fetch33normalize_stream_descriptor_arrays0_0B7_
FN:300,_RNCNvNtNtCsgTXWXfwjzne_17intervals_icu_mcp7engines14analysis_fetch33normalize_stream_descriptor_arrays_0B7_
FN:161,_RNCNvNtNtCsgTXWXfwjzne_17intervals_icu_mcp7engines14analysis_fetch33normalize_upcoming_events_payload0B7_
FN:643,_RNvNtNtNtCsgTXWXfwjzne_17intervals_icu_mcp7engines14analysis_fetch5tests8activity
FN:1073,_RNvNtNtNtCsgTXWXfwjzne_17intervals_icu_mcp7engines14analysis_fetch5testss_24parse_event_date_invalid
FN:953,_RNvNtNtNtCsgTXWXfwjzne_17intervals_icu_mcp7engines14analysis_fetch5testss_24race_fetch_request_clone
FN:963,_RNvNtNtNtCsgTXWXfwjzne_17intervals_icu_mcp7engines14analysis_fetch5testss_24race_fetch_request_debug
FN:1053,_RNvNtNtNtCsgTXWXfwjzne_17intervals_icu_mcp7engines14analysis_fetch5testss_26parse_event_date_with_time
FN:866,_RNvNtNtNtCsgTXWXfwjzne_17intervals_icu_mcp7engines14analysis_fetch5testss_26period_fetch_request_clone
FN:879,_RNvNtNtNtCsgTXWXfwjzne_17intervals_icu_mcp7engines14analysis_fetch5testss_26period_fetch_request_debug
FN:997,_RNvNtNtNtCsgTXWXfwjzne_17intervals_icu_mcp7engines14analysis_fetch5testss_27fetched_analysis_data_clone
FN:1011,_RNvNtNtNtCsgTXWXfwjzne_17intervals_icu_mcp7engines14analysis_fetch5testss_27fetched_analysis_data_debug
FN:930,_RNvNtNtNtCsgTXWXfwjzne_17intervals_icu_mcp7engines14analysis_fetch5testss_28recovery_fetch_request_clone
FN:939,_RNvNtNtNtCsgTXWXfwjzne_17intervals_icu_mcp7engines14analysis_fetch5testss_28recovery_fetch_request_debug
FN:978,_RNvNtNtNtCsgTXWXfwjzne_17intervals_icu_mcp7engines14analysis_fetch5testss_29fetched_analysis_data_default
FN:1022,_RNvNtNtNtCsgTXWXfwjzne_17intervals_icu_mcp7engines14analysis_fetch5testss_29parse_activity_date_with_time
FN:1063,_RNvNtNtNtCsgTXWXfwjzne_17intervals_icu_mcp7engines14analysis_fetch5testss_29parse_event_date_without_time
FN:1456,_RNvNtNtNtCsgTXWXfwjzne_17intervals_icu_mcp7engines14analysis_fetch5testss_31parse_planned_workout_string_id
FN:1316,_RNvNtNtNtCsgTXWXfwjzne_17intervals_icu_mcp7engines14analysis_fetch5testss_32extract_activity_load_non_object
FN:1311,_RNvNtNtNtCsgTXWXfwjzne_17intervals_icu_mcp7engines14analysis_fetch5testss_32extract_activity_load_none_input
FN:1032,_RNvNtNtNtCsgTXWXfwjzne_17intervals_icu_mcp7engines14analysis_fetch5testss_32parse_activity_date_without_time
FN:1409,_RNvNtNtNtCsgTXWXfwjzne_17intervals_icu_mcp7engines14analysis_fetch5testss_32parse_planned_workout_missing_id
FN:1082,_RNvNtNtNtCsgTXWXfwjzne_17intervals_icu_mcp7engines14analysis_fetch5testss_33dedupe_and_sort_events_empty_list
FN:1340,_RNvNtNtNtCsgTXWXfwjzne_17intervals_icu_mcp7engines14analysis_fetch5testss_34extract_activity_load_integer_load
FN:1042,_RNvNtNtNtCsgTXWXfwjzne_17intervals_icu_mcp7engines14analysis_fetch5testss_34parse_activity_date_invalid_format
FN:897,_RNvNtNtNtCsgTXWXfwjzne_17intervals_icu_mcp7engines14analysis_fetch5testss_34single_workout_fetch_request_clone
FN:911,_RNvNtNtNtCsgTXWXfwjzne_17intervals_icu_mcp7engines14analysis_fetch5testss_34single_workout_fetch_request_debug
FN:1376,_RNvNtNtNtCsgTXWXfwjzne_17intervals_icu_mcp7engines14analysis_fetch5testss_35build_previous_window_7_day_example
FN:1356,_RNvNtNtNtCsgTXWXfwjzne_17intervals_icu_mcp7engines14analysis_fetch5testss_36build_previous_window_correct_length
FN:1114,_RNvNtNtNtCsgTXWXfwjzne_17intervals_icu_mcp7engines14analysis_fetch5testss_36dedupe_and_sort_events_sorts_by_date
FN:1322,_RNvNtNtNtCsgTXWXfwjzne_17intervals_icu_mcp7engines14analysis_fetch5testss_37extract_activity_load_no_load_or_time
FN:1419,_RNvNtNtNtCsgTXWXfwjzne_17intervals_icu_mcp7engines14analysis_fetch5testss_40parse_planned_workout_missing_start_date
FN:1366,_RNvNtNtNtCsgTXWXfwjzne_17intervals_icu_mcp7engines14analysis_fetch5testss_41build_previous_window_adjacent_to_current
FN:1346,_RNvNtNtNtCsgTXWXfwjzne_17intervals_icu_mcp7engines14analysis_fetch5testss_41extract_activity_load_moving_time_integer
FN:1334,_RNvNtNtNtCsgTXWXfwjzne_17intervals_icu_mcp7engines14analysis_fetch5testss_42extract_activity_load_camelcase_load_field
FN:1270,_RNvNtNtNtCsgTXWXfwjzne_17intervals_icu_mcp7engines14analysis_fetch5testss_43normalize_streams_payload_array_passthrough
FN:1239,_RNvNtNtNtCsgTXWXfwjzne_17intervals_icu_mcp7engines14analysis_fetch5testss_45normalize_intervals_payload_array_passthrough
FN:632,_RNvNtNtNtCsgTXWXfwjzne_17intervals_icu_mcp7engines14analysis_fetch5testss_45previous_window_matches_current_window_length
FN:653,_RNvNtNtNtCsgTXWXfwjzne_17intervals_icu_mcp7engines14analysis_fetch5testss_46daily_load_series_fills_missing_days_with_zero
FN:1089,_RNvNtNtNtCsgTXWXfwjzne_17intervals_icu_mcp7engines14analysis_fetch5testss_47dedupe_and_sort_events_removes_duplicates_by_id
FN:1328,_RNvNtNtNtCsgTXWXfwjzne_17intervals_icu_mcp7engines14analysis_fetch5testss_48extract_activity_load_alternate_load_field_names
FN:1282,_RNvNtNtNtCsgTXWXfwjzne_17intervals_icu_mcp7engines14analysis_fetch5testss_48normalize_streams_payload_non_object_passthrough
FN:1249,_RNvNtNtNtCsgTXWXfwjzne_17intervals_icu_mcp7engines14analysis_fetch5testss_50normalize_intervals_payload_non_object_passthrough
FN:1429,_RNvNtNtNtCsgTXWXfwjzne_17intervals_icu_mcp7engines14analysis_fetch5testss_50parse_planned_workout_no_description_uses_fallback
FN:1140,_RNvNtNtNtCsgTXWXfwjzne_17intervals_icu_mcp7engines14analysis_fetch5testss_51dedupe_and_sort_events_without_id_uses_fallback_key
FN:835,_RNvNtNtNtCsgTXWXfwjzne_17intervals_icu_mcp7engines14analysis_fetch5testss_51normalize_streams_payload_extracts_descriptor_array
FN:817,_RNvNtNtNtCsgTXWXfwjzne_17intervals_icu_mcp7engines14analysis_fetch5testss_52normalize_streams_payload_extracts_nested_stream_map
FN:1289,_RNvNtNtNtCsgTXWXfwjzne_17intervals_icu_mcp7engines14analysis_fetch5testss_52normalize_streams_payload_no_streams_key_passthrough
FN:1175,_RNvNtNtNtCsgTXWXfwjzne_17intervals_icu_mcp7engines14analysis_fetch5testss_53normalize_upcoming_events_payload_with_name_unchanged
FN:714,_RNvNtNtNtCsgTXWXfwjzne_17intervals_icu_mcp7engines14analysis_fetch5testss_54dedupe_and_sort_events_prefers_unique_calendar_entries
FN:1442,_RNvNtNtNtCsgTXWXfwjzne_17intervals_icu_mcp7engines14analysis_fetch5testss_54parse_planned_workout_uses_name_if_description_missing
FN:1397,_RNvNtNtNtCsgTXWXfwjzne_17intervals_icu_mcp7engines14analysis_fetch5testss_54parse_planned_workout_with_paired_activity_id_excluded
FN:685,_RNvNtNtNtCsgTXWXfwjzne_17intervals_icu_mcp7engines14analysis_fetch5testss_55extract_activity_load_falls_back_to_moving_time_minutes
FN:1298,_RNvNtNtNtCsgTXWXfwjzne_17intervals_icu_mcp7engines14analysis_fetch5testss_55normalize_streams_payload_streams_non_array_passthrough
FN:1168,_RNvNtNtNtCsgTXWXfwjzne_17intervals_icu_mcp7engines14analysis_fetch5testss_55normalize_upcoming_events_payload_non_array_passthrough
FN:774,_RNvNtNtNtCsgTXWXfwjzne_17intervals_icu_mcp7engines14analysis_fetch5testss_56normalize_intervals_payload_extracts_icu_intervals_array
FN:750,_RNvNtNtNtCsgTXWXfwjzne_17intervals_icu_mcp7engines14analysis_fetch5testss_56normalize_upcoming_events_payload_backfills_missing_name
FN:1204,_RNvNtNtNtCsgTXWXfwjzne_17intervals_icu_mcp7engines14analysis_fetch5testss_58normalize_upcoming_events_payload_empty_name_uses_category
FN:692,_RNvNtNtNtCsgTXWXfwjzne_17intervals_icu_mcp7engines14analysis_fetch5testss_60daily_load_series_aggregates_multiple_activities_on_same_day
FN:1188,_RNvNtNtNtCsgTXWXfwjzne_17intervals_icu_mcp7engines14analysis_fetch5testss_61normalize_upcoming_events_payload_empty_name_uses_description
FN:1219,_RNvNtNtNtCsgTXWXfwjzne_17intervals_icu_mcp7engines14analysis_fetch5testss_61normalize_upcoming_events_payload_no_name_fallback_to_default
FN:1256,_RNvNtNtNtCsgTXWXfwjzne_17intervals_icu_mcp7engines14analysis_fetch5testss_62normalize_intervals_payload_no_intervals_or_groups_passthrough
FN:799,_RNvNtNtNtCsgTXWXfwjzne_17intervals_icu_mcp7engines14analysis_fetch5testss_64normalize_intervals_payload_falls_back_to_icu_groups_when_needed
FN:675,_RNvNtNtNtCsgTXWXfwjzne_17intervals_icu_mcp7engines14analysis_fetch5testss_67extract_activity_load_prefers_canonical_load_over_moving_time_proxy
FN:1510,_RNvNtNtNtCsgTXWXfwjzne_17intervals_icu_mcp7engines14analysis_fetch5testss_77fetch_period_data_degrades_gracefully_when_upcoming_workouts_are_rate_limited
FN:1470,_RNvNtNtNtCsgTXWXfwjzne_17intervals_icu_mcp7engines14analysis_fetch5testss_80fetch_period_data_reuses_single_upcoming_fetch_for_calendar_and_planned_workouts
FN:1531,_RNCNCNvNtNtNtCsgTXWXfwjzne_17intervals_icu_mcp7engines14analysis_fetch5testss_77fetch_period_data_degrades_gracefully_when_upcoming_workouts_are_rate_limited00Bb_
FN:1505,_RNCNCNvNtNtNtCsgTXWXfwjzne_17intervals_icu_mcp7engines14analysis_fetch5testss_80fetch_period_data_reuses_single_upcoming_fetch_for_calendar_and_planned_workouts00Bb_
FN:1510,_RNCNvNtNtNtCsgTXWXfwjzne_17intervals_icu_mcp7engines14analysis_fetch5testss_77fetch_period_data_degrades_gracefully_when_upcoming_workouts_are_rate_limited0B9_
FN:1470,_RNCNvNtNtNtCsgTXWXfwjzne_17intervals_icu_mcp7engines14analysis_fetch5testss_80fetch_period_data_reuses_single_upcoming_fetch_for_calendar_and_planned_workouts0B9_
FNDA:0,_RNvNtNtCsgTXWXfwjzne_17intervals_icu_mcp7engines14analysis_fetch15fetch_race_data
FNDA:17,_RNvNtNtCsgTXWXfwjzne_17intervals_icu_mcp7engines14analysis_fetch16parse_event_date
FNDA:21,_RNvNtNtCsgTXWXfwjzne_17intervals_icu_mcp7engines14analysis_fetch17fetch_period_data
FNDA:0,_RNvNtNtCsgTXWXfwjzne_17intervals_icu_mcp7engines14analysis_fetch19fetch_recovery_data
FNDA:40,_RNvNtNtCsgTXWXfwjzne_17intervals_icu_mcp7engines14analysis_fetch19parse_activity_date
FNDA:11,_RNvNtNtCsgTXWXfwjzne_17intervals_icu_mcp7engines14analysis_fetch21build_previous_window
FNDA:14,_RNvNtNtCsgTXWXfwjzne_17intervals_icu_mcp7engines14analysis_fetch21extract_activity_load
FNDA:7,_RNvNtNtCsgTXWXfwjzne_17intervals_icu_mcp7engines14analysis_fetch21parse_planned_workout
FNDA:38,_RNvNtNtCsgTXWXfwjzne_17intervals_icu_mcp7engines14analysis_fetch22dedupe_and_sort_events
FNDA:3,_RNvNtNtCsgTXWXfwjzne_17intervals_icu_mcp7engines14analysis_fetch23build_daily_load_series
FNDA:9,_RNvNtNtCsgTXWXfwjzne_17intervals_icu_mcp7engines14analysis_fetch25fetch_single_workout_data
FNDA:10,_RNvNtNtCsgTXWXfwjzne_17intervals_icu_mcp7engines14analysis_fetch25normalize_streams_payload
FNDA:6,_RNvNtNtCsgTXWXfwjzne_17intervals_icu_mcp7engines14analysis_fetch27normalize_intervals_payload
FNDA:1,_RNvNtNtCsgTXWXfwjzne_17intervals_icu_mcp7engines14analysis_fetch27upcoming_rate_limit_warning
FNDA:12,_RNvNtNtCsgTXWXfwjzne_17intervals_icu_mcp7engines14analysis_fetch29fetch_calendar_events_between
FNDA:2,_RNvNtNtCsgTXWXfwjzne_17intervals_icu_mcp7engines14analysis_fetch33normalize_stream_descriptor_array
FNDA:7,_RNvNtNtCsgTXWXfwjzne_17intervals_icu_mcp7engines14analysis_fetch33normalize_upcoming_events_payload
FNDA:0,_RNCNCNCNCNvNtNtCsgTXWXfwjzne_17intervals_icu_mcp7engines14analysis_fetch21extract_activity_load0000Bd_
FNDA:0,_RNCNCNCNCNvNtNtCsgTXWXfwjzne_17intervals_icu_mcp7engines14analysis_fetch21extract_activity_loads_0000Bd_
FNDA:0,_RNCNCNCNvNtNtCsgTXWXfwjzne_17intervals_icu_mcp7engines14analysis_fetch21extract_activity_load000Bb_
FNDA:0,_RNCNCNCNvNtNtCsgTXWXfwjzne_17intervals_icu_mcp7engines14analysis_fetch21extract_activity_loads_000Bb_
FNDA:3,_RNCNCNCNvNtNtCsgTXWXfwjzne_17intervals_icu_mcp7engines14analysis_fetch33normalize_upcoming_events_payload0s0_00Bb_
FNDA:0,_RNCNCNvNtNtCsgTXWXfwjzne_17intervals_icu_mcp7engines14analysis_fetch17fetch_period_data00B9_
FNDA:0,_RNCNCNvNtNtCsgTXWXfwjzne_17intervals_icu_mcp7engines14analysis_fetch17fetch_period_data0s0_0B9_
FNDA:0,_RNCNCNvNtNtCsgTXWXfwjzne_17intervals_icu_mcp7engines14analysis_fetch17fetch_period_data0s1_0B9_
FNDA:30,_RNCNCNvNtNtCsgTXWXfwjzne_17intervals_icu_mcp7engines14analysis_fetch17fetch_period_data0s2_0B9_
FNDA:34,_RNCNCNvNtNtCsgTXWXfwjzne_17intervals_icu_mcp7engines14analysis_fetch17fetch_period_data0s_0B9_
FNDA:0,_RNCNCNvNtNtCsgTXWXfwjzne_17intervals_icu_mcp7engines14analysis_fetch19fetch_recovery_data00B9_
FNDA:0,_RNCNCNvNtNtCsgTXWXfwjzne_17intervals_icu_mcp7engines14analysis_fetch19fetch_recovery_data0s0_0B9_
FNDA:0,_RNCNCNvNtNtCsgTXWXfwjzne_17intervals_icu_mcp7engines14analysis_fetch19fetch_recovery_data0s_0B9_
FNDA:9,_RNCNCNvNtNtCsgTXWXfwjzne_17intervals_icu_mcp7engines14analysis_fetch21extract_activity_load00B9_
FNDA:2,_RNCNCNvNtNtCsgTXWXfwjzne_17intervals_icu_mcp7engines14analysis_fetch21extract_activity_loads_00B9_
FNDA:2,_RNCNCNvNtNtCsgTXWXfwjzne_17intervals_icu_mcp7engines14analysis_fetch21extract_activity_loads_0s_0B9_
FNDA:4,_RNCNCNvNtNtCsgTXWXfwjzne_17intervals_icu_mcp7engines14analysis_fetch21parse_planned_workouts_00B9_
FNDA:1,_RNCNCNvNtNtCsgTXWXfwjzne_17intervals_icu_mcp7engines14analysis_fetch21parse_planned_workouts_0s_0B9_
FNDA:2,_RNCNCNvNtNtCsgTXWXfwjzne_17intervals_icu_mcp7engines14analysis_fetch22dedupe_and_sort_events00B9_
FNDA:4,_RNCNCNvNtNtCsgTXWXfwjzne_17intervals_icu_mcp7engines14analysis_fetch22dedupe_and_sort_eventss_00B9_
FNDA:0,_RNCNCNvNtNtCsgTXWXfwjzne_17intervals_icu_mcp7engines14analysis_fetch22dedupe_and_sort_eventss_0s0_0B9_
FNDA:0,_RNCNCNvNtNtCsgTXWXfwjzne_17intervals_icu_mcp7engines14analysis_fetch22dedupe_and_sort_eventss_0s_0B9_
FNDA:0,_RNCNCNvNtNtCsgTXWXfwjzne_17intervals_icu_mcp7engines14analysis_fetch25fetch_single_workout_data00B9_
FNDA:0,_RNCNCNvNtNtCsgTXWXfwjzne_17intervals_icu_mcp7engines14analysis_fetch25fetch_single_workout_data0s1_0B9_
FNDA:0,_RNCNCNvNtNtCsgTXWXfwjzne_17intervals_icu_mcp7engines14analysis_fetch25fetch_single_workout_data0s2_0B9_
FNDA:0,_RNCNCNvNtNtCsgTXWXfwjzne_17intervals_icu_mcp7engines14analysis_fetch25fetch_single_workout_data0s8_0B9_
FNDA:0,_RNCNCNvNtNtCsgTXWXfwjzne_17intervals_icu_mcp7engines14analysis_fetch25fetch_single_workout_data0s9_0B9_
FNDA:1,_RNCNCNvNtNtCsgTXWXfwjzne_17intervals_icu_mcp7engines14analysis_fetch25fetch_single_workout_data0s_0B9_
FNDA:0,_RNCNCNvNtNtCsgTXWXfwjzne_17intervals_icu_mcp7engines14analysis_fetch29fetch_calendar_events_between00B9_
FNDA:0,_RNCNCNvNtNtCsgTXWXfwjzne_17intervals_icu_mcp7engines14analysis_fetch29fetch_calendar_events_between0s0_0B9_
FNDA:0,_RNCNCNvNtNtCsgTXWXfwjzne_17intervals_icu_mcp7engines14analysis_fetch29fetch_calendar_events_between0s_0B9_
FNDA:2,_RNCNCNvNtNtCsgTXWXfwjzne_17intervals_icu_mcp7engines14analysis_fetch33normalize_stream_descriptor_arrays_00B9_
FNDA:4,_RNCNCNvNtNtCsgTXWXfwjzne_17intervals_icu_mcp7engines14analysis_fetch33normalize_upcoming_events_payload00B9_
FNDA:3,_RNCNCNvNtNtCsgTXWXfwjzne_17intervals_icu_mcp7engines14analysis_fetch33normalize_upcoming_events_payload0s0_0B9_
FNDA:5,_RNCNCNvNtNtCsgTXWXfwjzne_17intervals_icu_mcp7engines14analysis_fetch33normalize_upcoming_events_payload0s_0B9_
FNDA:0,_RNCNvNtNtCsgTXWXfwjzne_17intervals_icu_mcp7engines14analysis_fetch15fetch_race_data0B7_
FNDA:1,_RNCNvNtNtCsgTXWXfwjzne_17intervals_icu_mcp7engines14analysis_fetch16parse_event_date0B7_
FNDA:16,_RNCNvNtNtCsgTXWXfwjzne_17intervals_icu_mcp7engines14analysis_fetch16parse_event_dates_0B7_
FNDA:21,_RNCNvNtNtCsgTXWXfwjzne_17intervals_icu_mcp7engines14analysis_fetch17fetch_period_data0B7_
FNDA:0,_RNCNvNtNtCsgTXWXfwjzne_17intervals_icu_mcp7engines14analysis_fetch19fetch_recovery_data0B7_
FNDA:3,_RNCNvNtNtCsgTXWXfwjzne_17intervals_icu_mcp7engines14analysis_fetch19parse_activity_date0B7_
FNDA:37,_RNCNvNtNtCsgTXWXfwjzne_17intervals_icu_mcp7engines14analysis_fetch19parse_activity_dates_0B7_
FNDA:21,_RNCNvNtNtCsgTXWXfwjzne_17intervals_icu_mcp7engines14analysis_fetch21extract_activity_load0B7_
FNDA:3,_RNCNvNtNtCsgTXWXfwjzne_17intervals_icu_mcp7engines14analysis_fetch21extract_activity_loads_0B7_
FNDA:1,_RNCNvNtNtCsgTXWXfwjzne_17intervals_icu_mcp7engines14analysis_fetch21parse_planned_workout0B7_
FNDA:2,_RNCNvNtNtCsgTXWXfwjzne_17intervals_icu_mcp7engines14analysis_fetch21parse_planned_workouts0_0B7_
FNDA:2,_RNCNvNtNtCsgTXWXfwjzne_17intervals_icu_mcp7engines14analysis_fetch21parse_planned_workouts1_0B7_
FNDA:1,_RNCNvNtNtCsgTXWXfwjzne_17intervals_icu_mcp7engines14analysis_fetch21parse_planned_workouts2_0B7_
FNDA:5,_RNCNvNtNtCsgTXWXfwjzne_17intervals_icu_mcp7engines14analysis_fetch21parse_planned_workouts_0B7_
FNDA:26,_RNCNvNtNtCsgTXWXfwjzne_17intervals_icu_mcp7engines14analysis_fetch22dedupe_and_sort_events0B7_
FNDA:7,_RNCNvNtNtCsgTXWXfwjzne_17intervals_icu_mcp7engines14analysis_fetch22dedupe_and_sort_eventss_0B7_
FNDA:1,_RNCNvNtNtCsgTXWXfwjzne_17intervals_icu_mcp7engines14analysis_fetch23build_daily_load_series0B7_
FNDA:9,_RNCNvNtNtCsgTXWXfwjzne_17intervals_icu_mcp7engines14analysis_fetch25fetch_single_workout_data0B7_
FNDA:12,_RNCNvNtNtCsgTXWXfwjzne_17intervals_icu_mcp7engines14analysis_fetch29fetch_calendar_events_between0B7_
FNDA:1,_RNCNvNtNtCsgTXWXfwjzne_17intervals_icu_mcp7engines14analysis_fetch33normalize_stream_descriptor_array0B7_
FNDA:3,_RNCNvNtNtCsgTXWXfwjzne_17intervals_icu_mcp7engines14analysis_fetch33normalize_stream_descriptor_arrays0_0B7_
FNDA:2,_RNCNvNtNtCsgTXWXfwjzne_17intervals_icu_mcp7engines14analysis_fetch33normalize_stream_descriptor_arrays_0B7_
FNDA:8,_RNCNvNtNtCsgTXWXfwjzne_17intervals_icu_mcp7engines14analysis_fetch33normalize_upcoming_events_payload0B7_
FNDA:6,_RNvNtNtNtCsgTXWXfwjzne_17intervals_icu_mcp7engines14analysis_fetch5tests8activity
FNDA:1,_RNvNtNtNtCsgTXWXfwjzne_17intervals_icu_mcp7engines14analysis_fetch5testss_24parse_event_date_invalid
FNDA:1,_RNvNtNtNtCsgTXWXfwjzne_17intervals_icu_mcp7engines14analysis_fetch5testss_24race_fetch_request_clone
FNDA:1,_RNvNtNtNtCsgTXWXfwjzne_17intervals_icu_mcp7engines14analysis_fetch5testss_24race_fetch_request_debug
FNDA:1,_RNvNtNtNtCsgTXWXfwjzne_17intervals_icu_mcp7engines14analysis_fetch5testss_26parse_event_date_with_time
FNDA:1,_RNvNtNtNtCsgTXWXfwjzne_17intervals_icu_mcp7engines14analysis_fetch5testss_26period_fetch_request_clone
FNDA:1,_RNvNtNtNtCsgTXWXfwjzne_17intervals_icu_mcp7engines14analysis_fetch5testss_26period_fetch_request_debug
FNDA:1,_RNvNtNtNtCsgTXWXfwjzne_17intervals_icu_mcp7engines14analysis_fetch5testss_27fetched_analysis_data_clone
FNDA:1,_RNvNtNtNtCsgTXWXfwjzne_17intervals_icu_mcp7engines14analysis_fetch5testss_27fetched_analysis_data_debug
FNDA:1,_RNvNtNtNtCsgTXWXfwjzne_17intervals_icu_mcp7engines14analysis_fetch5testss_28recovery_fetch_request_clone
FNDA:1,_RNvNtNtNtCsgTXWXfwjzne_17intervals_icu_mcp7engines14analysis_fetch5testss_28recovery_fetch_request_debug
FNDA:1,_RNvNtNtNtCsgTXWXfwjzne_17intervals_icu_mcp7engines14analysis_fetch5testss_29fetched_analysis_data_default
FNDA:1,_RNvNtNtNtCsgTXWXfwjzne_17intervals_icu_mcp7engines14analysis_fetch5testss_29parse_activity_date_with_time
FNDA:1,_RNvNtNtNtCsgTXWXfwjzne_17intervals_icu_mcp7engines14analysis_fetch5testss_29parse_event_date_without_time
FNDA:1,_RNvNtNtNtCsgTXWXfwjzne_17intervals_icu_mcp7engines14analysis_fetch5testss_31parse_planned_workout_string_id
FNDA:1,_RNvNtNtNtCsgTXWXfwjzne_17intervals_icu_mcp7engines14analysis_fetch5testss_32extract_activity_load_non_object
FNDA:1,_RNvNtNtNtCsgTXWXfwjzne_17intervals_icu_mcp7engines14analysis_fetch5testss_32extract_activity_load_none_input
FNDA:1,_RNvNtNtNtCsgTXWXfwjzne_17intervals_icu_mcp7engines14analysis_fetch5testss_32parse_activity_date_without_time
FNDA:1,_RNvNtNtNtCsgTXWXfwjzne_17intervals_icu_mcp7engines14analysis_fetch5testss_32parse_planned_workout_missing_id
FNDA:1,_RNvNtNtNtCsgTXWXfwjzne_17intervals_icu_mcp7engines14analysis_fetch5testss_33dedupe_and_sort_events_empty_list
FNDA:1,_RNvNtNtNtCsgTXWXfwjzne_17intervals_icu_mcp7engines14analysis_fetch5testss_34extract_activity_load_integer_load
FNDA:1,_RNvNtNtNtCsgTXWXfwjzne_17intervals_icu_mcp7engines14analysis_fetch5testss_34parse_activity_date_invalid_format
FNDA:1,_RNvNtNtNtCsgTXWXfwjzne_17intervals_icu_mcp7engines14analysis_fetch5testss_34single_workout_fetch_request_clone
FNDA:1,_RNvNtNtNtCsgTXWXfwjzne_17intervals_icu_mcp7engines14analysis_fetch5testss_34single_workout_fetch_request_debug
FNDA:1,_RNvNtNtNtCsgTXWXfwjzne_17intervals_icu_mcp7engines14analysis_fetch5testss_35build_previous_window_7_day_example
FNDA:1,_RNvNtNtNtCsgTXWXfwjzne_17intervals_icu_mcp7engines14analysis_fetch5testss_36build_previous_window_correct_length
FNDA:1,_RNvNtNtNtCsgTXWXfwjzne_17intervals_icu_mcp7engines14analysis_fetch5testss_36dedupe_and_sort_events_sorts_by_date
FNDA:1,_RNvNtNtNtCsgTXWXfwjzne_17intervals_icu_mcp7engines14analysis_fetch5testss_37extract_activity_load_no_load_or_time
FNDA:1,_RNvNtNtNtCsgTXWXfwjzne_17intervals_icu_mcp7engines14analysis_fetch5testss_40parse_planned_workout_missing_start_date
FNDA:1,_RNvNtNtNtCsgTXWXfwjzne_17intervals_icu_mcp7engines14analysis_fetch5testss_41build_previous_window_adjacent_to_current
FNDA:1,_RNvNtNtNtCsgTXWXfwjzne_17intervals_icu_mcp7engines14analysis_fetch5testss_41extract_activity_load_moving_time_integer
FNDA:1,_RNvNtNtNtCsgTXWXfwjzne_17intervals_icu_mcp7engines14analysis_fetch5testss_42extract_activity_load_camelcase_load_field
FNDA:1,_RNvNtNtNtCsgTXWXfwjzne_17intervals_icu_mcp7engines14analysis_fetch5testss_43normalize_streams_payload_array_passthrough
FNDA:1,_RNvNtNtNtCsgTXWXfwjzne_17intervals_icu_mcp7engines14analysis_fetch5testss_45normalize_intervals_payload_array_passthrough
FNDA:1,_RNvNtNtNtCsgTXWXfwjzne_17intervals_icu_mcp7engines14analysis_fetch5testss_45previous_window_matches_current_window_length
FNDA:1,_RNvNtNtNtCsgTXWXfwjzne_17intervals_icu_mcp7engines14analysis_fetch5testss_46daily_load_series_fills_missing_days_with_zero
FNDA:1,_RNvNtNtNtCsgTXWXfwjzne_17intervals_icu_mcp7engines14analysis_fetch5testss_47dedupe_and_sort_events_removes_duplicates_by_id
FNDA:1,_RNvNtNtNtCsgTXWXfwjzne_17intervals_icu_mcp7engines14analysis_fetch5testss_48extract_activity_load_alternate_load_field_names
FNDA:1,_RNvNtNtNtCsgTXWXfwjzne_17intervals_icu_mcp7engines14analysis_fetch5testss_48normalize_streams_payload_non_object_passthrough
FNDA:1,_RNvNtNtNtCsgTXWXfwjzne_17intervals_icu_mcp7engines14analysis_fetch5testss_50normalize_intervals_payload_non_object_passthrough
FNDA:1,_RNvNtNtNtCsgTXWXfwjzne_17intervals_icu_mcp7engines14analysis_fetch5testss_50parse_planned_workout_no_description_uses_fallback
FNDA:1,_RNvNtNtNtCsgTXWXfwjzne_17intervals_icu_mcp7engines14analysis_fetch5testss_51dedupe_and_sort_events_without_id_uses_fallback_key
FNDA:1,_RNvNtNtNtCsgTXWXfwjzne_17intervals_icu_mcp7engines14analysis_fetch5testss_51normalize_streams_payload_extracts_descriptor_array
FNDA:1,_RNvNtNtNtCsgTXWXfwjzne_17intervals_icu_mcp7engines14analysis_fetch5testss_52normalize_streams_payload_extracts_nested_stream_map
FNDA:1,_RNvNtNtNtCsgTXWXfwjzne_17intervals_icu_mcp7engines14analysis_fetch5testss_52normalize_streams_payload_no_streams_key_passthrough
FNDA:1,_RNvNtNtNtCsgTXWXfwjzne_17intervals_icu_mcp7engines14analysis_fetch5testss_53normalize_upcoming_events_payload_with_name_unchanged
FNDA:1,_RNvNtNtNtCsgTXWXfwjzne_17intervals_icu_mcp7engines14analysis_fetch5testss_54dedupe_and_sort_events_prefers_unique_calendar_entries
FNDA:1,_RNvNtNtNtCsgTXWXfwjzne_17intervals_icu_mcp7engines14analysis_fetch5testss_54parse_planned_workout_uses_name_if_description_missing
FNDA:1,_RNvNtNtNtCsgTXWXfwjzne_17intervals_icu_mcp7engines14analysis_fetch5testss_54parse_planned_workout_with_paired_activity_id_excluded
FNDA:1,_RNvNtNtNtCsgTXWXfwjzne_17intervals_icu_mcp7engines14analysis_fetch5testss_55extract_activity_load_falls_back_to_moving_time_minutes
FNDA:1,_RNvNtNtNtCsgTXWXfwjzne_17intervals_icu_mcp7engines14analysis_fetch5testss_55normalize_streams_payload_streams_non_array_passthrough
FNDA:1,_RNvNtNtNtCsgTXWXfwjzne_17intervals_icu_mcp7engines14analysis_fetch5testss_55normalize_upcoming_events_payload_non_array_passthrough
FNDA:1,_RNvNtNtNtCsgTXWXfwjzne_17intervals_icu_mcp7engines14analysis_fetch5testss_56normalize_intervals_payload_extracts_icu_intervals_array
FNDA:1,_RNvNtNtNtCsgTXWXfwjzne_17intervals_icu_mcp7engines14analysis_fetch5testss_56normalize_upcoming_events_payload_backfills_missing_name
FNDA:1,_RNvNtNtNtCsgTXWXfwjzne_17intervals_icu_mcp7engines14analysis_fetch5testss_58normalize_upcoming_events_payload_empty_name_uses_category
FNDA:1,_RNvNtNtNtCsgTXWXfwjzne_17intervals_icu_mcp7engines14analysis_fetch5testss_60daily_load_series_aggregates_multiple_activities_on_same_day
FNDA:1,_RNvNtNtNtCsgTXWXfwjzne_17intervals_icu_mcp7engines14analysis_fetch5testss_61normalize_upcoming_events_payload_empty_name_uses_description
FNDA:1,_RNvNtNtNtCsgTXWXfwjzne_17intervals_icu_mcp7engines14analysis_fetch5testss_61normalize_upcoming_events_payload_no_name_fallback_to_default
FNDA:1,_RNvNtNtNtCsgTXWXfwjzne_17intervals_icu_mcp7engines14analysis_fetch5testss_62normalize_intervals_payload_no_intervals_or_groups_passthrough
FNDA:1,_RNvNtNtNtCsgTXWXfwjzne_17intervals_icu_mcp7engines14analysis_fetch5testss_64normalize_intervals_payload_falls_back_to_icu_groups_when_needed
FNDA:1,_RNvNtNtNtCsgTXWXfwjzne_17intervals_icu_mcp7engines14analysis_fetch5testss_67extract_activity_load_prefers_canonical_load_over_moving_time_proxy
FNDA:1,_RNvNtNtNtCsgTXWXfwjzne_17intervals_icu_mcp7engines14analysis_fetch5testss_77fetch_period_data_degrades_gracefully_when_upcoming_workouts_are_rate_limited
FNDA:1,_RNvNtNtNtCsgTXWXfwjzne_17intervals_icu_mcp7engines14analysis_fetch5testss_80fetch_period_data_reuses_single_upcoming_fetch_for_calendar_and_planned_workouts
FNDA:1,_RNCNCNvNtNtNtCsgTXWXfwjzne_17intervals_icu_mcp7engines14analysis_fetch5testss_77fetch_period_data_degrades_gracefully_when_upcoming_workouts_are_rate_limited00Bb_
FNDA:2,_RNCNCNvNtNtNtCsgTXWXfwjzne_17intervals_icu_mcp7engines14analysis_fetch5testss_80fetch_period_data_reuses_single_upcoming_fetch_for_calendar_and_planned_workouts00Bb_
FNDA:1,_RNCNvNtNtNtCsgTXWXfwjzne_17intervals_icu_mcp7engines14analysis_fetch5testss_77fetch_period_data_degrades_gracefully_when_upcoming_workouts_are_rate_limited0B9_
FNDA:1,_RNCNvNtNtNtCsgTXWXfwjzne_17intervals_icu_mcp7engines14analysis_fetch5testss_80fetch_period_data_reuses_single_upcoming_fetch_for_calendar_and_planned_workouts0B9_
FNF:140
FNH:118
DA:62,11
DA:63,11
DA:64,11
DA:65,11
DA:66,11
DA:67,11
DA:69,14
DA:70,14
DA:72,12
DA:73,12
DA:74,21
DA:75,21
DA:76,21
DA:77,21
DA:78,21
DA:79,12
DA:80,3
DA:81,3
DA:82,3
DA:83,3
DA:84,3
DA:85,14
DA:87,3
DA:88,3
DA:89,3
DA:90,3
DA:91,3
DA:92,3
DA:94,5
DA:95,5
DA:96,5
DA:97,5
DA:98,5
DA:99,5
DA:100,5
DA:101,0
DA:104,3
DA:105,3
DA:106,16
DA:107,13
DA:108,13
DA:109,13
DA:111,3
DA:112,3
DA:114,40
DA:115,40
DA:116,40
DA:117,40
DA:118,40
DA:119,40
DA:121,17
DA:122,17
DA:123,17
DA:124,17
DA:125,17
DA:126,17
DA:128,38
DA:129,38
DA:130,38
DA:131,26
DA:132,2
DA:136,2
DA:137,26
DA:138,26
DA:140,38
DA:141,7
DA:142,7
DA:143,7
DA:144,7
DA:145,7
DA:146,7
DA:147,7
DA:148,7
DA:150,38
DA:151,38
DA:153,7
DA:154,7
DA:155,1
DA:159,6
DA:160,6
DA:161,8
DA:162,8
DA:163,0
DA:166,8
DA:167,8
DA:168,8
DA:169,8
DA:170,8
DA:171,1
DA:172,7
DA:174,7
DA:175,7
DA:176,7
DA:177,7
DA:178,7
DA:179,3
DA:180,3
DA:181,3
DA:182,3
DA:183,3
DA:184,7
DA:186,7
DA:187,7
DA:188,7
DA:189,8
DA:190,6
DA:192,7
DA:194,1
DA:195,1
DA:196,1
DA:198,12
DA:199,12
DA:200,12
DA:201,12
DA:202,12
DA:203,12
DA:204,12
DA:205,12
DA:207,12
DA:208,12
DA:209,12
DA:210,12
DA:211,12
DA:212,12
DA:213,12
DA:214,0
DA:216,12
DA:217,0
DA:218,0
DA:219,0
DA:220,0
DA:221,0
DA:223,0
DA:224,0
DA:225,0
DA:226,0
DA:227,12
DA:229,12
DA:230,12
DA:232,7
DA:233,7
DA:234,7
DA:235,7
DA:236,7
DA:238,7
DA:239,7
DA:240,7
DA:241,7
DA:243,1
DA:244,6
DA:246,6
DA:247,5
DA:248,5
DA:249,5
DA:250,5
DA:251,5
DA:252,5
DA:253,4
DA:254,4
DA:255,4
DA:256,4
DA:257,4
DA:258,4
DA:259,4
DA:261,4
DA:262,4
DA:263,4
DA:264,4
DA:265,4
DA:266,4
DA:267,4
DA:268,4
DA:269,4
DA:270,7
DA:272,6
DA:273,6
DA:274,2
DA:275,4
DA:277,4
DA:278,1
DA:281,3
DA:282,1
DA:283,2
DA:285,2
DA:286,1
DA:287,1
DA:289,1
DA:290,6
DA:292,2
DA:293,2
DA:295,3
DA:296,3
DA:297,3
DA:298,3
DA:299,3
DA:300,3
DA:301,2
DA:302,2
DA:303,2
DA:304,2
DA:305,3
DA:306,3
DA:309,2
DA:310,0
DA:312,2
DA:314,2
DA:316,10
DA:317,10
DA:318,1
DA:319,9
DA:321,9
DA:322,1
DA:325,8
DA:326,3
DA:327,1
DA:328,2
DA:330,2
DA:331,1
DA:332,1
DA:333,5
DA:335,6
DA:336,10
DA:338,21
DA:339,21
DA:340,21
DA:341,21
DA:342,21
DA:343,21
DA:344,21
DA:345,21
DA:346,21
DA:348,21
DA:349,21
DA:350,34
DA:351,21
DA:353,21
DA:354,21
DA:355,21
DA:356,21
DA:358,21
DA:359,21
DA:360,21
DA:362,21
DA:363,21
DA:364,21
DA:365,21
DA:366,21
DA:367,21
DA:368,21
DA:369,0
DA:371,21
DA:372,2
DA:373,2
DA:374,2
DA:375,2
DA:377,1
DA:378,1
DA:379,1
DA:380,1
DA:381,0
DA:382,0
DA:383,1
DA:384,1
DA:386,1
DA:387,1
DA:388,1
DA:389,0
DA:390,0
DA:391,0
DA:392,0
DA:393,0
DA:396,19
DA:398,21
DA:400,21
DA:401,32
DA:402,32
DA:403,32
DA:404,32
DA:405,32
DA:406,32
DA:408,2
DA:410,21
DA:411,1
DA:413,2
DA:414,2
DA:415,1
DA:416,1
DA:417,1
DA:418,1
DA:419,0
DA:420,1
DA:421,1
DA:422,0
DA:424,20
DA:426,30
DA:427,30
DA:428,30
DA:430,21
DA:431,7
DA:432,14
DA:434,21
DA:435,21
DA:437,0
DA:438,0
DA:439,0
DA:440,0
DA:441,0
DA:442,0
DA:444,0
DA:445,0
DA:446,0
DA:447,0
DA:450,0
DA:453,0
DA:454,0
DA:455,0
DA:456,0
DA:457,0
DA:460,0
DA:461,0
DA:462,0
DA:463,0
DA:465,0
DA:466,0
DA:467,0
DA:468,0
DA:469,0
DA:470,0
DA:471,0
DA:473,9
DA:474,9
DA:475,9
DA:476,9
DA:477,9
DA:478,9
DA:479,9
DA:480,9
DA:481,9
DA:484,9
DA:485,1
DA:486,1
DA:487,1
DA:488,1
DA:489,1
DA:491,8
DA:494,9
DA:495,4
DA:496,4
DA:497,4
DA:498,4
DA:499,4
DA:501,5
DA:504,9
DA:505,1
DA:506,1
DA:507,1
DA:508,1
DA:510,8
DA:513,9
DA:514,1
DA:515,1
DA:516,1
DA:519,0
DA:521,1
DA:523,0
DA:524,0
DA:529,0
DA:533,8
DA:536,9
DA:537,1
DA:538,1
DA:539,1
DA:540,1
DA:541,0
DA:546,1
DA:552,1
DA:554,0
DA:555,0
DA:560,0
DA:564,8
DA:567,9
DA:568,1
DA:569,1
DA:570,1
DA:573,0
DA:575,1
DA:577,0
DA:578,0
DA:583,0
DA:587,8
DA:591,9
DA:592,9
DA:593,9
DA:594,9
DA:595,9
DA:596,9
DA:597,9
DA:598,9
DA:599,9
DA:600,9
DA:601,9
DA:602,9
DA:604,9
DA:606,0
DA:607,0
DA:608,0
DA:609,0
DA:610,0
DA:611,0
DA:612,0
DA:613,0
DA:614,0
DA:615,0
DA:616,0
DA:617,0
DA:618,0
DA:620,0
DA:621,0
DA:632,1
DA:633,1
DA:634,1
DA:635,1
DA:637,1
DA:639,1
DA:640,1
DA:641,1
DA:643,6
DA:644,6
DA:645,6
DA:646,6
DA:647,6
DA:648,6
DA:649,6
DA:650,6
DA:653,1
DA:654,1
DA:655,1
DA:656,1
DA:658,1
DA:659,1
DA:660,1
DA:661,1
DA:662,1
DA:663,1
DA:665,1
DA:667,1
DA:668,1
DA:669,1
DA:670,1
DA:671,1
DA:672,1
DA:675,1
DA:676,1
DA:677,1
DA:678,1
DA:681,1
DA:682,1
DA:685,1
DA:686,1
DA:688,1
DA:689,1
DA:692,1
DA:693,1
DA:694,1
DA:695,1
DA:697,1
DA:698,1
DA:699,1
DA:700,1
DA:701,1
DA:702,1
DA:703,1
DA:704,1
DA:705,1
DA:707,1
DA:709,1
DA:710,1
DA:711,1
DA:714,1
DA:715,1
DA:716,1
DA:717,1
DA:718,1
DA:719,1
DA:720,1
DA:721,1
DA:722,1
DA:723,1
DA:724,1
DA:725,1
DA:726,1
DA:727,1
DA:728,1
DA:729,1
DA:730,1
DA:731,1
DA:732,1
DA:733,1
DA:734,1
DA:735,1
DA:736,1
DA:737,1
DA:738,1
DA:739,1
DA:742,1
DA:744,1
DA:745,1
DA:746,1
DA:747,1
DA:750,1
DA:751,1
DA:753,1
DA:754,1
DA:755,1
DA:756,1
DA:759,1
DA:760,1
DA:761,1
DA:765,1
DA:766,1
DA:767,1
DA:769,1
DA:770,1
DA:771,1
DA:774,1
DA:775,1
DA:776,1
DA:777,1
DA:778,1
DA:779,1
DA:781,1
DA:782,1
DA:786,1
DA:787,1
DA:788,1
DA:789,1
DA:791,1
DA:792,1
DA:793,1
DA:796,1
DA:799,1
DA:800,1
DA:801,1
DA:802,1
DA:803,1
DA:807,1
DA:808,1
DA:809,1
DA:810,1
DA:812,1
DA:813,1
DA:814,1
DA:817,1
DA:818,1
DA:819,1
DA:820,1
DA:821,1
DA:825,1
DA:826,1
DA:827,1
DA:828,1
DA:830,1
DA:831,1
DA:832,1
DA:835,1
DA:836,1
DA:837,1
DA:838,1
DA:839,1
DA:843,1
DA:844,1
DA:845,1
DA:846,1
DA:848,1
DA:849,1
DA:850,1
DA:851,1
DA:852,1
DA:855,1
DA:856,1
DA:859,1
DA:866,1
DA:867,1
DA:868,1
DA:869,1
DA:870,1
DA:871,1
DA:872,1
DA:873,1
DA:874,1
DA:875,1
DA:876,1
DA:879,1
DA:880,1
DA:881,1
DA:882,1
DA:883,1
DA:884,1
DA:885,1
DA:886,1
DA:887,1
DA:888,1
DA:889,1
DA:890,1
DA:897,1
DA:898,1
DA:899,1
DA:900,1
DA:901,1
DA:902,1
DA:903,1
DA:904,1
DA:905,1
DA:906,1
DA:907,1
DA:908,1
DA:911,1
DA:912,1
DA:913,1
DA:914,1
DA:915,1
DA:916,1
DA:917,1
DA:918,1
DA:919,1
DA:920,1
DA:921,1
DA:922,1
DA:923,1
DA:930,1
DA:931,1
DA:932,1
DA:933,1
DA:934,1
DA:935,1
DA:936,1
DA:939,1
DA:940,1
DA:941,1
DA:942,1
DA:943,1
DA:944,1
DA:945,1
DA:946,1
DA:953,1
DA:954,1
DA:955,1
DA:956,1
DA:957,1
DA:958,1
DA:959,1
DA:960,1
DA:963,1
DA:964,1
DA:965,1
DA:966,1
DA:967,1
DA:968,1
DA:969,1
DA:970,1
DA:971,1
DA:978,1
DA:979,1
DA:980,1
DA:981,1
DA:982,1
DA:983,1
DA:984,1
DA:985,1
DA:986,1
DA:987,1
DA:988,1
DA:989,1
DA:990,1
DA:991,1
DA:992,1
DA:993,1
DA:994,1
DA:997,1
DA:998,1
DA:999,1
DA:1000,1
DA:1001,1
DA:1002,1
DA:1003,1
DA:1004,1
DA:1005,1
DA:1006,1
DA:1007,1
DA:1008,1
DA:1011,1
DA:1012,1
DA:1013,1
DA:1014,1
DA:1015,1
DA:1022,1
DA:1023,1
DA:1024,1
DA:1025,1
DA:1026,1
DA:1027,1
DA:1029,1
DA:1032,1
DA:1033,1
DA:1034,1
DA:1035,1
DA:1036,1
DA:1037,1
DA:1039,1
DA:1042,1
DA:1043,1
DA:1044,1
DA:1045,1
DA:1046,1
DA:1053,1
DA:1054,1
DA:1055,1
DA:1056,1
DA:1057,1
DA:1058,1
DA:1060,1
DA:1063,1
DA:1064,1
DA:1065,1
DA:1066,1
DA:1067,1
DA:1068,1
DA:1070,1
DA:1073,1
DA:1074,1
DA:1075,1
DA:1082,1
DA:1083,1
DA:1084,1
DA:1085,1
DA:1086,1
DA:1089,1
DA:1090,1
DA:1091,1
DA:1092,1
DA:1093,1
DA:1094,1
DA:1095,1
DA:1096,1
DA:1097,1
DA:1098,1
DA:1099,1
DA:1100,1
DA:1101,1
DA:1102,1
DA:1103,1
DA:1104,1
DA:1105,1
DA:1106,1
DA:1108,1
DA:1109,1
DA:1110,1
DA:1111,1
DA:1114,1
DA:1115,1
DA:1116,1
DA:1117,1
DA:1118,1
DA:1119,1
DA:1120,1
DA:1121,1
DA:1122,1
DA:1123,1
DA:1124,1
DA:1125,1
DA:1126,1
DA:1127,1
DA:1128,1
DA:1129,1
DA:1130,1
DA:1131,1
DA:1133,1
DA:1134,1
DA:1135,1
DA:1136,1
DA:1137,1
DA:1140,1
DA:1141,1
DA:1142,1
DA:1143,1
DA:1144,1
DA:1145,1
DA:1146,1
DA:1147,1
DA:1148,1
DA:1149,1
DA:1150,1
DA:1151,1
DA:1152,1
DA:1153,1
DA:1154,1
DA:1155,1
DA:1156,1
DA:1157,1
DA:1159,1
DA:1160,1
DA:1161,1
DA:1168,1
DA:1169,1
DA:1170,1
DA:1171,1
DA:1172,1
DA:1175,1
DA:1176,1
DA:1178,1
DA:1179,1
DA:1180,1
DA:1183,1
DA:1184,1
DA:1185,1
DA:1188,1
DA:1189,1
DA:1191,1
DA:1192,1
DA:1193,1
DA:1194,1
DA:1195,1
DA:1198,1
DA:1199,1
DA:1200,1
DA:1201,1
DA:1204,1
DA:1205,1
DA:1207,1
DA:1208,1
DA:1209,1
DA:1210,1
DA:1213,1
DA:1214,1
DA:1215,1
DA:1216,1
DA:1219,1
DA:1220,1
DA:1222,1
DA:1223,1
DA:1224,1
DA:1225,1
DA:1226,1
DA:1229,1
DA:1230,1
DA:1231,1
DA:1232,1
DA:1239,1
DA:1240,1
DA:1241,1
DA:1242,1
DA:1244,1
DA:1245,1
DA:1246,1
DA:1249,1
DA:1250,1
DA:1251,1
DA:1252,1
DA:1253,1
DA:1256,1
DA:1257,1
DA:1258,1
DA:1259,1
DA:1261,1
DA:1262,1
DA:1263,1
DA:1270,1
DA:1272,1
DA:1273,1
DA:1275,1
DA:1277,1
DA:1278,1
DA:1279,1
DA:1282,1
DA:1283,1
DA:1284,1
DA:1285,1
DA:1286,1
DA:1289,1
DA:1290,1
DA:1291,1
DA:1293,1
DA:1294,1
DA:1295,1
DA:1298,1
DA:1299,1
DA:1300,1
DA:1302,1
DA:1303,1
DA:1304,1
DA:1311,1
DA:1312,1
DA:1313,1
DA:1316,1
DA:1317,1
DA:1318,1
DA:1319,1
DA:1322,1
DA:1323,1
DA:1324,1
DA:1325,1
DA:1328,1
DA:1329,1
DA:1330,1
DA:1331,1
DA:1334,1
DA:1335,1
DA:1336,1
DA:1337,1
DA:1340,1
DA:1341,1
DA:1342,1
DA:1343,1
DA:1346,1
DA:1347,1
DA:1348,1
DA:1349,1
DA:1356,1
DA:1357,1
DA:1358,1
DA:1359,1
DA:1361,1
DA:1362,1
DA:1363,1
DA:1366,1
DA:1367,1
DA:1368,1
DA:1369,1
DA:1371,1
DA:1372,1
DA:1373,1
DA:1376,1
DA:1377,1
DA:1378,1
DA:1379,1
DA:1381,1
DA:1382,1
DA:1384,1
DA:1386,1
DA:1388,1
DA:1390,1
DA:1397,1
DA:1398,1
DA:1399,1
DA:1400,1
DA:1401,1
DA:1402,1
DA:1403,1
DA:1405,1
DA:1406,1
DA:1409,1
DA:1410,1
DA:1411,1
DA:1412,1
DA:1413,1
DA:1415,1
DA:1416,1
DA:1419,1
DA:1420,1
DA:1421,1
DA:1422,1
DA:1423,1
DA:1425,1
DA:1426,1
DA:1429,1
DA:1430,1
DA:1431,1
DA:1432,1
DA:1433,1
DA:1435,1
DA:1436,1
DA:1437,1
DA:1438,1
DA:1439,1
DA:1442,1
DA:1443,1
DA:1444,1
DA:1445,1
DA:1446,1
DA:1447,1
DA:1449,1
DA:1450,1
DA:1451,1
DA:1452,1
DA:1453,1
DA:1456,1
DA:1457,1
DA:1458,1
DA:1459,1
DA:1460,1
DA:1461,1
DA:1463,1
DA:1464,1
DA:1465,1
DA:1466,1
DA:1467,1
DA:1470,1
DA:1471,1
DA:1472,1
DA:1473,1
DA:1474,1
DA:1476,1
DA:1477,1
DA:1478,1
DA:1479,1
DA:1482,1
DA:1483,1
DA:1484,1
DA:1485,1
DA:1489,1
DA:1490,1
DA:1491,1
DA:1492,1
DA:1493,1
DA:1495,1
DA:1496,1
DA:1497,1
DA:1499,1
DA:1500,1
DA:1501,1
DA:1502,1
DA:1503,1
DA:1504,1
DA:1505,2
DA:1506,1
DA:1507,1
DA:1510,1
DA:1511,1
DA:1512,1
DA:1513,1
DA:1514,1
DA:1516,1
DA:1517,1
DA:1518,1
DA:1519,1
DA:1520,1
DA:1522,1
DA:1523,1
DA:1524,1
DA:1526,1
DA:1527,1
DA:1528,1
DA:1529,1
DA:1530,1
DA:1531,1
DA:1533,1
DA:1534,1
BRF:0
BRH:0
LF:1116
LH:1017
end_of_record
SF:/Users/solovey/Documents/dev/rusty_intervals_mcp/crates/intervals_icu_mcp/src/engines/coach_guidance.rs
FN:461,_RNCNCNvNtNtCsgTXWXfwjzne_17intervals_icu_mcp7engines14coach_guidance18has_any_alert_code00B9_
FN:455,_RNCNvNtNtCsgTXWXfwjzne_17intervals_icu_mcp7engines14coach_guidance14has_alert_code0B7_
FN:461,_RNCNvNtNtCsgTXWXfwjzne_17intervals_icu_mcp7engines14coach_guidance18has_any_alert_code0B7_
FN:73,_RNvNtNtCsgTXWXfwjzne_17intervals_icu_mcp7engines14coach_guidance12build_alerts
FN:464,_RNvNtNtCsgTXWXfwjzne_17intervals_icu_mcp7engines14coach_guidance14build_guidance
FN:454,_RNvNtNtCsgTXWXfwjzne_17intervals_icu_mcp7engines14coach_guidance14has_alert_code
FN:458,_RNvNtNtCsgTXWXfwjzne_17intervals_icu_mcp7engines14coach_guidance18has_any_alert_code
FN:761,_RNCNvNtNtNtCsgTXWXfwjzne_17intervals_icu_mcp7engines14coach_guidance5testss_21low_hrv_creates_alert0B9_
FN:741,_RNCNvNtNtNtCsgTXWXfwjzne_17intervals_icu_mcp7engines14coach_guidance5testss_26elevated_rhr_creates_alert0B9_
FN:896,_RNCNvNtNtNtCsgTXWXfwjzne_17intervals_icu_mcp7engines14coach_guidance5testss_32high_training_load_creates_alert0B9_
FN:910,_RNCNvNtNtNtCsgTXWXfwjzne_17intervals_icu_mcp7engines14coach_guidance5testss_32low_volume_does_not_create_alert0B9_
FN:724,_RNCNvNtNtNtCsgTXWXfwjzne_17intervals_icu_mcp7engines14coach_guidance5testss_33low_sleep_creates_low_sleep_alert0B9_
FN:924,_RNCNvNtNtNtCsgTXWXfwjzne_17intervals_icu_mcp7engines14coach_guidance5testss_36optimal_volume_does_not_create_alert0B9_
FN:940,_RNCNvNtNtNtCsgTXWXfwjzne_17intervals_icu_mcp7engines14coach_guidance5testss_37fatigue_guidance_without_deep_fatigue0B9_
FN:1172,_RNCNvNtNtNtCsgTXWXfwjzne_17intervals_icu_mcp7engines14coach_guidance5testss_38good_consistency_does_not_create_alert0B9_
FN:1131,_RNCNvNtNtNtCsgTXWXfwjzne_17intervals_icu_mcp7engines14coach_guidance5testss_40polarised_training_does_not_create_alert0B9_
FN:1150,_RNCNvNtNtNtCsgTXWXfwjzne_17intervals_icu_mcp7engines14coach_guidance5testss_42low_consistency_creates_alert_and_guidance0B9_
FN:1155,_RNCNvNtNtNtCsgTXWXfwjzne_17intervals_icu_mcp7engines14coach_guidance5testss_42low_consistency_creates_alert_and_guidances_0B9_
FN:823,_RNCNvNtNtNtCsgTXWXfwjzne_17intervals_icu_mcp7engines14coach_guidance5testss_43high_volume_generates_cautionary_suggestion0B9_
FN:881,_RNCNvNtNtNtCsgTXWXfwjzne_17intervals_icu_mcp7engines14coach_guidance5testss_44fatigue_alert_fires_at_tsb_boundary_minus_100B9_
FN:882,_RNCNvNtNtNtCsgTXWXfwjzne_17intervals_icu_mcp7engines14coach_guidance5testss_44fatigue_alert_fires_at_tsb_boundary_minus_10s_0B9_
FN:1214,_RNCNvNtNtNtCsgTXWXfwjzne_17intervals_icu_mcp7engines14coach_guidance5testss_44fatigue_index_below_threshold_does_not_alert0B9_
FN:1188,_RNCNvNtNtNtCsgTXWXfwjzne_17intervals_icu_mcp7engines14coach_guidance5testss_45high_fatigue_index_creates_alert_and_guidance0B9_
FN:1199,_RNCNvNtNtNtCsgTXWXfwjzne_17intervals_icu_mcp7engines14coach_guidance5testss_45high_fatigue_index_creates_alert_and_guidances0_0B9_
FN:1193,_RNCNvNtNtNtCsgTXWXfwjzne_17intervals_icu_mcp7engines14coach_guidance5testss_45high_fatigue_index_creates_alert_and_guidances_0B9_
FN:707,_RNCNvNtNtNtCsgTXWXfwjzne_17intervals_icu_mcp7engines14coach_guidance5testss_45tsb_below_minus_20_creates_deep_fatigue_alert0B9_
FN:1251,_RNCNvNtNtNtCsgTXWXfwjzne_17intervals_icu_mcp7engines14coach_guidance5testss_47durability_index_above_threshold_does_not_alert0B9_
FN:1230,_RNCNvNtNtNtCsgTXWXfwjzne_17intervals_icu_mcp7engines14coach_guidance5testss_47low_durability_index_creates_alert_and_guidance0B9_
FN:1236,_RNCNvNtNtNtCsgTXWXfwjzne_17intervals_icu_mcp7engines14coach_guidance5testss_47low_durability_index_creates_alert_and_guidances0_0B9_
FN:1231,_RNCNvNtNtNtCsgTXWXfwjzne_17intervals_icu_mcp7engines14coach_guidance5testss_47low_durability_index_creates_alert_and_guidances_0B9_
FN:1013,_RNCNvNtNtNtCsgTXWXfwjzne_17intervals_icu_mcp7engines14coach_guidance5testss_48high_monotony_creates_repetitive_stress_guidance0B9_
FN:1018,_RNCNvNtNtNtCsgTXWXfwjzne_17intervals_icu_mcp7engines14coach_guidance5testss_48high_monotony_creates_repetitive_stress_guidances_0B9_
FN:990,_RNCNvNtNtNtCsgTXWXfwjzne_17intervals_icu_mcp7engines14coach_guidance5testss_50acwr_overreach_creates_overload_alert_and_guidance0B9_
FN:995,_RNCNvNtNtNtCsgTXWXfwjzne_17intervals_icu_mcp7engines14coach_guidance5testss_50acwr_overreach_creates_overload_alert_and_guidances_0B9_
FN:1039,_RNCNvNtNtNtCsgTXWXfwjzne_17intervals_icu_mcp7engines14coach_guidance5testss_50low_recovery_index_creates_recovery_first_guidance0B9_
FN:1040,_RNCNvNtNtNtCsgTXWXfwjzne_17intervals_icu_mcp7engines14coach_guidance5testss_50low_recovery_index_creates_recovery_first_guidances_0B9_
FN:1060,_RNCNvNtNtNtCsgTXWXfwjzne_17intervals_icu_mcp7engines14coach_guidance5testss_54missing_wellness_prevents_overconfident_ready_language0B9_
FN:864,_RNCNvNtNtNtCsgTXWXfwjzne_17intervals_icu_mcp7engines14coach_guidance5testss_55fatigue_tsb_between_minus_10_and_minus_20_creates_alert0B9_
FN:865,_RNCNvNtNtNtCsgTXWXfwjzne_17intervals_icu_mcp7engines14coach_guidance5testss_55fatigue_tsb_between_minus_10_and_minus_20_creates_alerts_0B9_
FN:1108,_RNCNvNtNtNtCsgTXWXfwjzne_17intervals_icu_mcp7engines14coach_guidance5testss_56threshold_biased_polarisation_creates_alert_and_guidance0B9_
FN:1110,_RNCNvNtNtNtCsgTXWXfwjzne_17intervals_icu_mcp7engines14coach_guidance5testss_56threshold_biased_polarisation_creates_alert_and_guidances_0B9_
FN:848,_RNCNvNtNtNtCsgTXWXfwjzne_17intervals_icu_mcp7engines14coach_guidance5testss_62positive_tsb_with_supportive_wellness_creates_ready_suggestion0B9_
FN:967,_RNCNvNtNtNtCsgTXWXfwjzne_17intervals_icu_mcp7engines14coach_guidance5testss_62tier_one_recovery_alert_suppresses_ready_for_key_work_guidance0B9_
FN:969,_RNCNvNtNtNtCsgTXWXfwjzne_17intervals_icu_mcp7engines14coach_guidance5testss_62tier_one_recovery_alert_suppresses_ready_for_key_work_guidances_0B9_
FN:783,_RNCNvNtNtNtCsgTXWXfwjzne_17intervals_icu_mcp7engines14coach_guidance5testss_74low_hrv_alert_uses_personal_baseline_drop_even_when_absolute_value_is_high0B9_
FN:805,_RNCNvNtNtNtCsgTXWXfwjzne_17intervals_icu_mcp7engines14coach_guidance5testss_77low_hrv_alert_does_not_fire_for_personal_norm_even_when_absolute_value_is_low0B9_
FN:745,_RNvNtNtNtCsgTXWXfwjzne_17intervals_icu_mcp7engines14coach_guidance5testss_21low_hrv_creates_alert
FN:728,_RNvNtNtNtCsgTXWXfwjzne_17intervals_icu_mcp7engines14coach_guidance5testss_26elevated_rhr_creates_alert
FN:886,_RNvNtNtNtCsgTXWXfwjzne_17intervals_icu_mcp7engines14coach_guidance5testss_32high_training_load_creates_alert
FN:900,_RNvNtNtNtCsgTXWXfwjzne_17intervals_icu_mcp7engines14coach_guidance5testss_32low_volume_does_not_create_alert
FN:711,_RNvNtNtNtCsgTXWXfwjzne_17intervals_icu_mcp7engines14coach_guidance5testss_33low_sleep_creates_low_sleep_alert
FN:914,_RNvNtNtNtCsgTXWXfwjzne_17intervals_icu_mcp7engines14coach_guidance5testss_36optimal_volume_does_not_create_alert
FN:928,_RNvNtNtNtCsgTXWXfwjzne_17intervals_icu_mcp7engines14coach_guidance5testss_37fatigue_guidance_without_deep_fatigue
FN:1160,_RNvNtNtNtCsgTXWXfwjzne_17intervals_icu_mcp7engines14coach_guidance5testss_38good_consistency_does_not_create_alert
FN:1065,_RNvNtNtNtCsgTXWXfwjzne_17intervals_icu_mcp7engines14coach_guidance5testss_39alert_code_helpers_match_expected_codes
FN:1114,_RNvNtNtNtCsgTXWXfwjzne_17intervals_icu_mcp7engines14coach_guidance5testss_40polarised_training_does_not_create_alert
FN:1136,_RNvNtNtNtCsgTXWXfwjzne_17intervals_icu_mcp7engines14coach_guidance5testss_42low_consistency_creates_alert_and_guidance
FN:809,_RNvNtNtNtCsgTXWXfwjzne_17intervals_icu_mcp7engines14coach_guidance5testss_43high_volume_generates_cautionary_suggestion
FN:869,_RNvNtNtNtCsgTXWXfwjzne_17intervals_icu_mcp7engines14coach_guidance5testss_44fatigue_alert_fires_at_tsb_boundary_minus_10
FN:1204,_RNvNtNtNtCsgTXWXfwjzne_17intervals_icu_mcp7engines14coach_guidance5testss_44fatigue_index_below_threshold_does_not_alert
FN:1176,_RNvNtNtNtCsgTXWXfwjzne_17intervals_icu_mcp7engines14coach_guidance5testss_45high_fatigue_index_creates_alert_and_guidance
FN:695,_RNvNtNtNtCsgTXWXfwjzne_17intervals_icu_mcp7engines14coach_guidance5testss_45tsb_below_minus_20_creates_deep_fatigue_alert
FN:1241,_RNvNtNtNtCsgTXWXfwjzne_17intervals_icu_mcp7engines14coach_guidance5testss_47durability_index_above_threshold_does_not_alert
FN:1218,_RNvNtNtNtCsgTXWXfwjzne_17intervals_icu_mcp7engines14coach_guidance5testss_47low_durability_index_creates_alert_and_guidance
FN:1000,_RNvNtNtNtCsgTXWXfwjzne_17intervals_icu_mcp7engines14coach_guidance5testss_48high_monotony_creates_repetitive_stress_guidance
FN:973,_RNvNtNtNtCsgTXWXfwjzne_17intervals_icu_mcp7engines14coach_guidance5testss_50acwr_overreach_creates_overload_alert_and_guidance
FN:1023,_RNvNtNtNtCsgTXWXfwjzne_17intervals_icu_mcp7engines14coach_guidance5testss_50low_recovery_index_creates_recovery_first_guidance
FN:1044,_RNvNtNtNtCsgTXWXfwjzne_17intervals_icu_mcp7engines14coach_guidance5testss_54missing_wellness_prevents_overconfident_ready_language
FN:852,_RNvNtNtNtCsgTXWXfwjzne_17intervals_icu_mcp7engines14coach_guidance5testss_55fatigue_tsb_between_minus_10_and_minus_20_creates_alert
FN:1089,_RNvNtNtNtCsgTXWXfwjzne_17intervals_icu_mcp7engines14coach_guidance5testss_56threshold_biased_polarisation_creates_alert_and_guidance
FN:828,_RNvNtNtNtCsgTXWXfwjzne_17intervals_icu_mcp7engines14coach_guidance5testss_62positive_tsb_with_supportive_wellness_creates_ready_suggestion
FN:944,_RNvNtNtNtCsgTXWXfwjzne_17intervals_icu_mcp7engines14coach_guidance5testss_62tier_one_recovery_alert_suppresses_ready_for_key_work_guidance
FN:765,_RNvNtNtNtCsgTXWXfwjzne_17intervals_icu_mcp7engines14coach_guidance5testss_74low_hrv_alert_uses_personal_baseline_drop_even_when_absolute_value_is_high
FN:787,_RNvNtNtNtCsgTXWXfwjzne_17intervals_icu_mcp7engines14coach_guidance5testss_77low_hrv_alert_does_not_fire_for_personal_norm_even_when_absolute_value_is_low
FNDA:57,_RNCNCNvNtNtCsgTXWXfwjzne_17intervals_icu_mcp7engines14coach_guidance18has_any_alert_code00B9_
FNDA:142,_RNCNvNtNtCsgTXWXfwjzne_17intervals_icu_mcp7engines14coach_guidance14has_alert_code0B7_
FNDA:12,_RNCNvNtNtCsgTXWXfwjzne_17intervals_icu_mcp7engines14coach_guidance18has_any_alert_code0B7_
FNDA:45,_RNvNtNtCsgTXWXfwjzne_17intervals_icu_mcp7engines14coach_guidance12build_alerts
FNDA:27,_RNvNtNtCsgTXWXfwjzne_17intervals_icu_mcp7engines14coach_guidance14build_guidance
FNDA:379,_RNvNtNtCsgTXWXfwjzne_17intervals_icu_mcp7engines14coach_guidance14has_alert_code
FNDA:28,_RNvNtNtCsgTXWXfwjzne_17intervals_icu_mcp7engines14coach_guidance18has_any_alert_code
FNDA:1,_RNCNvNtNtNtCsgTXWXfwjzne_17intervals_icu_mcp7engines14coach_guidance5testss_21low_hrv_creates_alert0B9_
FNDA:1,_RNCNvNtNtNtCsgTXWXfwjzne_17intervals_icu_mcp7engines14coach_guidance5testss_26elevated_rhr_creates_alert0B9_
FNDA:1,_RNCNvNtNtNtCsgTXWXfwjzne_17intervals_icu_mcp7engines14coach_guidance5testss_32high_training_load_creates_alert0B9_
FNDA:0,_RNCNvNtNtNtCsgTXWXfwjzne_17intervals_icu_mcp7engines14coach_guidance5testss_32low_volume_does_not_create_alert0B9_
FNDA:1,_RNCNvNtNtNtCsgTXWXfwjzne_17intervals_icu_mcp7engines14coach_guidance5testss_33low_sleep_creates_low_sleep_alert0B9_
FNDA:0,_RNCNvNtNtNtCsgTXWXfwjzne_17intervals_icu_mcp7engines14coach_guidance5testss_36optimal_volume_does_not_create_alert0B9_
FNDA:1,_RNCNvNtNtNtCsgTXWXfwjzne_17intervals_icu_mcp7engines14coach_guidance5testss_37fatigue_guidance_without_deep_fatigue0B9_
FNDA:0,_RNCNvNtNtNtCsgTXWXfwjzne_17intervals_icu_mcp7engines14coach_guidance5testss_38good_consistency_does_not_create_alert0B9_
FNDA:1,_RNCNvNtNtNtCsgTXWXfwjzne_17intervals_icu_mcp7engines14coach_guidance5testss_40polarised_training_does_not_create_alert0B9_
FNDA:1,_RNCNvNtNtNtCsgTXWXfwjzne_17intervals_icu_mcp7engines14coach_guidance5testss_42low_consistency_creates_alert_and_guidance0B9_
FNDA:1,_RNCNvNtNtNtCsgTXWXfwjzne_17intervals_icu_mcp7engines14coach_guidance5testss_42low_consistency_creates_alert_and_guidances_0B9_
FNDA:1,_RNCNvNtNtNtCsgTXWXfwjzne_17intervals_icu_mcp7engines14coach_guidance5testss_43high_volume_generates_cautionary_suggestion0B9_
FNDA:1,_RNCNvNtNtNtCsgTXWXfwjzne_17intervals_icu_mcp7engines14coach_guidance5testss_44fatigue_alert_fires_at_tsb_boundary_minus_100B9_
FNDA:1,_RNCNvNtNtNtCsgTXWXfwjzne_17intervals_icu_mcp7engines14coach_guidance5testss_44fatigue_alert_fires_at_tsb_boundary_minus_10s_0B9_
FNDA:0,_RNCNvNtNtNtCsgTXWXfwjzne_17intervals_icu_mcp7engines14coach_guidance5testss_44fatigue_index_below_threshold_does_not_alert0B9_
FNDA:1,_RNCNvNtNtNtCsgTXWXfwjzne_17intervals_icu_mcp7engines14coach_guidance5testss_45high_fatigue_index_creates_alert_and_guidance0B9_
FNDA:1,_RNCNvNtNtNtCsgTXWXfwjzne_17intervals_icu_mcp7engines14coach_guidance5testss_45high_fatigue_index_creates_alert_and_guidances0_0B9_
FNDA:1,_RNCNvNtNtNtCsgTXWXfwjzne_17intervals_icu_mcp7engines14coach_guidance5testss_45high_fatigue_index_creates_alert_and_guidances_0B9_
FNDA:1,_RNCNvNtNtNtCsgTXWXfwjzne_17intervals_icu_mcp7engines14coach_guidance5testss_45tsb_below_minus_20_creates_deep_fatigue_alert0B9_
FNDA:0,_RNCNvNtNtNtCsgTXWXfwjzne_17intervals_icu_mcp7engines14coach_guidance5testss_47durability_index_above_threshold_does_not_alert0B9_
FNDA:1,_RNCNvNtNtNtCsgTXWXfwjzne_17intervals_icu_mcp7engines14coach_guidance5testss_47low_durability_index_creates_alert_and_guidance0B9_
FNDA:1,_RNCNvNtNtNtCsgTXWXfwjzne_17intervals_icu_mcp7engines14coach_guidance5testss_47low_durability_index_creates_alert_and_guidances0_0B9_
FNDA:1,_RNCNvNtNtNtCsgTXWXfwjzne_17intervals_icu_mcp7engines14coach_guidance5testss_47low_durability_index_creates_alert_and_guidances_0B9_
FNDA:1,_RNCNvNtNtNtCsgTXWXfwjzne_17intervals_icu_mcp7engines14coach_guidance5testss_48high_monotony_creates_repetitive_stress_guidance0B9_
FNDA:1,_RNCNvNtNtNtCsgTXWXfwjzne_17intervals_icu_mcp7engines14coach_guidance5testss_48high_monotony_creates_repetitive_stress_guidances_0B9_
FNDA:1,_RNCNvNtNtNtCsgTXWXfwjzne_17intervals_icu_mcp7engines14coach_guidance5testss_50acwr_overreach_creates_overload_alert_and_guidance0B9_
FNDA:1,_RNCNvNtNtNtCsgTXWXfwjzne_17intervals_icu_mcp7engines14coach_guidance5testss_50acwr_overreach_creates_overload_alert_and_guidances_0B9_
FNDA:1,_RNCNvNtNtNtCsgTXWXfwjzne_17intervals_icu_mcp7engines14coach_guidance5testss_50low_recovery_index_creates_recovery_first_guidance0B9_
FNDA:1,_RNCNvNtNtNtCsgTXWXfwjzne_17intervals_icu_mcp7engines14coach_guidance5testss_50low_recovery_index_creates_recovery_first_guidances_0B9_
FNDA:0,_RNCNvNtNtNtCsgTXWXfwjzne_17intervals_icu_mcp7engines14coach_guidance5testss_54missing_wellness_prevents_overconfident_ready_language0B9_
FNDA:1,_RNCNvNtNtNtCsgTXWXfwjzne_17intervals_icu_mcp7engines14coach_guidance5testss_55fatigue_tsb_between_minus_10_and_minus_20_creates_alert0B9_
FNDA:1,_RNCNvNtNtNtCsgTXWXfwjzne_17intervals_icu_mcp7engines14coach_guidance5testss_55fatigue_tsb_between_minus_10_and_minus_20_creates_alerts_0B9_
FNDA:1,_RNCNvNtNtNtCsgTXWXfwjzne_17intervals_icu_mcp7engines14coach_guidance5testss_56threshold_biased_polarisation_creates_alert_and_guidance0B9_
FNDA:1,_RNCNvNtNtNtCsgTXWXfwjzne_17intervals_icu_mcp7engines14coach_guidance5testss_56threshold_biased_polarisation_creates_alert_and_guidances_0B9_
FNDA:1,_RNCNvNtNtNtCsgTXWXfwjzne_17intervals_icu_mcp7engines14coach_guidance5testss_62positive_tsb_with_supportive_wellness_creates_ready_suggestion0B9_
FNDA:1,_RNCNvNtNtNtCsgTXWXfwjzne_17intervals_icu_mcp7engines14coach_guidance5testss_62tier_one_recovery_alert_suppresses_ready_for_key_work_guidance0B9_
FNDA:1,_RNCNvNtNtNtCsgTXWXfwjzne_17intervals_icu_mcp7engines14coach_guidance5testss_62tier_one_recovery_alert_suppresses_ready_for_key_work_guidances_0B9_
FNDA:1,_RNCNvNtNtNtCsgTXWXfwjzne_17intervals_icu_mcp7engines14coach_guidance5testss_74low_hrv_alert_uses_personal_baseline_drop_even_when_absolute_value_is_high0B9_
FNDA:0,_RNCNvNtNtNtCsgTXWXfwjzne_17intervals_icu_mcp7engines14coach_guidance5testss_77low_hrv_alert_does_not_fire_for_personal_norm_even_when_absolute_value_is_low0B9_
FNDA:1,_RNvNtNtNtCsgTXWXfwjzne_17intervals_icu_mcp7engines14coach_guidance5testss_21low_hrv_creates_alert
FNDA:1,_RNvNtNtNtCsgTXWXfwjzne_17intervals_icu_mcp7engines14coach_guidance5testss_26elevated_rhr_creates_alert
FNDA:1,_RNvNtNtNtCsgTXWXfwjzne_17intervals_icu_mcp7engines14coach_guidance5testss_32high_training_load_creates_alert
FNDA:1,_RNvNtNtNtCsgTXWXfwjzne_17intervals_icu_mcp7engines14coach_guidance5testss_32low_volume_does_not_create_alert
FNDA:1,_RNvNtNtNtCsgTXWXfwjzne_17intervals_icu_mcp7engines14coach_guidance5testss_33low_sleep_creates_low_sleep_alert
FNDA:1,_RNvNtNtNtCsgTXWXfwjzne_17intervals_icu_mcp7engines14coach_guidance5testss_36optimal_volume_does_not_create_alert
FNDA:1,_RNvNtNtNtCsgTXWXfwjzne_17intervals_icu_mcp7engines14coach_guidance5testss_37fatigue_guidance_without_deep_fatigue
FNDA:1,_RNvNtNtNtCsgTXWXfwjzne_17intervals_icu_mcp7engines14coach_guidance5testss_38good_consistency_does_not_create_alert
FNDA:1,_RNvNtNtNtCsgTXWXfwjzne_17intervals_icu_mcp7engines14coach_guidance5testss_39alert_code_helpers_match_expected_codes
FNDA:1,_RNvNtNtNtCsgTXWXfwjzne_17intervals_icu_mcp7engines14coach_guidance5testss_40polarised_training_does_not_create_alert
FNDA:1,_RNvNtNtNtCsgTXWXfwjzne_17intervals_icu_mcp7engines14coach_guidance5testss_42low_consistency_creates_alert_and_guidance
FNDA:1,_RNvNtNtNtCsgTXWXfwjzne_17intervals_icu_mcp7engines14coach_guidance5testss_43high_volume_generates_cautionary_suggestion
FNDA:1,_RNvNtNtNtCsgTXWXfwjzne_17intervals_icu_mcp7engines14coach_guidance5testss_44fatigue_alert_fires_at_tsb_boundary_minus_10
FNDA:1,_RNvNtNtNtCsgTXWXfwjzne_17intervals_icu_mcp7engines14coach_guidance5testss_44fatigue_index_below_threshold_does_not_alert
FNDA:1,_RNvNtNtNtCsgTXWXfwjzne_17intervals_icu_mcp7engines14coach_guidance5testss_45high_fatigue_index_creates_alert_and_guidance
FNDA:1,_RNvNtNtNtCsgTXWXfwjzne_17intervals_icu_mcp7engines14coach_guidance5testss_45tsb_below_minus_20_creates_deep_fatigue_alert
FNDA:1,_RNvNtNtNtCsgTXWXfwjzne_17intervals_icu_mcp7engines14coach_guidance5testss_47durability_index_above_threshold_does_not_alert
FNDA:1,_RNvNtNtNtCsgTXWXfwjzne_17intervals_icu_mcp7engines14coach_guidance5testss_47low_durability_index_creates_alert_and_guidance
FNDA:1,_RNvNtNtNtCsgTXWXfwjzne_17intervals_icu_mcp7engines14coach_guidance5testss_48high_monotony_creates_repetitive_stress_guidance
FNDA:1,_RNvNtNtNtCsgTXWXfwjzne_17intervals_icu_mcp7engines14coach_guidance5testss_50acwr_overreach_creates_overload_alert_and_guidance
FNDA:1,_RNvNtNtNtCsgTXWXfwjzne_17intervals_icu_mcp7engines14coach_guidance5testss_50low_recovery_index_creates_recovery_first_guidance
FNDA:1,_RNvNtNtNtCsgTXWXfwjzne_17intervals_icu_mcp7engines14coach_guidance5testss_54missing_wellness_prevents_overconfident_ready_language
FNDA:1,_RNvNtNtNtCsgTXWXfwjzne_17intervals_icu_mcp7engines14coach_guidance5testss_55fatigue_tsb_between_minus_10_and_minus_20_creates_alert
FNDA:1,_RNvNtNtNtCsgTXWXfwjzne_17intervals_icu_mcp7engines14coach_guidance5testss_56threshold_biased_polarisation_creates_alert_and_guidance
FNDA:1,_RNvNtNtNtCsgTXWXfwjzne_17intervals_icu_mcp7engines14coach_guidance5testss_62positive_tsb_with_supportive_wellness_creates_ready_suggestion
FNDA:1,_RNvNtNtNtCsgTXWXfwjzne_17intervals_icu_mcp7engines14coach_guidance5testss_62tier_one_recovery_alert_suppresses_ready_for_key_work_guidance
FNDA:1,_RNvNtNtNtCsgTXWXfwjzne_17intervals_icu_mcp7engines14coach_guidance5testss_74low_hrv_alert_uses_personal_baseline_drop_even_when_absolute_value_is_high
FNDA:1,_RNvNtNtNtCsgTXWXfwjzne_17intervals_icu_mcp7engines14coach_guidance5testss_77low_hrv_alert_does_not_fire_for_personal_norm_even_when_absolute_value_is_low
FNF:74
FNH:67
DA:73,45
DA:74,45
DA:77,45
DA:78,12
DA:79,12
DA:80,3
DA:81,3
DA:82,3
DA:83,3
DA:84,3
DA:85,3
DA:86,3
DA:87,3
DA:88,42
DA:91,45
DA:92,12
DA:93,12
DA:94,3
DA:95,3
DA:96,3
DA:97,3
DA:98,3
DA:99,3
DA:100,3
DA:101,3
DA:102,42
DA:105,45
DA:106,13
DA:107,13
DA:108,4
DA:109,4
DA:110,4
DA:111,4
DA:112,4
DA:113,4
DA:114,4
DA:115,4
DA:116,4
DA:117,4
DA:118,4
DA:119,41
DA:122,45
DA:123,13
DA:124,13
DA:125,3
DA:126,3
DA:127,3
DA:128,3
DA:129,3
DA:130,3
DA:131,3
DA:132,3
DA:133,3
DA:134,3
DA:135,3
DA:136,42
DA:139,45
DA:140,13
DA:141,4
DA:143,3
DA:144,3
DA:145,3
DA:146,3
DA:148,3
DA:150,3
DA:154,0
DA:157,3
DA:158,3
DA:159,3
DA:160,3
DA:161,3
DA:162,3
DA:163,3
DA:164,42
DA:167,45
DA:168,13
DA:169,3
DA:170,1
DA:171,1
DA:172,1
DA:173,1
DA:174,1
DA:175,1
DA:176,1
DA:177,1
DA:178,1
DA:179,1
DA:180,1
DA:181,44
DA:184,45
DA:185,6
DA:187,1
DA:188,1
DA:189,1
DA:190,1
DA:191,1
DA:192,1
DA:193,1
DA:194,1
DA:195,1
DA:196,1
DA:197,1
DA:198,1
DA:199,0
DA:200,0
DA:201,0
DA:202,0
DA:203,0
DA:204,0
DA:205,0
DA:206,0
DA:207,0
DA:208,0
DA:209,0
DA:210,44
DA:213,45
DA:214,6
DA:215,1
DA:216,1
DA:217,1
DA:218,1
DA:219,1
DA:220,1
DA:221,1
DA:222,1
DA:223,1
DA:224,1
DA:225,1
DA:226,1
DA:227,44
DA:230,45
DA:231,6
DA:232,2
DA:233,1
DA:234,1
DA:235,1
DA:236,1
DA:237,1
DA:238,1
DA:239,1
DA:240,1
DA:241,1
DA:242,1
DA:243,1
DA:244,44
DA:247,45
DA:248,6
DA:249,2
DA:250,1
DA:251,1
DA:252,1
DA:253,1
DA:254,1
DA:255,1
DA:256,1
DA:257,1
DA:258,1
DA:259,1
DA:260,1
DA:261,44
DA:264,45
DA:265,9
DA:266,1
DA:267,1
DA:268,1
DA:269,1
DA:270,1
DA:271,1
DA:272,1
DA:273,1
DA:274,1
DA:275,1
DA:276,1
DA:277,44
DA:280,45
DA:281,2
DA:282,2
DA:283,1
DA:284,1
DA:285,1
DA:286,1
DA:287,1
DA:288,1
DA:289,1
DA:290,1
DA:291,1
DA:292,1
DA:293,1
DA:294,1
DA:295,1
DA:296,44
DA:299,45
DA:300,6
DA:301,6
DA:302,0
DA:303,0
DA:304,0
DA:305,0
DA:306,0
DA:307,0
DA:308,0
DA:309,0
DA:310,0
DA:311,0
DA:312,0
DA:313,45
DA:316,45
DA:317,6
DA:318,6
DA:319,0
DA:320,0
DA:321,0
DA:322,0
DA:323,0
DA:324,0
DA:325,0
DA:326,0
DA:327,0
DA:328,0
DA:329,0
DA:330,45
DA:333,45
DA:334,0
DA:335,0
DA:336,0
DA:337,0
DA:338,0
DA:339,0
DA:340,0
DA:341,0
DA:342,0
DA:343,0
DA:344,0
DA:345,0
DA:346,0
DA:347,45
DA:350,45
DA:351,0
DA:352,0
DA:353,0
DA:354,0
DA:355,0
DA:356,0
DA:357,0
DA:358,0
DA:359,0
DA:360,0
DA:361,0
DA:362,0
DA:363,0
DA:364,45
DA:367,45
DA:368,9
DA:369,0
DA:370,0
DA:371,0
DA:372,0
DA:373,0
DA:374,0
DA:375,0
DA:376,0
DA:377,0
DA:378,0
DA:379,0
DA:380,0
DA:381,0
DA:382,45
DA:385,45
DA:386,9
DA:387,1
DA:388,1
DA:389,1
DA:390,1
DA:391,1
DA:392,1
DA:393,1
DA:394,1
DA:395,1
DA:396,1
DA:397,1
DA:398,1
DA:399,44
DA:402,45
DA:403,9
DA:404,1
DA:405,0
DA:406,0
DA:407,0
DA:408,0
DA:409,0
DA:410,0
DA:411,0
DA:412,0
DA:413,0
DA:414,0
DA:415,0
DA:416,45
DA:419,45
DA:420,2
DA:421,2
DA:422,1
DA:423,1
DA:424,1
DA:425,1
DA:426,1
DA:427,1
DA:428,1
DA:429,1
DA:430,44
DA:433,45
DA:434,2
DA:435,2
DA:436,1
DA:437,1
DA:438,1
DA:439,1
DA:440,1
DA:441,1
DA:442,1
DA:443,1
DA:444,1
DA:445,1
DA:446,1
DA:447,1
DA:448,1
DA:449,44
DA:451,45
DA:452,45
DA:454,379
DA:455,379
DA:456,379
DA:458,28
DA:459,28
DA:460,28
DA:461,57
DA:462,28
DA:464,27
DA:465,27
DA:467,27
DA:468,27
DA:469,27
DA:470,27
DA:471,27
DA:472,27
DA:473,27
DA:474,27
DA:475,27
DA:476,27
DA:478,27
DA:481,27
DA:482,5
DA:484,5
DA:485,2
DA:486,2
DA:487,2
DA:488,2
DA:489,2
DA:490,2
DA:491,3
DA:492,1
DA:493,1
DA:494,1
DA:495,1
DA:496,1
DA:497,1
DA:498,2
DA:499,2
DA:500,2
DA:501,2
DA:502,2
DA:503,0
DA:504,0
DA:505,0
DA:506,0
DA:507,0
DA:508,0
DA:509,0
DA:510,22
DA:512,27
DA:513,1
DA:514,1
DA:515,1
DA:516,26
DA:518,27
DA:519,1
DA:520,1
DA:521,1
DA:522,26
DA:525,27
DA:526,7
DA:527,6
DA:528,6
DA:529,6
DA:530,6
DA:531,1
DA:532,1
DA:533,1
DA:534,1
DA:535,20
DA:538,27
DA:539,1
DA:540,1
DA:541,1
DA:542,1
DA:543,1
DA:544,1
DA:545,26
DA:546,0
DA:547,0
DA:548,0
DA:549,0
DA:550,26
DA:552,27
DA:553,1
DA:554,1
DA:555,1
DA:556,1
DA:557,1
DA:558,1
DA:559,1
DA:560,26
DA:562,27
DA:563,1
DA:564,1
DA:565,1
DA:566,1
DA:567,1
DA:568,1
DA:569,1
DA:570,26
DA:572,27
DA:573,1
DA:574,1
DA:575,1
DA:576,1
DA:577,1
DA:578,1
DA:579,1
DA:580,26
DA:583,27
DA:584,1
DA:585,1
DA:586,1
DA:587,1
DA:588,1
DA:589,1
DA:590,1
DA:591,26
DA:594,27
DA:595,1
DA:596,1
DA:597,1
DA:598,1
DA:599,1
DA:600,1
DA:601,26
DA:604,27
DA:605,0
DA:606,0
DA:607,0
DA:608,0
DA:609,0
DA:610,0
DA:611,27
DA:613,27
DA:614,0
DA:615,0
DA:616,0
DA:617,0
DA:618,0
DA:619,0
DA:620,0
DA:621,27
DA:624,27
DA:625,1
DA:626,1
DA:627,1
DA:628,1
DA:629,1
DA:630,1
DA:631,1
DA:632,1
DA:633,1
DA:634,26
DA:636,27
DA:637,0
DA:638,0
DA:639,0
DA:640,0
DA:641,0
DA:642,0
DA:643,27
DA:646,27
DA:647,0
DA:648,0
DA:649,0
DA:650,0
DA:651,0
DA:652,0
DA:653,0
DA:654,0
DA:655,0
DA:656,27
DA:659,27
DA:660,9
DA:661,1
DA:662,1
DA:663,1
DA:664,1
DA:665,1
DA:666,1
DA:667,26
DA:670,27
DA:671,0
DA:672,0
DA:673,0
DA:674,27
DA:677,27
DA:678,27
DA:679,27
DA:680,27
DA:681,27
DA:683,27
DA:684,27
DA:695,1
DA:696,1
DA:697,1
DA:698,1
DA:699,1
DA:700,1
DA:701,1
DA:702,1
DA:703,1
DA:704,1
DA:706,1
DA:707,1
DA:708,1
DA:711,1
DA:712,1
DA:713,1
DA:714,1
DA:715,1
DA:716,1
DA:717,1
DA:718,1
DA:719,1
DA:720,1
DA:721,1
DA:723,1
DA:724,1
DA:725,1
DA:728,1
DA:729,1
DA:730,1
DA:731,1
DA:732,1
DA:733,1
DA:734,1
DA:735,1
DA:736,1
DA:737,1
DA:738,1
DA:740,1
DA:741,1
DA:742,1
DA:745,1
DA:746,1
DA:747,1
DA:748,1
DA:749,1
DA:750,1
DA:751,1
DA:752,1
DA:753,1
DA:754,1
DA:755,1
DA:756,1
DA:757,1
DA:758,1
DA:760,1
DA:761,1
DA:762,1
DA:765,1
DA:766,1
DA:767,1
DA:768,1
DA:769,1
DA:770,1
DA:771,1
DA:772,1
DA:773,1
DA:774,1
DA:775,1
DA:776,1
DA:777,1
DA:778,1
DA:779,1
DA:780,1
DA:782,1
DA:783,1
DA:784,1
DA:787,1
DA:788,1
DA:789,1
DA:790,1
DA:791,1
DA:792,1
DA:793,1
DA:794,1
DA:795,1
DA:796,1
DA:797,1
DA:798,1
DA:799,1
DA:800,1
DA:801,1
DA:802,1
DA:804,1
DA:805,1
DA:806,1
DA:809,1
DA:810,1
DA:811,1
DA:812,1
DA:813,1
DA:814,1
DA:815,1
DA:816,1
DA:818,1
DA:819,1
DA:820,1
DA:821,1
DA:822,1
DA:823,1
DA:825,1
DA:828,1
DA:829,1
DA:830,1
DA:831,1
DA:832,1
DA:833,1
DA:834,1
DA:835,1
DA:836,1
DA:837,1
DA:838,1
DA:839,1
DA:840,1
DA:841,1
DA:842,1
DA:843,1
DA:844,1
DA:845,1
DA:847,1
DA:848,1
DA:849,1
DA:852,1
DA:853,1
DA:854,1
DA:855,1
DA:856,1
DA:857,1
DA:858,1
DA:859,1
DA:860,1
DA:861,1
DA:863,1
DA:864,1
DA:865,1
DA:866,1
DA:869,1
DA:870,1
DA:871,1
DA:872,1
DA:873,1
DA:874,1
DA:875,1
DA:876,1
DA:877,1
DA:878,1
DA:880,1
DA:881,1
DA:882,1
DA:883,1
DA:886,1
DA:887,1
DA:888,1
DA:889,1
DA:890,1
DA:891,1
DA:892,1
DA:893,1
DA:895,1
DA:896,1
DA:897,1
DA:900,1
DA:901,1
DA:902,1
DA:903,1
DA:904,1
DA:905,1
DA:906,1
DA:907,1
DA:909,1
DA:910,1
DA:911,1
DA:914,1
DA:915,1
DA:916,1
DA:917,1
DA:918,1
DA:919,1
DA:920,1
DA:921,1
DA:923,1
DA:924,1
DA:925,1
DA:928,1
DA:929,1
DA:930,1
DA:931,1
DA:932,1
DA:933,1
DA:934,1
DA:935,1
DA:937,1
DA:938,1
DA:940,1
DA:941,1
DA:944,1
DA:945,1
DA:946,1
DA:947,1
DA:948,1
DA:949,1
DA:950,1
DA:951,1
DA:952,1
DA:953,1
DA:954,1
DA:955,1
DA:956,1
DA:957,1
DA:958,1
DA:960,1
DA:961,1
DA:963,1
DA:964,1
DA:965,1
DA:966,1
DA:967,1
DA:969,1
DA:970,1
DA:973,1
DA:974,1
DA:975,1
DA:976,1
DA:977,1
DA:978,1
DA:979,1
DA:980,1
DA:981,1
DA:982,1
DA:983,1
DA:984,1
DA:985,1
DA:987,1
DA:988,1
DA:990,1
DA:991,1
DA:992,1
DA:993,1
DA:994,1
DA:995,1
DA:997,1
DA:1000,1
DA:1001,1
DA:1002,1
DA:1003,1
DA:1004,1
DA:1005,1
DA:1006,1
DA:1007,1
DA:1008,1
DA:1010,1
DA:1011,1
DA:1013,1
DA:1014,1
DA:1015,1
DA:1016,1
DA:1017,1
DA:1018,1
DA:1020,1
DA:1023,1
DA:1024,1
DA:1025,1
DA:1026,1
DA:1027,1
DA:1028,1
DA:1029,1
DA:1030,1
DA:1031,1
DA:1032,1
DA:1033,1
DA:1034,1
DA:1036,1
DA:1037,1
DA:1039,1
DA:1040,1
DA:1041,1
DA:1044,1
DA:1045,1
DA:1046,1
DA:1047,1
DA:1048,1
DA:1049,1
DA:1050,1
DA:1051,1
DA:1052,1
DA:1054,1
DA:1056,1
DA:1057,1
DA:1058,1
DA:1059,1
DA:1060,1
DA:1062,1
DA:1065,1
DA:1066,1
DA:1067,1
DA:1068,1
DA:1069,1
DA:1070,1
DA:1071,1
DA:1072,1
DA:1073,1
DA:1074,1
DA:1075,1
DA:1076,1
DA:1077,1
DA:1078,1
DA:1079,1
DA:1080,1
DA:1083,1
DA:1084,1
DA:1085,1
DA:1086,1
DA:1089,1
DA:1090,1
DA:1091,1
DA:1092,1
DA:1093,1
DA:1094,1
DA:1095,1
DA:1096,1
DA:1097,1
DA:1098,1
DA:1099,1
DA:1100,1
DA:1102,1
DA:1103,1
DA:1105,1
DA:1106,1
DA:1107,1
DA:1108,1
DA:1110,1
DA:1111,1
DA:1114,1
DA:1115,1
DA:1116,1
DA:1117,1
DA:1118,1
DA:1119,1
DA:1120,1
DA:1121,1
DA:1122,1
DA:1123,1
DA:1124,1
DA:1125,1
DA:1127,1
DA:1128,1
DA:1129,1
DA:1130,1
DA:1131,1
DA:1133,1
DA:1136,1
DA:1137,1
DA:1138,1
DA:1139,1
DA:1140,1
DA:1141,1
DA:1142,1
DA:1143,1
DA:1144,1
DA:1145,1
DA:1147,1
DA:1148,1
DA:1150,1
DA:1151,1
DA:1152,1
DA:1153,1
DA:1154,1
DA:1155,1
DA:1157,1
DA:1160,1
DA:1161,1
DA:1162,1
DA:1163,1
DA:1164,1
DA:1165,1
DA:1166,1
DA:1167,1
DA:1168,1
DA:1169,1
DA:1171,1
DA:1172,1
DA:1173,1
DA:1176,1
DA:1177,1
DA:1178,1
DA:1179,1
DA:1180,1
DA:1181,1
DA:1182,1
DA:1183,1
DA:1185,1
DA:1186,1
DA:1188,1
DA:1189,1
DA:1190,1
DA:1191,1
DA:1192,1
DA:1193,1
DA:1195,1
DA:1196,1
DA:1197,1
DA:1198,1
DA:1199,1
DA:1201,1
DA:1204,1
DA:1205,1
DA:1206,1
DA:1207,1
DA:1208,1
DA:1209,1
DA:1210,1
DA:1211,1
DA:1213,1
DA:1214,1
DA:1215,1
DA:1218,1
DA:1219,1
DA:1220,1
DA:1221,1
DA:1222,1
DA:1223,1
DA:1224,1
DA:1225,1
DA:1227,1
DA:1228,1
DA:1230,1
DA:1231,1
DA:1232,1
DA:1233,1
DA:1234,1
DA:1235,1
DA:1236,1
DA:1238,1
DA:1241,1
DA:1242,1
DA:1243,1
DA:1244,1
DA:1245,1
DA:1246,1
DA:1247,1
DA:1248,1
DA:1250,1
DA:1251,1
DA:1252,1
BRF:0
BRH:0
LF:1020
LH:887
end_of_record
SF:/Users/solovey/Documents/dev/rusty_intervals_mcp/crates/intervals_icu_mcp/src/engines/coach_metrics.rs
FN:1179,_RNCNvNtNtCsgTXWXfwjzne_17intervals_icu_mcp7engines13coach_metrics20compare_power_curves0B7_
FN:1453,_RNCNvNtNtCsgTXWXfwjzne_17intervals_icu_mcp7engines13coach_metrics23compute_heat_metrics_7d0B7_
FN:1454,_RNCNvNtNtCsgTXWXfwjzne_17intervals_icu_mcp7engines13coach_metrics23compute_heat_metrics_7ds_0B7_
FN:1492,_RNvNtNtCsgTXWXfwjzne_17intervals_icu_mcp7engines13coach_metrics18classify_tid_model
FN:1136,_RNvNtNtCsgTXWXfwjzne_17intervals_icu_mcp7engines13coach_metrics20compare_power_curves
FN:1426,_RNvNtNtCsgTXWXfwjzne_17intervals_icu_mcp7engines13coach_metrics20gap_to_running_power
FN:1442,_RNvNtNtCsgTXWXfwjzne_17intervals_icu_mcp7engines13coach_metrics23compute_heat_metrics_7d
FN:1415,_RNvNtNtCsgTXWXfwjzne_17intervals_icu_mcp7engines13coach_metrics23normalize_running_power
FN:862,_RNvNtNtCsgTXWXfwjzne_17intervals_icu_mcp7engines13coach_metrics10get_number
FN:315,_RNvNtNtCsgTXWXfwjzne_17intervals_icu_mcp7engines13coach_metrics12compute_acwr
FN:854,_RNvNtNtCsgTXWXfwjzne_17intervals_icu_mcp7engines13coach_metrics13percent_delta
FN:398,_RNvNtNtCsgTXWXfwjzne_17intervals_icu_mcp7engines13coach_metrics14compute_strain
FN:870,_RNvNtNtCsgTXWXfwjzne_17intervals_icu_mcp7engines13coach_metrics15collect_numbers
FN:1321,_RNvNtNtCsgTXWXfwjzne_17intervals_icu_mcp7engines13coach_metrics15compute_ndli_7d
FN:372,_RNvNtNtCsgTXWXfwjzne_17intervals_icu_mcp7engines13coach_metrics16compute_monotony
FN:403,_RNvNtNtCsgTXWXfwjzne_17intervals_icu_mcp7engines13coach_metrics17compute_hrv_ratio
FN:343,_RNvNtNtCsgTXWXfwjzne_17intervals_icu_mcp7engines13coach_metrics18build_acwr_metrics
FN:414,_RNvNtNtCsgTXWXfwjzne_17intervals_icu_mcp7engines13coach_metrics18classify_hrv_state
FN:359,_RNvNtNtCsgTXWXfwjzne_17intervals_icu_mcp7engines13coach_metrics19classify_acwr_ratio
FN:1187,_RNvNtNtCsgTXWXfwjzne_17intervals_icu_mcp7engines13coach_metrics19compute_wdr_metrics
FN:1094,_RNvNtNtCsgTXWXfwjzne_17intervals_icu_mcp7engines13coach_metrics19derive_espe_metrics
FN:233,_RNvNtNtCsgTXWXfwjzne_17intervals_icu_mcp7engines13coach_metrics20build_trend_snapshot
FN:903,_RNvNtNtCsgTXWXfwjzne_17intervals_icu_mcp7engines13coach_metrics20compute_polarisation
FN:694,_RNvNtNtCsgTXWXfwjzne_17intervals_icu_mcp7engines13coach_metrics20derive_trend_metrics
FN:489,_RNvNtNtCsgTXWXfwjzne_17intervals_icu_mcp7engines13coach_metrics21compute_fatigue_index
FN:265,_RNvNtNtCsgTXWXfwjzne_17intervals_icu_mcp7engines13coach_metrics21derive_volume_metrics
FN:722,_RNvNtNtCsgTXWXfwjzne_17intervals_icu_mcp7engines13coach_metrics21parse_fitness_metrics
FN:467,_RNvNtNtCsgTXWXfwjzne_17intervals_icu_mcp7engines13coach_metrics22compute_recovery_index
FN:1516,_RNvNtNtCsgTXWXfwjzne_17intervals_icu_mcp7engines13coach_metrics22compute_z2_hr_variance
FN:878,_RNvNtNtCsgTXWXfwjzne_17intervals_icu_mcp7engines13coach_metrics22extract_numeric_stream
FN:737,_RNvNtNtCsgTXWXfwjzne_17intervals_icu_mcp7engines13coach_metrics22parse_wellness_metrics
FN:422,_RNvNtNtCsgTXWXfwjzne_17intervals_icu_mcp7engines13coach_metrics23compute_hrv_trend_slope
FN:516,_RNvNtNtCsgTXWXfwjzne_17intervals_icu_mcp7engines13coach_metrics23compute_readiness_score
FN:335,_RNvNtNtCsgTXWXfwjzne_17intervals_icu_mcp7engines13coach_metrics23parse_api_load_snapshot
FN:641,_RNvNtNtCsgTXWXfwjzne_17intervals_icu_mcp7engines13coach_metrics23parse_efficiency_factor
FN:1277,_RNvNtNtCsgTXWXfwjzne_17intervals_icu_mcp7engines13coach_metrics24aggregate_wdr_metrics_7d
FN:839,_RNvNtNtCsgTXWXfwjzne_17intervals_icu_mcp7engines13coach_metrics24classify_hrv_trend_state
FN:505,_RNvNtNtCsgTXWXfwjzne_17intervals_icu_mcp7engines13coach_metrics24compute_durability_index
FN:497,_RNvNtNtCsgTXWXfwjzne_17intervals_icu_mcp7engines13coach_metrics24compute_stress_tolerance
FN:681,_RNvNtNtCsgTXWXfwjzne_17intervals_icu_mcp7engines13coach_metrics24derive_execution_metrics
FN:646,_RNvNtNtCsgTXWXfwjzne_17intervals_icu_mcp7engines13coach_metrics24parse_aerobic_decoupling
FN:631,_RNvNtNtCsgTXWXfwjzne_17intervals_icu_mcp7engines13coach_metrics25classify_decoupling_state
FN:619,_RNvNtNtCsgTXWXfwjzne_17intervals_icu_mcp7engines13coach_metrics25classify_durability_state
FN:993,_RNvNtNtCsgTXWXfwjzne_17intervals_icu_mcp7engines13coach_metrics25compute_consistency_index
FN:574,_RNvNtNtCsgTXWXfwjzne_17intervals_icu_mcp7engines13coach_metrics25compute_efficiency_factor
FN:1027,_RNvNtNtCsgTXWXfwjzne_17intervals_icu_mcp7engines13coach_metrics25extract_sportinfo_anchors
FN:291,_RNvNtNtCsgTXWXfwjzne_17intervals_icu_mcp7engines13coach_metrics25interpret_fitness_metrics
FN:827,_RNvNtNtCsgTXWXfwjzne_17intervals_icu_mcp7engines13coach_metrics25split_recent_and_baseline
FN:587,_RNvNtNtCsgTXWXfwjzne_17intervals_icu_mcp7engines13coach_metrics26compute_aerobic_decoupling
FN:937,_RNvNtNtCsgTXWXfwjzne_17intervals_icu_mcp7engines13coach_metrics27parse_polarisation_from_api
FN:1066,_RNvNtNtCsgTXWXfwjzne_17intervals_icu_mcp7engines13coach_metrics28enrich_anchors_from_activity
FN:444,_RNvNtNtCsgTXWXfwjzne_17intervals_icu_mcp7engines13coach_metrics30compute_recovery_quality_index
FN:706,_RNvNtNtCsgTXWXfwjzne_17intervals_icu_mcp7engines13coach_metrics30derive_workout_metrics_context
FN:534,_RNvNtNtCsgTXWXfwjzne_17intervals_icu_mcp7engines13coach_metrics31compute_load_management_metrics
FN:661,_RNvNtNtCsgTXWXfwjzne_17intervals_icu_mcp7engines13coach_metrics37derive_execution_metrics_from_streams
FN:895,_RNvNtNtCsgTXWXfwjzne_17intervals_icu_mcp7engines13coach_metrics7average
FN:866,_RNCNCNCNCNvNtNtCsgTXWXfwjzne_17intervals_icu_mcp7engines13coach_metrics10get_number0000Bd_
FN:866,_RNCNCNCNvNtNtCsgTXWXfwjzne_17intervals_icu_mcp7engines13coach_metrics10get_number000Bb_
FN:885,_RNCNCNCNvNtNtCsgTXWXfwjzne_17intervals_icu_mcp7engines13coach_metrics22extract_numeric_streams_000Bb_
FN:866,_RNCNCNvNtNtCsgTXWXfwjzne_17intervals_icu_mcp7engines13coach_metrics10get_number00B9_
FN:885,_RNCNCNvNtNtCsgTXWXfwjzne_17intervals_icu_mcp7engines13coach_metrics22extract_numeric_streams_00B9_
FN:764,_RNCNCNvNtNtCsgTXWXfwjzne_17intervals_icu_mcp7engines13coach_metrics22parse_wellness_metricss_00B9_
FN:971,_RNCNCNvNtNtCsgTXWXfwjzne_17intervals_icu_mcp7engines13coach_metrics27parse_polarisation_from_apis0_00B9_
FN:863,_RNCNvNtNtCsgTXWXfwjzne_17intervals_icu_mcp7engines13coach_metrics10get_number0B7_
FN:874,_RNCNvNtNtCsgTXWXfwjzne_17intervals_icu_mcp7engines13coach_metrics15collect_numbers0B7_
FN:1345,_RNCNvNtNtCsgTXWXfwjzne_17intervals_icu_mcp7engines13coach_metrics15compute_ndli_7d0B7_
FN:384,_RNCNvNtNtCsgTXWXfwjzne_17intervals_icu_mcp7engines13coach_metrics16compute_monotony0B7_
FN:1210,_RNCNvNtNtCsgTXWXfwjzne_17intervals_icu_mcp7engines13coach_metrics19compute_wdr_metrics0B7_
FN:1258,_RNCNvNtNtCsgTXWXfwjzne_17intervals_icu_mcp7engines13coach_metrics19compute_wdr_metricss0_0B7_
FN:1259,_RNCNvNtNtCsgTXWXfwjzne_17intervals_icu_mcp7engines13coach_metrics19compute_wdr_metricss1_0B7_
FN:1211,_RNCNvNtNtCsgTXWXfwjzne_17intervals_icu_mcp7engines13coach_metrics19compute_wdr_metricss_0B7_
FN:1106,_RNCNvNtNtCsgTXWXfwjzne_17intervals_icu_mcp7engines13coach_metrics19derive_espe_metrics0B7_
FN:1110,_RNCNvNtNtCsgTXWXfwjzne_17intervals_icu_mcp7engines13coach_metrics19derive_espe_metricss0_0B7_
FN:1113,_RNCNvNtNtCsgTXWXfwjzne_17intervals_icu_mcp7engines13coach_metrics19derive_espe_metricss1_0B7_
FN:1118,_RNCNvNtNtCsgTXWXfwjzne_17intervals_icu_mcp7engines13coach_metrics19derive_espe_metricss2_0B7_
FN:1108,_RNCNvNtNtCsgTXWXfwjzne_17intervals_icu_mcp7engines13coach_metrics19derive_espe_metricss_0B7_
FN:244,_RNCNvNtNtCsgTXWXfwjzne_17intervals_icu_mcp7engines13coach_metrics20build_trend_snapshot0B7_
FN:916,_RNCNvNtNtCsgTXWXfwjzne_17intervals_icu_mcp7engines13coach_metrics20compute_polarisation0B7_
FN:1520,_RNCNvNtNtCsgTXWXfwjzne_17intervals_icu_mcp7engines13coach_metrics22compute_z2_hr_variance0B7_
FN:1530,_RNCNvNtNtCsgTXWXfwjzne_17intervals_icu_mcp7engines13coach_metrics22compute_z2_hr_variances_0B7_
FN:882,_RNCNvNtNtCsgTXWXfwjzne_17intervals_icu_mcp7engines13coach_metrics22extract_numeric_stream0B7_
FN:885,_RNCNvNtNtCsgTXWXfwjzne_17intervals_icu_mcp7engines13coach_metrics22extract_numeric_streams_0B7_
FN:747,_RNCNvNtNtCsgTXWXfwjzne_17intervals_icu_mcp7engines13coach_metrics22parse_wellness_metrics0B7_
FN:771,_RNCNvNtNtCsgTXWXfwjzne_17intervals_icu_mcp7engines13coach_metrics22parse_wellness_metricss0_0B7_
FN:784,_RNCNvNtNtCsgTXWXfwjzne_17intervals_icu_mcp7engines13coach_metrics22parse_wellness_metricss1_0B7_
FN:788,_RNCNvNtNtCsgTXWXfwjzne_17intervals_icu_mcp7engines13coach_metrics22parse_wellness_metricss2_0B7_
FN:796,_RNCNvNtNtCsgTXWXfwjzne_17intervals_icu_mcp7engines13coach_metrics22parse_wellness_metricss3_0B7_
FN:762,_RNCNvNtNtCsgTXWXfwjzne_17intervals_icu_mcp7engines13coach_metrics22parse_wellness_metricss_0B7_
FN:427,_RNCNvNtNtCsgTXWXfwjzne_17intervals_icu_mcp7engines13coach_metrics23compute_hrv_trend_slope0B7_
FN:432,_RNCNvNtNtCsgTXWXfwjzne_17intervals_icu_mcp7engines13coach_metrics23compute_hrv_trend_slopes0_0B7_
FN:430,_RNCNvNtNtCsgTXWXfwjzne_17intervals_icu_mcp7engines13coach_metrics23compute_hrv_trend_slopes_0B7_
FN:1005,_RNCNvNtNtCsgTXWXfwjzne_17intervals_icu_mcp7engines13coach_metrics25compute_consistency_index0B7_
FN:1028,_RNCNvNtNtCsgTXWXfwjzne_17intervals_icu_mcp7engines13coach_metrics25extract_sportinfo_anchors0B7_
FN:296,_RNCNvNtNtCsgTXWXfwjzne_17intervals_icu_mcp7engines13coach_metrics25interpret_fitness_metrics0B7_
FN:944,_RNCNvNtNtCsgTXWXfwjzne_17intervals_icu_mcp7engines13coach_metrics27parse_polarisation_from_api0B7_
FN:971,_RNCNvNtNtCsgTXWXfwjzne_17intervals_icu_mcp7engines13coach_metrics27parse_polarisation_from_apis0_0B7_
FN:968,_RNCNvNtNtCsgTXWXfwjzne_17intervals_icu_mcp7engines13coach_metrics27parse_polarisation_from_apis_0B7_
FN:1070,_RNCNvNtNtCsgTXWXfwjzne_17intervals_icu_mcp7engines13coach_metrics28enrich_anchors_from_activity0B7_
FN:557,_RNCNvNtNtCsgTXWXfwjzne_17intervals_icu_mcp7engines13coach_metrics31compute_load_management_metrics0B7_
FN:562,_RNCNvNtNtCsgTXWXfwjzne_17intervals_icu_mcp7engines13coach_metrics31compute_load_management_metricss0_0B7_
FN:560,_RNCNvNtNtCsgTXWXfwjzne_17intervals_icu_mcp7engines13coach_metrics31compute_load_management_metricss_0B7_
FN:1730,_RNCNvNtNtNtCsgTXWXfwjzne_17intervals_icu_mcp7engines13coach_metrics5testss_65derive_execution_metrics_prefers_api_values_over_stream_fallbackss_0B9_
FN:1661,_RNCNvNtNtNtCsgTXWXfwjzne_17intervals_icu_mcp7engines13coach_metrics5testss_73parse_wellness_metrics_derives_adaptive_hrv_baseline_and_recent_deviation0B9_
FN:1662,_RNCNvNtNtNtCsgTXWXfwjzne_17intervals_icu_mcp7engines13coach_metrics5testss_73parse_wellness_metrics_derives_adaptive_hrv_baseline_and_recent_deviations_0B9_
FN:1546,_RNvNtNtNtCsgTXWXfwjzne_17intervals_icu_mcp7engines13coach_metrics5tests14wellness_entry
FN:2311,_RNvNtNtNtCsgTXWXfwjzne_17intervals_icu_mcp7engines13coach_metrics5testss_31classify_durability_state_watch
FN:1971,_RNvNtNtNtCsgTXWXfwjzne_17intervals_icu_mcp7engines13coach_metrics5testss_31consistency_index_low_adherence
FN:2291,_RNvNtNtNtCsgTXWXfwjzne_17intervals_icu_mcp7engines13coach_metrics5testss_32classify_durability_state_stable
FN:1950,_RNvNtNtNtCsgTXWXfwjzne_17intervals_icu_mcp7engines13coach_metrics5testss_32consistency_index_full_adherence
FN:1957,_RNvNtNtNtCsgTXWXfwjzne_17intervals_icu_mcp7engines13coach_metrics5testss_32consistency_index_good_adherence
FN:2304,_RNvNtNtNtCsgTXWXfwjzne_17intervals_icu_mcp7engines13coach_metrics5testss_34classify_durability_state_drifting
FN:1569,_RNvNtNtNtCsgTXWXfwjzne_17intervals_icu_mcp7engines13coach_metrics5testss_34empty_fitness_values_stay_optional
FN:2298,_RNvNtNtNtCsgTXWXfwjzne_17intervals_icu_mcp7engines13coach_metrics5testss_35classify_durability_state_improving
FN:2339,_RNvNtNtNtCsgTXWXfwjzne_17intervals_icu_mcp7engines13coach_metrics5testss_35compute_z2_hr_variance_returns_some
FN:1813,_RNvNtNtNtCsgTXWXfwjzne_17intervals_icu_mcp7engines13coach_metrics5testss_36acwr_returns_none_for_short_lookback
FN:1964,_RNvNtNtNtCsgTXWXfwjzne_17intervals_icu_mcp7engines13coach_metrics5testss_36consistency_index_moderate_adherence
FN:2122,_RNvNtNtNtCsgTXWXfwjzne_17intervals_icu_mcp7engines13coach_metrics5testss_37durability_index_handles_zero_current
FN:2037,_RNvNtNtNtCsgTXWXfwjzne_17intervals_icu_mcp7engines13coach_metrics5testss_38readiness_score_handles_partial_inputs
FN:2317,_RNvNtNtNtCsgTXWXfwjzne_17intervals_icu_mcp7engines13coach_metrics5testss_38signed_decoupling_positive_is_drifting
FN:2220,_RNvNtNtNtCsgTXWXfwjzne_17intervals_icu_mcp7engines13coach_metrics5testss_39compute_wdr_metrics_from_wbal_intervals
FN:1867,_RNvNtNtNtCsgTXWXfwjzne_17intervals_icu_mcp7engines13coach_metrics5testss_39polarisation_ratio_classifies_polarised
FN:2326,_RNvNtNtNtCsgTXWXfwjzne_17intervals_icu_mcp7engines13coach_metrics5testss_39signed_decoupling_negative_is_improving
FN:1578,_RNvNtNtNtCsgTXWXfwjzne_17intervals_icu_mcp7engines13coach_metrics5testss_39trend_metrics_compute_percentage_deltas
FN:2169,_RNvNtNtNtCsgTXWXfwjzne_17intervals_icu_mcp7engines13coach_metrics5testss_40enrich_anchors_from_activity_pm_fallback
FN:1890,_RNvNtNtNtCsgTXWXfwjzne_17intervals_icu_mcp7engines13coach_metrics5testss_40polarisation_preserves_input_percentages
FN:1768,_RNvNtNtNtCsgTXWXfwjzne_17intervals_icu_mcp7engines13coach_metrics5testss_41monotony_capped_at_10_for_identical_loads
FN:2007,_RNvNtNtNtCsgTXWXfwjzne_17intervals_icu_mcp7engines13coach_metrics5testss_41readiness_score_computes_weighted_average
FN:1748,_RNvNtNtNtCsgTXWXfwjzne_17intervals_icu_mcp7engines13coach_metrics5testss_43acwr_maps_productive_and_underloaded_states
FN:2031,_RNvNtNtNtCsgTXWXfwjzne_17intervals_icu_mcp7engines13coach_metrics5testss_43readiness_score_clamps_sleep_above_10_hours
FN:1785,_RNvNtNtNtCsgTXWXfwjzne_17intervals_icu_mcp7engines13coach_metrics5testss_43recovery_index_is_hrv_divided_by_resting_hr
FN:2200,_RNvNtNtNtCsgTXWXfwjzne_17intervals_icu_mcp7engines13coach_metrics5testss_44derive_espe_metrics_computes_glycolytic_bias
FN:1562,_RNvNtNtNtCsgTXWXfwjzne_17intervals_icu_mcp7engines13coach_metrics5testss_44tsb_below_minus_20_is_classified_as_fatigued
FN:2232,_RNvNtNtNtCsgTXWXfwjzne_17intervals_icu_mcp7engines13coach_metrics5testss_45compute_wdr_metrics_unsupported_for_null_wbal
FN:1978,_RNvNtNtNtCsgTXWXfwjzne_17intervals_icu_mcp7engines13coach_metrics5testss_45consistency_index_no_plans_returns_none_ratio
FN:2128,_RNvNtNtNtCsgTXWXfwjzne_17intervals_icu_mcp7engines13coach_metrics5testss_45extract_sportinfo_anchors_from_wellness_array
FN:1775,_RNvNtNtNtCsgTXWXfwjzne_17intervals_icu_mcp7engines13coach_metrics5testss_45strain_is_weekly_total_multiplied_by_monotony
FN:2254,_RNvNtNtNtCsgTXWXfwjzne_17intervals_icu_mcp7engines13coach_metrics5testss_46compute_wdr_metrics_clips_depletion_at_150_pct
FN:1759,_RNvNtNtNtCsgTXWXfwjzne_17intervals_icu_mcp7engines13coach_metrics5testss_46monotony_is_mean_divided_by_standard_deviation
FN:1636,_RNvNtNtNtCsgTXWXfwjzne_17intervals_icu_mcp7engines13coach_metrics5testss_46parse_fitness_metrics_supports_summary_payload
FN:1859,_RNvNtNtNtCsgTXWXfwjzne_17intervals_icu_mcp7engines13coach_metrics5testss_46polarisation_ratio_classifies_threshold_biased
FN:2025,_RNvNtNtNtCsgTXWXfwjzne_17intervals_icu_mcp7engines13coach_metrics5testss_46readiness_score_normalizes_sleep_hours_over_10
FN:1736,_RNvNtNtNtCsgTXWXfwjzne_17intervals_icu_mcp7engines13coach_metrics5testss_47acwr_ewma_marks_ratio_above_1_5_as_overreaching
FN:2212,_RNvNtNtNtCsgTXWXfwjzne_17intervals_icu_mcp7engines13coach_metrics5testss_47derive_espe_metrics_unsupported_when_no_anchors
FN:2106,_RNvNtNtNtCsgTXWXfwjzne_17intervals_icu_mcp7engines13coach_metrics5testss_47durability_index_is_current_divided_by_baseline
FN:2150,_RNvNtNtNtCsgTXWXfwjzne_17intervals_icu_mcp7engines13coach_metrics5testss_47extract_sportinfo_anchors_unsupported_when_null
FN:1883,_RNvNtNtNtCsgTXWXfwjzne_17intervals_icu_mcp7engines13coach_metrics5testss_47polarisation_returns_none_ratio_when_z2_is_zero
FN:2018,_RNvNtNtNtCsgTXWXfwjzne_17intervals_icu_mcp7engines13coach_metrics5testss_47readiness_score_returns_none_for_partial_inputs
FN:1600,_RNvNtNtNtCsgTXWXfwjzne_17intervals_icu_mcp7engines13coach_metrics5testss_48build_trend_snapshot_aggregates_activity_details
FN:2142,_RNvNtNtNtCsgTXWXfwjzne_17intervals_icu_mcp7engines13coach_metrics5testss_48extract_sportinfo_anchors_unsupported_when_empty
FN:2185,_RNvNtNtNtCsgTXWXfwjzne_17intervals_icu_mcp7engines13coach_metrics5testss_49enrich_anchors_does_not_overwrite_existing_values
FN:1985,_RNvNtNtNtCsgTXWXfwjzne_17intervals_icu_mcp7engines13coach_metrics5testss_50fatigue_index_is_load_7d_divided_by_recovery_index
FN:2112,_RNvNtNtNtCsgTXWXfwjzne_17intervals_icu_mcp7engines13coach_metrics5testss_51durability_index_returns_none_when_baseline_is_zero
FN:1906,_RNvNtNtNtCsgTXWXfwjzne_17intervals_icu_mcp7engines13coach_metrics5testss_51parse_polarisation_from_api_aggregates_5_zone_times
FN:1898,_RNvNtNtNtCsgTXWXfwjzne_17intervals_icu_mcp7engines13coach_metrics5testss_51parse_polarisation_from_api_uses_polarization_index
FN:2060,_RNvNtNtNtCsgTXWXfwjzne_17intervals_icu_mcp7engines13coach_metrics5testss_51parse_wellness_metrics_extracts_mood_stress_fatigue
FN:2002,_RNvNtNtNtCsgTXWXfwjzne_17intervals_icu_mcp7engines13coach_metrics5testss_51stress_tolerance_returns_none_when_monotony_is_zero
FN:1701,_RNvNtNtNtCsgTXWXfwjzne_17intervals_icu_mcp7engines13coach_metrics5testss_52parse_api_load_snapshot_supports_integer_load_fields
FN:2073,_RNvNtNtNtCsgTXWXfwjzne_17intervals_icu_mcp7engines13coach_metrics5testss_52parse_wellness_metrics_uses_api_readiness_as_primary
FN:1690,_RNvNtNtNtCsgTXWXfwjzne_17intervals_icu_mcp7engines13coach_metrics5testss_53parse_api_load_snapshot_supports_activity_load_fields
FN:1679,_RNvNtNtNtCsgTXWXfwjzne_17intervals_icu_mcp7engines13coach_metrics5testss_53parse_api_load_snapshot_supports_wellness_load_fields
FN:1943,_RNvNtNtNtCsgTXWXfwjzne_17intervals_icu_mcp7engines13coach_metrics5testss_53parse_polarisation_from_api_returns_none_when_no_data
FN:1876,_RNvNtNtNtCsgTXWXfwjzne_17intervals_icu_mcp7engines13coach_metrics5testss_53polarisation_ratio_classifies_high_intensity_dominant
FN:2013,_RNvNtNtNtCsgTXWXfwjzne_17intervals_icu_mcp7engines13coach_metrics5testss_53readiness_score_returns_none_when_all_inputs_are_none
FN:2241,_RNvNtNtNtCsgTXWXfwjzne_17intervals_icu_mcp7engines13coach_metrics5testss_54compute_wdr_metrics_fallback_to_icu_max_wbal_depletion
FN:2349,_RNvNtNtNtCsgTXWXfwjzne_17intervals_icu_mcp7engines13coach_metrics5testss_54compute_z2_hr_variance_returns_none_for_too_few_points
FN:1991,_RNvNtNtNtCsgTXWXfwjzne_17intervals_icu_mcp7engines13coach_metrics5testss_54fatigue_index_returns_none_when_recovery_index_is_zero
FN:1646,_RNvNtNtNtCsgTXWXfwjzne_17intervals_icu_mcp7engines13coach_metrics5testss_54parse_wellness_metrics_supports_seconds_and_snake_case
FN:2262,_RNvNtNtNtCsgTXWXfwjzne_17intervals_icu_mcp7engines13coach_metrics5testss_55aggregate_wdr_metrics_7d_counts_high_depletion_sessions
FN:2117,_RNvNtNtNtCsgTXWXfwjzne_17intervals_icu_mcp7engines13coach_metrics5testss_55durability_index_returns_none_when_baseline_is_negative
FN:1923,_RNvNtNtNtCsgTXWXfwjzne_17intervals_icu_mcp7engines13coach_metrics5testss_55parse_polarisation_from_api_aggregates_5_zone_polarised
FN:1996,_RNvNtNtNtCsgTXWXfwjzne_17intervals_icu_mcp7engines13coach_metrics5testss_55stress_tolerance_is_strain_over_monotony_divided_by_100
FN:1555,_RNvNtNtNtCsgTXWXfwjzne_17intervals_icu_mcp7engines13coach_metrics5testss_55weekly_avg_hours_is_computed_from_total_time_and_window
FN:2356,_RNvNtNtNtCsgTXWXfwjzne_17intervals_icu_mcp7engines13coach_metrics5testss_56compute_z2_hr_variance_returns_none_when_no_points_in_z2
FN:2156,_RNvNtNtNtCsgTXWXfwjzne_17intervals_icu_mcp7engines13coach_metrics5testss_57extract_sportinfo_anchors_multi_sport_first_non_null_wins
FN:1830,_RNvNtNtNtCsgTXWXfwjzne_17intervals_icu_mcp7engines13coach_metrics5testss_58aerobic_decoupling_above_five_percent_creates_watch_signal
FN:1820,_RNvNtNtNtCsgTXWXfwjzne_17intervals_icu_mcp7engines13coach_metrics5testss_59efficiency_factor_is_mean_output_divided_by_mean_heart_rate
FN:1799,_RNvNtNtNtCsgTXWXfwjzne_17intervals_icu_mcp7engines13coach_metrics5testss_60load_management_metrics_require_sufficient_lookback_for_acwr
FN:1841,_RNvNtNtNtCsgTXWXfwjzne_17intervals_icu_mcp7engines13coach_metrics5testss_61aerobic_decoupling_returns_none_for_mismatched_stream_lengths
FN:2094,_RNvNtNtNtCsgTXWXfwjzne_17intervals_icu_mcp7engines13coach_metrics5testss_63parse_wellness_metrics_readiness_requires_api_or_all_components
FN:1792,_RNvNtNtNtCsgTXWXfwjzne_17intervals_icu_mcp7engines13coach_metrics5testss_63recovery_index_compares_recent_hrv_and_rhr_to_personal_baseline
FN:1711,_RNvNtNtNtCsgTXWXfwjzne_17intervals_icu_mcp7engines13coach_metrics5testss_65derive_execution_metrics_prefers_api_values_over_stream_fallbacks
FN:2044,_RNvNtNtNtCsgTXWXfwjzne_17intervals_icu_mcp7engines13coach_metrics5testss_67load_management_metrics_computes_fatigue_index_and_stress_tolerance
FN:2052,_RNvNtNtNtCsgTXWXfwjzne_17intervals_icu_mcp7engines13coach_metrics5testss_67load_management_metrics_without_recovery_index_has_no_fatigue_index
FN:2082,_RNvNtNtNtCsgTXWXfwjzne_17intervals_icu_mcp7engines13coach_metrics5testss_71parse_wellness_metrics_readiness_falls_back_to_formula_when_api_missing
FN:1659,_RNvNtNtNtCsgTXWXfwjzne_17intervals_icu_mcp7engines13coach_metrics5testss_73parse_wellness_metrics_derives_adaptive_hrv_baseline_and_recent_deviation
FNDA:0,_RNCNvNtNtCsgTXWXfwjzne_17intervals_icu_mcp7engines13coach_metrics20compare_power_curves0B7_
FNDA:0,_RNCNvNtNtCsgTXWXfwjzne_17intervals_icu_mcp7engines13coach_metrics23compute_heat_metrics_7d0B7_
FNDA:0,_RNCNvNtNtCsgTXWXfwjzne_17intervals_icu_mcp7engines13coach_metrics23compute_heat_metrics_7ds_0B7_
FNDA:0,_RNvNtNtCsgTXWXfwjzne_17intervals_icu_mcp7engines13coach_metrics18classify_tid_model
FNDA:0,_RNvNtNtCsgTXWXfwjzne_17intervals_icu_mcp7engines13coach_metrics20compare_power_curves
FNDA:0,_RNvNtNtCsgTXWXfwjzne_17intervals_icu_mcp7engines13coach_metrics20gap_to_running_power
FNDA:0,_RNvNtNtCsgTXWXfwjzne_17intervals_icu_mcp7engines13coach_metrics23compute_heat_metrics_7d
FNDA:0,_RNvNtNtCsgTXWXfwjzne_17intervals_icu_mcp7engines13coach_metrics23normalize_running_power
FNDA:348,_RNvNtNtCsgTXWXfwjzne_17intervals_icu_mcp7engines13coach_metrics10get_number
FNDA:7,_RNvNtNtCsgTXWXfwjzne_17intervals_icu_mcp7engines13coach_metrics12compute_acwr
FNDA:40,_RNvNtNtCsgTXWXfwjzne_17intervals_icu_mcp7engines13coach_metrics13percent_delta
FNDA:4,_RNvNtNtCsgTXWXfwjzne_17intervals_icu_mcp7engines13coach_metrics14compute_strain
FNDA:63,_RNvNtNtCsgTXWXfwjzne_17intervals_icu_mcp7engines13coach_metrics15collect_numbers
FNDA:6,_RNvNtNtCsgTXWXfwjzne_17intervals_icu_mcp7engines13coach_metrics15compute_ndli_7d
FNDA:6,_RNvNtNtCsgTXWXfwjzne_17intervals_icu_mcp7engines13coach_metrics16compute_monotony
FNDA:1,_RNvNtNtCsgTXWXfwjzne_17intervals_icu_mcp7engines13coach_metrics17compute_hrv_ratio
FNDA:8,_RNvNtNtCsgTXWXfwjzne_17intervals_icu_mcp7engines13coach_metrics18build_acwr_metrics
FNDA:1,_RNvNtNtCsgTXWXfwjzne_17intervals_icu_mcp7engines13coach_metrics18classify_hrv_state
FNDA:8,_RNvNtNtCsgTXWXfwjzne_17intervals_icu_mcp7engines13coach_metrics19classify_acwr_ratio
FNDA:18,_RNvNtNtCsgTXWXfwjzne_17intervals_icu_mcp7engines13coach_metrics19compute_wdr_metrics
FNDA:11,_RNvNtNtCsgTXWXfwjzne_17intervals_icu_mcp7engines13coach_metrics19derive_espe_metrics
FNDA:19,_RNvNtNtCsgTXWXfwjzne_17intervals_icu_mcp7engines13coach_metrics20build_trend_snapshot
FNDA:7,_RNvNtNtCsgTXWXfwjzne_17intervals_icu_mcp7engines13coach_metrics20compute_polarisation
FNDA:13,_RNvNtNtCsgTXWXfwjzne_17intervals_icu_mcp7engines13coach_metrics20derive_trend_metrics
FNDA:3,_RNvNtNtCsgTXWXfwjzne_17intervals_icu_mcp7engines13coach_metrics21compute_fatigue_index
FNDA:13,_RNvNtNtCsgTXWXfwjzne_17intervals_icu_mcp7engines13coach_metrics21derive_volume_metrics
FNDA:23,_RNvNtNtCsgTXWXfwjzne_17intervals_icu_mcp7engines13coach_metrics21parse_fitness_metrics
FNDA:9,_RNvNtNtCsgTXWXfwjzne_17intervals_icu_mcp7engines13coach_metrics22compute_recovery_index
FNDA:3,_RNvNtNtCsgTXWXfwjzne_17intervals_icu_mcp7engines13coach_metrics22compute_z2_hr_variance
FNDA:10,_RNvNtNtCsgTXWXfwjzne_17intervals_icu_mcp7engines13coach_metrics22extract_numeric_stream
FNDA:8,_RNvNtNtCsgTXWXfwjzne_17intervals_icu_mcp7engines13coach_metrics22parse_wellness_metrics
FNDA:2,_RNvNtNtCsgTXWXfwjzne_17intervals_icu_mcp7engines13coach_metrics23compute_hrv_trend_slope
FNDA:16,_RNvNtNtCsgTXWXfwjzne_17intervals_icu_mcp7engines13coach_metrics23compute_readiness_score
FNDA:10,_RNvNtNtCsgTXWXfwjzne_17intervals_icu_mcp7engines13coach_metrics23parse_api_load_snapshot
FNDA:10,_RNvNtNtCsgTXWXfwjzne_17intervals_icu_mcp7engines13coach_metrics23parse_efficiency_factor
FNDA:1,_RNvNtNtCsgTXWXfwjzne_17intervals_icu_mcp7engines13coach_metrics24aggregate_wdr_metrics_7d
FNDA:7,_RNvNtNtCsgTXWXfwjzne_17intervals_icu_mcp7engines13coach_metrics24classify_hrv_trend_state
FNDA:4,_RNvNtNtCsgTXWXfwjzne_17intervals_icu_mcp7engines13coach_metrics24compute_durability_index
FNDA:5,_RNvNtNtCsgTXWXfwjzne_17intervals_icu_mcp7engines13coach_metrics24compute_stress_tolerance
FNDA:10,_RNvNtNtCsgTXWXfwjzne_17intervals_icu_mcp7engines13coach_metrics24derive_execution_metrics
FNDA:10,_RNvNtNtCsgTXWXfwjzne_17intervals_icu_mcp7engines13coach_metrics24parse_aerobic_decoupling
FNDA:6,_RNvNtNtCsgTXWXfwjzne_17intervals_icu_mcp7engines13coach_metrics25classify_decoupling_state
FNDA:15,_RNvNtNtCsgTXWXfwjzne_17intervals_icu_mcp7engines13coach_metrics25classify_durability_state
FNDA:17,_RNvNtNtCsgTXWXfwjzne_17intervals_icu_mcp7engines13coach_metrics25compute_consistency_index
FNDA:14,_RNvNtNtCsgTXWXfwjzne_17intervals_icu_mcp7engines13coach_metrics25compute_efficiency_factor
FNDA:13,_RNvNtNtCsgTXWXfwjzne_17intervals_icu_mcp7engines13coach_metrics25extract_sportinfo_anchors
FNDA:10,_RNvNtNtCsgTXWXfwjzne_17intervals_icu_mcp7engines13coach_metrics25interpret_fitness_metrics
FNDA:7,_RNvNtNtCsgTXWXfwjzne_17intervals_icu_mcp7engines13coach_metrics25split_recent_and_baseline
FNDA:7,_RNvNtNtCsgTXWXfwjzne_17intervals_icu_mcp7engines13coach_metrics26compute_aerobic_decoupling
FNDA:4,_RNvNtNtCsgTXWXfwjzne_17intervals_icu_mcp7engines13coach_metrics27parse_polarisation_from_api
FNDA:11,_RNvNtNtCsgTXWXfwjzne_17intervals_icu_mcp7engines13coach_metrics28enrich_anchors_from_activity
FNDA:1,_RNvNtNtCsgTXWXfwjzne_17intervals_icu_mcp7engines13coach_metrics30compute_recovery_quality_index
FNDA:9,_RNvNtNtCsgTXWXfwjzne_17intervals_icu_mcp7engines13coach_metrics30derive_workout_metrics_context
FNDA:3,_RNvNtNtCsgTXWXfwjzne_17intervals_icu_mcp7engines13coach_metrics31compute_load_management_metrics
FNDA:10,_RNvNtNtCsgTXWXfwjzne_17intervals_icu_mcp7engines13coach_metrics37derive_execution_metrics_from_streams
FNDA:91,_RNvNtNtCsgTXWXfwjzne_17intervals_icu_mcp7engines13coach_metrics7average
FNDA:0,_RNCNCNCNCNvNtNtCsgTXWXfwjzne_17intervals_icu_mcp7engines13coach_metrics10get_number0000Bd_
FNDA:2,_RNCNCNCNvNtNtCsgTXWXfwjzne_17intervals_icu_mcp7engines13coach_metrics10get_number000Bb_
FNDA:0,_RNCNCNCNvNtNtCsgTXWXfwjzne_17intervals_icu_mcp7engines13coach_metrics22extract_numeric_streams_000Bb_
FNDA:167,_RNCNCNvNtNtCsgTXWXfwjzne_17intervals_icu_mcp7engines13coach_metrics10get_number00B9_
FNDA:0,_RNCNCNvNtNtCsgTXWXfwjzne_17intervals_icu_mcp7engines13coach_metrics22extract_numeric_streams_00B9_
FNDA:1,_RNCNCNvNtNtCsgTXWXfwjzne_17intervals_icu_mcp7engines13coach_metrics22parse_wellness_metricss_00B9_
FNDA:10,_RNCNCNvNtNtCsgTXWXfwjzne_17intervals_icu_mcp7engines13coach_metrics27parse_polarisation_from_apis0_00B9_
FNDA:544,_RNCNvNtNtCsgTXWXfwjzne_17intervals_icu_mcp7engines13coach_metrics10get_number0B7_
FNDA:175,_RNCNvNtNtCsgTXWXfwjzne_17intervals_icu_mcp7engines13coach_metrics15collect_numbers0B7_
FNDA:2,_RNCNvNtNtCsgTXWXfwjzne_17intervals_icu_mcp7engines13coach_metrics15compute_ndli_7d0B7_
FNDA:42,_RNCNvNtNtCsgTXWXfwjzne_17intervals_icu_mcp7engines13coach_metrics16compute_monotony0B7_
FNDA:7,_RNCNvNtNtCsgTXWXfwjzne_17intervals_icu_mcp7engines13coach_metrics19compute_wdr_metrics0B7_
FNDA:1,_RNCNvNtNtCsgTXWXfwjzne_17intervals_icu_mcp7engines13coach_metrics19compute_wdr_metricss0_0B7_
FNDA:1,_RNCNvNtNtCsgTXWXfwjzne_17intervals_icu_mcp7engines13coach_metrics19compute_wdr_metricss1_0B7_
FNDA:7,_RNCNvNtNtCsgTXWXfwjzne_17intervals_icu_mcp7engines13coach_metrics19compute_wdr_metricss_0B7_
FNDA:1,_RNCNvNtNtCsgTXWXfwjzne_17intervals_icu_mcp7engines13coach_metrics19derive_espe_metrics0B7_
FNDA:0,_RNCNvNtNtCsgTXWXfwjzne_17intervals_icu_mcp7engines13coach_metrics19derive_espe_metricss0_0B7_
FNDA:1,_RNCNvNtNtCsgTXWXfwjzne_17intervals_icu_mcp7engines13coach_metrics19derive_espe_metricss1_0B7_
FNDA:0,_RNCNvNtNtCsgTXWXfwjzne_17intervals_icu_mcp7engines13coach_metrics19derive_espe_metricss2_0B7_
FNDA:0,_RNCNvNtNtCsgTXWXfwjzne_17intervals_icu_mcp7engines13coach_metrics19derive_espe_metricss_0B7_
FNDA:20,_RNCNvNtNtCsgTXWXfwjzne_17intervals_icu_mcp7engines13coach_metrics20build_trend_snapshot0B7_
FNDA:6,_RNCNvNtNtCsgTXWXfwjzne_17intervals_icu_mcp7engines13coach_metrics20compute_polarisation0B7_
FNDA:33,_RNCNvNtNtCsgTXWXfwjzne_17intervals_icu_mcp7engines13coach_metrics22compute_z2_hr_variance0B7_
FNDA:10,_RNCNvNtNtCsgTXWXfwjzne_17intervals_icu_mcp7engines13coach_metrics22compute_z2_hr_variances_0B7_
FNDA:18,_RNCNvNtNtCsgTXWXfwjzne_17intervals_icu_mcp7engines13coach_metrics22extract_numeric_stream0B7_
FNDA:22,_RNCNvNtNtCsgTXWXfwjzne_17intervals_icu_mcp7engines13coach_metrics22extract_numeric_streams_0B7_
FNDA:17,_RNCNvNtNtCsgTXWXfwjzne_17intervals_icu_mcp7engines13coach_metrics22parse_wellness_metrics0B7_
FNDA:7,_RNCNvNtNtCsgTXWXfwjzne_17intervals_icu_mcp7engines13coach_metrics22parse_wellness_metricss0_0B7_
FNDA:6,_RNCNvNtNtCsgTXWXfwjzne_17intervals_icu_mcp7engines13coach_metrics22parse_wellness_metricss1_0B7_
FNDA:1,_RNCNvNtNtCsgTXWXfwjzne_17intervals_icu_mcp7engines13coach_metrics22parse_wellness_metricss2_0B7_
FNDA:1,_RNCNvNtNtCsgTXWXfwjzne_17intervals_icu_mcp7engines13coach_metrics22parse_wellness_metricss3_0B7_
FNDA:1,_RNCNvNtNtCsgTXWXfwjzne_17intervals_icu_mcp7engines13coach_metrics22parse_wellness_metricss_0B7_
FNDA:10,_RNCNvNtNtCsgTXWXfwjzne_17intervals_icu_mcp7engines13coach_metrics23compute_hrv_trend_slope0B7_
FNDA:10,_RNCNvNtNtCsgTXWXfwjzne_17intervals_icu_mcp7engines13coach_metrics23compute_hrv_trend_slopes0_0B7_
FNDA:10,_RNCNvNtNtCsgTXWXfwjzne_17intervals_icu_mcp7engines13coach_metrics23compute_hrv_trend_slopes_0B7_
FNDA:4,_RNCNvNtNtCsgTXWXfwjzne_17intervals_icu_mcp7engines13coach_metrics25compute_consistency_index0B7_
FNDA:3,_RNCNvNtNtCsgTXWXfwjzne_17intervals_icu_mcp7engines13coach_metrics25extract_sportinfo_anchors0B7_
FNDA:10,_RNCNvNtNtCsgTXWXfwjzne_17intervals_icu_mcp7engines13coach_metrics25interpret_fitness_metrics0B7_
FNDA:1,_RNCNvNtNtCsgTXWXfwjzne_17intervals_icu_mcp7engines13coach_metrics27parse_polarisation_from_api0B7_
FNDA:10,_RNCNvNtNtCsgTXWXfwjzne_17intervals_icu_mcp7engines13coach_metrics27parse_polarisation_from_apis0_0B7_
FNDA:2,_RNCNvNtNtCsgTXWXfwjzne_17intervals_icu_mcp7engines13coach_metrics27parse_polarisation_from_apis_0B7_
FNDA:11,_RNCNvNtNtCsgTXWXfwjzne_17intervals_icu_mcp7engines13coach_metrics28enrich_anchors_from_activity0B7_
FNDA:3,_RNCNvNtNtCsgTXWXfwjzne_17intervals_icu_mcp7engines13coach_metrics31compute_load_management_metrics0B7_
FNDA:1,_RNCNvNtNtCsgTXWXfwjzne_17intervals_icu_mcp7engines13coach_metrics31compute_load_management_metricss0_0B7_
FNDA:3,_RNCNvNtNtCsgTXWXfwjzne_17intervals_icu_mcp7engines13coach_metrics31compute_load_management_metricss_0B7_
FNDA:1,_RNCNvNtNtNtCsgTXWXfwjzne_17intervals_icu_mcp7engines13coach_metrics5testss_65derive_execution_metrics_prefers_api_values_over_stream_fallbackss_0B9_
FNDA:28,_RNCNvNtNtNtCsgTXWXfwjzne_17intervals_icu_mcp7engines13coach_metrics5testss_73parse_wellness_metrics_derives_adaptive_hrv_baseline_and_recent_deviation0B9_
FNDA:7,_RNCNvNtNtNtCsgTXWXfwjzne_17intervals_icu_mcp7engines13coach_metrics5testss_73parse_wellness_metrics_derives_adaptive_hrv_baseline_and_recent_deviations_0B9_
FNDA:35,_RNvNtNtNtCsgTXWXfwjzne_17intervals_icu_mcp7engines13coach_metrics5tests14wellness_entry
FNDA:1,_RNvNtNtNtCsgTXWXfwjzne_17intervals_icu_mcp7engines13coach_metrics5testss_31classify_durability_state_watch
FNDA:1,_RNvNtNtNtCsgTXWXfwjzne_17intervals_icu_mcp7engines13coach_metrics5testss_31consistency_index_low_adherence
FNDA:1,_RNvNtNtNtCsgTXWXfwjzne_17intervals_icu_mcp7engines13coach_metrics5testss_32classify_durability_state_stable
FNDA:1,_RNvNtNtNtCsgTXWXfwjzne_17intervals_icu_mcp7engines13coach_metrics5testss_32consistency_index_full_adherence
FNDA:1,_RNvNtNtNtCsgTXWXfwjzne_17intervals_icu_mcp7engines13coach_metrics5testss_32consistency_index_good_adherence
FNDA:1,_RNvNtNtNtCsgTXWXfwjzne_17intervals_icu_mcp7engines13coach_metrics5testss_34classify_durability_state_drifting
FNDA:1,_RNvNtNtNtCsgTXWXfwjzne_17intervals_icu_mcp7engines13coach_metrics5testss_34empty_fitness_values_stay_optional
FNDA:1,_RNvNtNtNtCsgTXWXfwjzne_17intervals_icu_mcp7engines13coach_metrics5testss_35classify_durability_state_improving
FNDA:1,_RNvNtNtNtCsgTXWXfwjzne_17intervals_icu_mcp7engines13coach_metrics5testss_35compute_z2_hr_variance_returns_some
FNDA:1,_RNvNtNtNtCsgTXWXfwjzne_17intervals_icu_mcp7engines13coach_metrics5testss_36acwr_returns_none_for_short_lookback
FNDA:1,_RNvNtNtNtCsgTXWXfwjzne_17intervals_icu_mcp7engines13coach_metrics5testss_36consistency_index_moderate_adherence
FNDA:1,_RNvNtNtNtCsgTXWXfwjzne_17intervals_icu_mcp7engines13coach_metrics5testss_37durability_index_handles_zero_current
FNDA:1,_RNvNtNtNtCsgTXWXfwjzne_17intervals_icu_mcp7engines13coach_metrics5testss_38readiness_score_handles_partial_inputs
FNDA:1,_RNvNtNtNtCsgTXWXfwjzne_17intervals_icu_mcp7engines13coach_metrics5testss_38signed_decoupling_positive_is_drifting
FNDA:1,_RNvNtNtNtCsgTXWXfwjzne_17intervals_icu_mcp7engines13coach_metrics5testss_39compute_wdr_metrics_from_wbal_intervals
FNDA:1,_RNvNtNtNtCsgTXWXfwjzne_17intervals_icu_mcp7engines13coach_metrics5testss_39polarisation_ratio_classifies_polarised
FNDA:1,_RNvNtNtNtCsgTXWXfwjzne_17intervals_icu_mcp7engines13coach_metrics5testss_39signed_decoupling_negative_is_improving
FNDA:1,_RNvNtNtNtCsgTXWXfwjzne_17intervals_icu_mcp7engines13coach_metrics5testss_39trend_metrics_compute_percentage_deltas
FNDA:1,_RNvNtNtNtCsgTXWXfwjzne_17intervals_icu_mcp7engines13coach_metrics5testss_40enrich_anchors_from_activity_pm_fallback
FNDA:1,_RNvNtNtNtCsgTXWXfwjzne_17intervals_icu_mcp7engines13coach_metrics5testss_40polarisation_preserves_input_percentages
FNDA:1,_RNvNtNtNtCsgTXWXfwjzne_17intervals_icu_mcp7engines13coach_metrics5testss_41monotony_capped_at_10_for_identical_loads
FNDA:1,_RNvNtNtNtCsgTXWXfwjzne_17intervals_icu_mcp7engines13coach_metrics5testss_41readiness_score_computes_weighted_average
FNDA:1,_RNvNtNtNtCsgTXWXfwjzne_17intervals_icu_mcp7engines13coach_metrics5testss_43acwr_maps_productive_and_underloaded_states
FNDA:1,_RNvNtNtNtCsgTXWXfwjzne_17intervals_icu_mcp7engines13coach_metrics5testss_43readiness_score_clamps_sleep_above_10_hours
FNDA:1,_RNvNtNtNtCsgTXWXfwjzne_17intervals_icu_mcp7engines13coach_metrics5testss_43recovery_index_is_hrv_divided_by_resting_hr
FNDA:1,_RNvNtNtNtCsgTXWXfwjzne_17intervals_icu_mcp7engines13coach_metrics5testss_44derive_espe_metrics_computes_glycolytic_bias
FNDA:1,_RNvNtNtNtCsgTXWXfwjzne_17intervals_icu_mcp7engines13coach_metrics5testss_44tsb_below_minus_20_is_classified_as_fatigued
FNDA:1,_RNvNtNtNtCsgTXWXfwjzne_17intervals_icu_mcp7engines13coach_metrics5testss_45compute_wdr_metrics_unsupported_for_null_wbal
FNDA:1,_RNvNtNtNtCsgTXWXfwjzne_17intervals_icu_mcp7engines13coach_metrics5testss_45consistency_index_no_plans_returns_none_ratio
FNDA:1,_RNvNtNtNtCsgTXWXfwjzne_17intervals_icu_mcp7engines13coach_metrics5testss_45extract_sportinfo_anchors_from_wellness_array
FNDA:1,_RNvNtNtNtCsgTXWXfwjzne_17intervals_icu_mcp7engines13coach_metrics5testss_45strain_is_weekly_total_multiplied_by_monotony
FNDA:1,_RNvNtNtNtCsgTXWXfwjzne_17intervals_icu_mcp7engines13coach_metrics5testss_46compute_wdr_metrics_clips_depletion_at_150_pct
FNDA:1,_RNvNtNtNtCsgTXWXfwjzne_17intervals_icu_mcp7engines13coach_metrics5testss_46monotony_is_mean_divided_by_standard_deviation
FNDA:1,_RNvNtNtNtCsgTXWXfwjzne_17intervals_icu_mcp7engines13coach_metrics5testss_46parse_fitness_metrics_supports_summary_payload
FNDA:1,_RNvNtNtNtCsgTXWXfwjzne_17intervals_icu_mcp7engines13coach_metrics5testss_46polarisation_ratio_classifies_threshold_biased
FNDA:1,_RNvNtNtNtCsgTXWXfwjzne_17intervals_icu_mcp7engines13coach_metrics5testss_46readiness_score_normalizes_sleep_hours_over_10
FNDA:1,_RNvNtNtNtCsgTXWXfwjzne_17intervals_icu_mcp7engines13coach_metrics5testss_47acwr_ewma_marks_ratio_above_1_5_as_overreaching
FNDA:1,_RNvNtNtNtCsgTXWXfwjzne_17intervals_icu_mcp7engines13coach_metrics5testss_47derive_espe_metrics_unsupported_when_no_anchors
FNDA:1,_RNvNtNtNtCsgTXWXfwjzne_17intervals_icu_mcp7engines13coach_metrics5testss_47durability_index_is_current_divided_by_baseline
FNDA:1,_RNvNtNtNtCsgTXWXfwjzne_17intervals_icu_mcp7engines13coach_metrics5testss_47extract_sportinfo_anchors_unsupported_when_null
FNDA:1,_RNvNtNtNtCsgTXWXfwjzne_17intervals_icu_mcp7engines13coach_metrics5testss_47polarisation_returns_none_ratio_when_z2_is_zero
FNDA:1,_RNvNtNtNtCsgTXWXfwjzne_17intervals_icu_mcp7engines13coach_metrics5testss_47readiness_score_returns_none_for_partial_inputs
FNDA:1,_RNvNtNtNtCsgTXWXfwjzne_17intervals_icu_mcp7engines13coach_metrics5testss_48build_trend_snapshot_aggregates_activity_details
FNDA:1,_RNvNtNtNtCsgTXWXfwjzne_17intervals_icu_mcp7engines13coach_metrics5testss_48extract_sportinfo_anchors_unsupported_when_empty
FNDA:1,_RNvNtNtNtCsgTXWXfwjzne_17intervals_icu_mcp7engines13coach_metrics5testss_49enrich_anchors_does_not_overwrite_existing_values
FNDA:1,_RNvNtNtNtCsgTXWXfwjzne_17intervals_icu_mcp7engines13coach_metrics5testss_50fatigue_index_is_load_7d_divided_by_recovery_index
FNDA:1,_RNvNtNtNtCsgTXWXfwjzne_17intervals_icu_mcp7engines13coach_metrics5testss_51durability_index_returns_none_when_baseline_is_zero
FNDA:1,_RNvNtNtNtCsgTXWXfwjzne_17intervals_icu_mcp7engines13coach_metrics5testss_51parse_polarisation_from_api_aggregates_5_zone_times
FNDA:1,_RNvNtNtNtCsgTXWXfwjzne_17intervals_icu_mcp7engines13coach_metrics5testss_51parse_polarisation_from_api_uses_polarization_index
FNDA:1,_RNvNtNtNtCsgTXWXfwjzne_17intervals_icu_mcp7engines13coach_metrics5testss_51parse_wellness_metrics_extracts_mood_stress_fatigue
FNDA:1,_RNvNtNtNtCsgTXWXfwjzne_17intervals_icu_mcp7engines13coach_metrics5testss_51stress_tolerance_returns_none_when_monotony_is_zero
FNDA:1,_RNvNtNtNtCsgTXWXfwjzne_17intervals_icu_mcp7engines13coach_metrics5testss_52parse_api_load_snapshot_supports_integer_load_fields
FNDA:1,_RNvNtNtNtCsgTXWXfwjzne_17intervals_icu_mcp7engines13coach_metrics5testss_52parse_wellness_metrics_uses_api_readiness_as_primary
FNDA:1,_RNvNtNtNtCsgTXWXfwjzne_17intervals_icu_mcp7engines13coach_metrics5testss_53parse_api_load_snapshot_supports_activity_load_fields
FNDA:1,_RNvNtNtNtCsgTXWXfwjzne_17intervals_icu_mcp7engines13coach_metrics5testss_53parse_api_load_snapshot_supports_wellness_load_fields
FNDA:1,_RNvNtNtNtCsgTXWXfwjzne_17intervals_icu_mcp7engines13coach_metrics5testss_53parse_polarisation_from_api_returns_none_when_no_data
FNDA:1,_RNvNtNtNtCsgTXWXfwjzne_17intervals_icu_mcp7engines13coach_metrics5testss_53polarisation_ratio_classifies_high_intensity_dominant
FNDA:1,_RNvNtNtNtCsgTXWXfwjzne_17intervals_icu_mcp7engines13coach_metrics5testss_53readiness_score_returns_none_when_all_inputs_are_none
FNDA:1,_RNvNtNtNtCsgTXWXfwjzne_17intervals_icu_mcp7engines13coach_metrics5testss_54compute_wdr_metrics_fallback_to_icu_max_wbal_depletion
FNDA:1,_RNvNtNtNtCsgTXWXfwjzne_17intervals_icu_mcp7engines13coach_metrics5testss_54compute_z2_hr_variance_returns_none_for_too_few_points
FNDA:1,_RNvNtNtNtCsgTXWXfwjzne_17intervals_icu_mcp7engines13coach_metrics5testss_54fatigue_index_returns_none_when_recovery_index_is_zero
FNDA:1,_RNvNtNtNtCsgTXWXfwjzne_17intervals_icu_mcp7engines13coach_metrics5testss_54parse_wellness_metrics_supports_seconds_and_snake_case
FNDA:1,_RNvNtNtNtCsgTXWXfwjzne_17intervals_icu_mcp7engines13coach_metrics5testss_55aggregate_wdr_metrics_7d_counts_high_depletion_sessions
FNDA:1,_RNvNtNtNtCsgTXWXfwjzne_17intervals_icu_mcp7engines13coach_metrics5testss_55durability_index_returns_none_when_baseline_is_negative
FNDA:1,_RNvNtNtNtCsgTXWXfwjzne_17intervals_icu_mcp7engines13coach_metrics5testss_55parse_polarisation_from_api_aggregates_5_zone_polarised
FNDA:1,_RNvNtNtNtCsgTXWXfwjzne_17intervals_icu_mcp7engines13coach_metrics5testss_55stress_tolerance_is_strain_over_monotony_divided_by_100
FNDA:1,_RNvNtNtNtCsgTXWXfwjzne_17intervals_icu_mcp7engines13coach_metrics5testss_55weekly_avg_hours_is_computed_from_total_time_and_window
FNDA:1,_RNvNtNtNtCsgTXWXfwjzne_17intervals_icu_mcp7engines13coach_metrics5testss_56compute_z2_hr_variance_returns_none_when_no_points_in_z2
FNDA:1,_RNvNtNtNtCsgTXWXfwjzne_17intervals_icu_mcp7engines13coach_metrics5testss_57extract_sportinfo_anchors_multi_sport_first_non_null_wins
FNDA:1,_RNvNtNtNtCsgTXWXfwjzne_17intervals_icu_mcp7engines13coach_metrics5testss_58aerobic_decoupling_above_five_percent_creates_watch_signal
FNDA:1,_RNvNtNtNtCsgTXWXfwjzne_17intervals_icu_mcp7engines13coach_metrics5testss_59efficiency_factor_is_mean_output_divided_by_mean_heart_rate
FNDA:1,_RNvNtNtNtCsgTXWXfwjzne_17intervals_icu_mcp7engines13coach_metrics5testss_60load_management_metrics_require_sufficient_lookback_for_acwr
FNDA:1,_RNvNtNtNtCsgTXWXfwjzne_17intervals_icu_mcp7engines13coach_metrics5testss_61aerobic_decoupling_returns_none_for_mismatched_stream_lengths
FNDA:1,_RNvNtNtNtCsgTXWXfwjzne_17intervals_icu_mcp7engines13coach_metrics5testss_63parse_wellness_metrics_readiness_requires_api_or_all_components
FNDA:1,_RNvNtNtNtCsgTXWXfwjzne_17intervals_icu_mcp7engines13coach_metrics5testss_63recovery_index_compares_recent_hrv_and_rhr_to_personal_baseline
FNDA:1,_RNvNtNtNtCsgTXWXfwjzne_17intervals_icu_mcp7engines13coach_metrics5testss_65derive_execution_metrics_prefers_api_values_over_stream_fallbacks
FNDA:1,_RNvNtNtNtCsgTXWXfwjzne_17intervals_icu_mcp7engines13coach_metrics5testss_67load_management_metrics_computes_fatigue_index_and_stress_tolerance
FNDA:1,_RNvNtNtNtCsgTXWXfwjzne_17intervals_icu_mcp7engines13coach_metrics5testss_67load_management_metrics_without_recovery_index_has_no_fatigue_index
FNDA:1,_RNvNtNtNtCsgTXWXfwjzne_17intervals_icu_mcp7engines13coach_metrics5testss_71parse_wellness_metrics_readiness_falls_back_to_formula_when_api_missing
FNDA:1,_RNvNtNtNtCsgTXWXfwjzne_17intervals_icu_mcp7engines13coach_metrics5testss_73parse_wellness_metrics_derives_adaptive_hrv_baseline_and_recent_deviation
FNF:185
FNH:171
DA:233,19
DA:234,19
DA:235,19
DA:236,19
DA:237,19
DA:238,19
DA:239,19
DA:240,19
DA:241,19
DA:242,19
DA:243,19
DA:244,20
DA:245,20
DA:246,20
DA:247,20
DA:248,20
DA:249,20
DA:250,20
DA:251,20
DA:252,20
DA:253,20
DA:254,20
DA:255,20
DA:256,20
DA:257,20
DA:258,20
DA:259,20
DA:260,20
DA:262,19
DA:265,13
DA:266,13
DA:267,13
DA:268,13
DA:269,13
DA:270,13
DA:271,13
DA:272,13
DA:273,13
DA:276,13
DA:277,13
DA:278,13
DA:279,13
DA:280,13
DA:281,13
DA:282,13
DA:284,0
DA:286,13
DA:288,13
DA:291,10
DA:292,10
DA:293,10
DA:294,10
DA:295,10
DA:296,10
DA:297,10
DA:298,6
DA:299,4
DA:300,4
DA:302,0
DA:304,10
DA:306,10
DA:307,10
DA:308,10
DA:309,10
DA:310,10
DA:311,10
DA:312,10
DA:315,7
DA:316,7
DA:317,2
DA:318,5
DA:320,5
DA:321,5
DA:323,5
DA:324,5
DA:326,135
DA:327,135
DA:328,135
DA:329,135
DA:331,5
DA:332,7
DA:335,10
DA:336,10
DA:337,10
DA:338,3
DA:340,3
DA:341,10
DA:343,8
DA:344,8
DA:345,0
DA:346,8
DA:348,8
DA:349,8
DA:351,8
DA:352,8
DA:353,8
DA:354,8
DA:355,8
DA:356,8
DA:357,8
DA:359,8
DA:360,8
DA:361,1
DA:362,7
DA:363,6
DA:364,1
DA:365,0
DA:367,1
DA:369,8
DA:372,6
DA:373,6
DA:374,0
DA:375,6
DA:377,6
DA:378,6
DA:379,0
DA:380,6
DA:382,6
DA:383,6
DA:384,42
DA:385,42
DA:386,42
DA:387,42
DA:388,6
DA:389,6
DA:393,6
DA:394,6
DA:395,6
DA:398,4
DA:399,4
DA:400,4
DA:403,1
DA:404,1
DA:405,0
DA:407,1
DA:409,1
DA:414,1
DA:415,1
DA:416,1
DA:417,1
DA:418,1
DA:422,2
DA:423,2
DA:424,0
DA:425,2
DA:426,2
DA:427,10
DA:428,2
DA:429,2
DA:430,10
DA:431,2
DA:432,10
DA:434,2
DA:435,2
DA:436,0
DA:437,2
DA:439,2
DA:440,2
DA:444,1
DA:445,1
DA:446,1
DA:447,1
DA:448,1
DA:449,1
DA:450,1
DA:451,0
DA:452,1
DA:453,1
DA:454,1
DA:456,0
DA:458,1
DA:459,1
DA:460,1
DA:461,1
DA:462,1
DA:463,1
DA:464,1
DA:465,1
DA:467,9
DA:468,9
DA:469,9
DA:470,9
DA:471,9
DA:472,9
DA:473,9
DA:474,0
DA:475,9
DA:477,2
DA:478,0
DA:480,2
DA:481,2
DA:482,2
DA:485,7
DA:487,9
DA:489,3
DA:490,3
DA:491,1
DA:493,2
DA:495,3
DA:497,5
DA:498,5
DA:499,1
DA:501,4
DA:503,5
DA:505,4
DA:506,4
DA:507,4
DA:508,4
DA:509,4
DA:510,2
DA:512,2
DA:514,4
DA:516,16
DA:517,16
DA:518,16
DA:519,16
DA:520,16
DA:521,16
DA:522,16
DA:523,9
DA:524,7
DA:525,5
DA:526,5
DA:527,5
DA:528,5
DA:529,5
DA:530,5
DA:531,5
DA:532,16
DA:534,3
DA:535,3
DA:536,3
DA:537,3
DA:538,3
DA:539,0
DA:540,3
DA:542,3
DA:543,3
DA:544,3
DA:546,0
DA:547,0
DA:548,0
DA:549,0
DA:550,0
DA:551,0
DA:552,0
DA:553,0
DA:556,3
DA:557,3
DA:558,3
DA:559,3
DA:560,3
DA:561,3
DA:562,3
DA:564,3
DA:565,3
DA:566,3
DA:567,3
DA:568,3
DA:569,3
DA:570,3
DA:571,3
DA:572,3
DA:574,14
DA:575,14
DA:576,0
DA:577,14
DA:579,14
DA:580,14
DA:581,0
DA:582,14
DA:584,14
DA:585,14
DA:587,7
DA:588,7
DA:589,2
DA:590,5
DA:592,5
DA:593,5
DA:594,0
DA:595,5
DA:597,5
DA:598,5
DA:599,5
DA:600,0
DA:601,5
DA:603,5
DA:604,5
DA:605,5
DA:606,5
DA:608,5
DA:609,5
DA:610,5
DA:611,5
DA:612,5
DA:613,5
DA:614,5
DA:615,5
DA:616,5
DA:617,7
DA:619,15
DA:620,15
DA:621,7
DA:622,8
DA:623,3
DA:624,5
DA:625,3
DA:627,2
DA:629,15
DA:631,6
DA:632,6
DA:633,1
DA:634,5
DA:635,3
DA:637,2
DA:639,6
DA:641,10
DA:642,10
DA:643,10
DA:644,10
DA:646,10
DA:647,10
DA:648,10
DA:650,1
DA:651,1
DA:652,1
DA:653,1
DA:654,1
DA:655,1
DA:656,1
DA:657,1
DA:658,1
DA:659,10
DA:661,10
DA:662,10
DA:663,10
DA:664,10
DA:665,5
DA:668,5
DA:669,5
DA:671,5
DA:672,3
DA:673,3
DA:674,3
DA:675,3
DA:677,2
DA:679,10
DA:681,10
DA:682,10
DA:683,10
DA:684,10
DA:685,10
DA:686,10
DA:688,10
DA:689,10
DA:690,10
DA:691,10
DA:692,10
DA:694,13
DA:695,13
DA:696,13
DA:697,13
DA:698,13
DA:699,13
DA:700,13
DA:701,13
DA:702,13
DA:703,13
DA:704,13
DA:706,9
DA:707,9
DA:708,9
DA:709,9
DA:710,9
DA:711,9
DA:712,9
DA:713,9
DA:714,9
DA:715,9
DA:716,9
DA:717,9
DA:718,9
DA:719,9
DA:720,9
DA:722,23
DA:723,23
DA:724,9
DA:725,7
DA:727,2
DA:728,0
DA:730,9
DA:731,9
DA:732,9
DA:734,9
DA:735,23
DA:737,8
DA:738,8
DA:739,8
DA:740,1
DA:741,7
DA:743,7
DA:745,7
DA:746,7
DA:747,17
DA:748,17
DA:749,8
DA:751,9
DA:753,17
DA:754,7
DA:755,7
DA:756,7
DA:757,7
DA:758,7
DA:760,7
DA:761,7
DA:762,7
DA:763,1
DA:764,1
DA:765,1
DA:767,7
DA:768,7
DA:769,7
DA:770,7
DA:771,7
DA:772,7
DA:773,7
DA:775,7
DA:776,7
DA:777,7
DA:778,7
DA:779,7
DA:780,7
DA:781,7
DA:782,7
DA:783,7
DA:784,7
DA:786,7
DA:787,7
DA:788,7
DA:789,7
DA:790,7
DA:791,7
DA:792,2
DA:794,5
DA:796,7
DA:797,1
DA:798,1
DA:799,1
DA:800,1
DA:801,1
DA:803,1
DA:805,7
DA:806,7
DA:807,7
DA:808,7
DA:809,7
DA:810,7
DA:811,7
DA:812,7
DA:813,7
DA:814,7
DA:815,7
DA:816,7
DA:817,7
DA:818,7
DA:819,7
DA:820,7
DA:821,7
DA:822,7
DA:823,7
DA:824,7
DA:825,8
DA:827,7
DA:828,7
DA:829,7
DA:830,7
DA:831,7
DA:832,7
DA:833,7
DA:834,7
DA:836,7
DA:837,7
DA:839,7
DA:840,7
DA:843,1
DA:844,1
DA:845,0
DA:846,0
DA:848,0
DA:850,1
DA:852,7
DA:854,40
DA:855,40
DA:856,36
DA:858,4
DA:860,40
DA:862,348
DA:863,544
DA:864,544
DA:865,544
DA:866,544
DA:867,544
DA:868,348
DA:870,63
DA:871,63
DA:872,63
DA:873,63
DA:874,175
DA:875,63
DA:876,63
DA:878,10
DA:879,10
DA:880,10
DA:881,10
DA:882,18
DA:883,6
DA:884,6
DA:885,22
DA:886,6
DA:888,6
DA:889,0
DA:891,6
DA:893,10
DA:895,91
DA:896,91
DA:897,33
DA:899,58
DA:901,91
DA:903,7
DA:904,7
DA:905,7
DA:906,7
DA:907,7
DA:910,7
DA:911,1
DA:913,6
DA:916,7
DA:917,6
DA:918,1
DA:919,5
DA:920,2
DA:922,3
DA:924,6
DA:926,7
DA:927,7
DA:928,7
DA:929,7
DA:930,7
DA:931,7
DA:932,7
DA:933,7
DA:934,7
DA:935,7
DA:937,4
DA:938,4
DA:939,4
DA:940,4
DA:944,4
DA:945,1
DA:947,1
DA:948,0
DA:949,1
DA:950,1
DA:952,0
DA:954,1
DA:955,1
DA:956,1
DA:957,1
DA:958,1
DA:959,1
DA:960,1
DA:961,1
DA:962,1
DA:963,3
DA:968,3
DA:969,2
DA:970,2
DA:971,10
DA:972,2
DA:973,2
DA:975,2
DA:977,2
DA:978,2
DA:979,2
DA:980,2
DA:981,0
DA:983,0
DA:984,0
DA:985,0
DA:986,0
DA:987,0
DA:988,1
DA:990,1
DA:991,4
DA:993,17
DA:994,17
DA:995,17
DA:996,17
DA:999,17
DA:1000,13
DA:1002,4
DA:1005,17
DA:1006,4
DA:1007,1
DA:1008,3
DA:1009,1
DA:1010,2
DA:1011,1
DA:1013,1
DA:1015,4
DA:1017,17
DA:1018,17
DA:1019,17
DA:1020,17
DA:1021,17
DA:1022,17
DA:1023,17
DA:1027,13
DA:1028,13
DA:1029,10
DA:1032,3
DA:1033,3
DA:1034,3
DA:1035,3
DA:1037,4
DA:1038,4
DA:1039,4
DA:1040,3
DA:1041,3
DA:1042,4
DA:1043,2
DA:1044,2
DA:1045,4
DA:1046,3
DA:1047,3
DA:1048,0
DA:1051,3
DA:1052,1
DA:1053,2
DA:1055,2
DA:1056,2
DA:1057,2
DA:1058,2
DA:1059,2
DA:1060,2
DA:1061,2
DA:1062,13
DA:1066,11
DA:1067,11
DA:1068,11
DA:1069,11
DA:1070,11
DA:1071,0
DA:1074,11
DA:1075,10
DA:1076,10
DA:1077,11
DA:1078,11
DA:1079,11
DA:1080,11
DA:1081,11
DA:1082,11
DA:1083,11
DA:1084,11
DA:1085,11
DA:1087,11
DA:1088,2
DA:1089,2
DA:1090,9
DA:1091,11
DA:1094,11
DA:1095,11
DA:1096,11
DA:1097,11
DA:1098,11
DA:1099,11
DA:1100,11
DA:1101,11
DA:1102,11
DA:1103,11
DA:1106,11
DA:1108,11
DA:1110,11
DA:1113,11
DA:1114,1
DA:1115,1
DA:1116,1
DA:1118,11
DA:1121,11
DA:1122,11
DA:1123,11
DA:1124,11
DA:1125,11
DA:1126,11
DA:1127,11
DA:1128,11
DA:1129,11
DA:1130,11
DA:1132,11
DA:1136,0
DA:1137,0
DA:1138,0
DA:1139,0
DA:1140,0
DA:1141,0
DA:1142,0
DA:1143,0
DA:1144,0
DA:1145,0
DA:1147,0
DA:1148,0
DA:1149,0
DA:1150,0
DA:1151,0
DA:1152,0
DA:1154,0
DA:1155,0
DA:1156,0
DA:1158,0
DA:1159,0
DA:1160,0
DA:1161,0
DA:1162,0
DA:1163,0
DA:1164,0
DA:1165,0
DA:1166,0
DA:1167,0
DA:1169,0
DA:1171,0
DA:1172,0
DA:1175,0
DA:1176,0
DA:1177,0
DA:1178,0
DA:1179,0
DA:1180,0
DA:1182,0
DA:1183,0
DA:1187,18
DA:1188,18
DA:1189,18
DA:1190,18
DA:1191,18
DA:1194,18
DA:1195,8
DA:1198,15
DA:1199,15
DA:1200,0
DA:1202,15
DA:1203,15
DA:1204,15
DA:1205,15
DA:1206,7
DA:1207,8
DA:1209,7
DA:1210,7
DA:1211,7
DA:1212,7
DA:1213,7
DA:1214,7
DA:1215,7
DA:1216,7
DA:1217,7
DA:1218,7
DA:1219,7
DA:1220,7
DA:1225,3
DA:1226,3
DA:1227,3
DA:1229,6
DA:1230,6
DA:1231,2
DA:1233,2
DA:1234,2
DA:1235,2
DA:1236,2
DA:1237,2
DA:1238,4
DA:1239,6
DA:1240,0
DA:1241,0
DA:1242,6
DA:1246,3
DA:1247,1
DA:1248,0
DA:1249,0
DA:1250,0
DA:1251,3
DA:1253,3
DA:1254,2
DA:1255,1
DA:1257,1
DA:1258,1
DA:1259,1
DA:1261,1
DA:1262,0
DA:1264,1
DA:1267,1
DA:1268,1
DA:1269,1
DA:1270,1
DA:1271,1
DA:1272,1
DA:1273,1
DA:1274,18
DA:1277,1
DA:1278,1
DA:1279,1
DA:1280,1
DA:1281,1
DA:1282,1
DA:1285,1
DA:1286,1
DA:1287,1
DA:1289,5
DA:1290,5
DA:1291,5
DA:1292,5
DA:1293,5
DA:1294,5
DA:1295,5
DA:1296,5
DA:1297,5
DA:1298,4
DA:1299,4
DA:1300,0
DA:1301,0
DA:1304,1
DA:1305,0
DA:1306,1
DA:1308,1
DA:1310,1
DA:1311,1
DA:1312,1
DA:1313,1
DA:1314,1
DA:1315,1
DA:1316,1
DA:1317,1
DA:1321,6
DA:1322,6
DA:1323,6
DA:1324,6
DA:1325,6
DA:1326,6
DA:1327,6
DA:1328,6
DA:1329,6
DA:1331,7
DA:1332,7
DA:1333,0
DA:1335,7
DA:1338,7
DA:1339,7
DA:1340,0
DA:1344,7
DA:1345,7
DA:1346,7
DA:1349,7
DA:1350,0
DA:1351,7
DA:1354,7
DA:1355,0
DA:1356,0
DA:1358,0
DA:1360,0
DA:1361,7
DA:1362,7
DA:1363,0
DA:1364,7
DA:1365,7
DA:1366,0
DA:1367,7
DA:1370,6
DA:1371,0
DA:1372,0
DA:1373,0
DA:1374,0
DA:1375,6
DA:1377,6
DA:1378,6
DA:1380,0
DA:1382,6
DA:1383,6
DA:1385,0
DA:1387,6
DA:1388,6
DA:1390,0
DA:1393,6
DA:1394,0
DA:1395,6
DA:1396,0
DA:1398,6
DA:1401,6
DA:1402,6
DA:1403,6
DA:1404,6
DA:1405,6
DA:1406,6
DA:1407,6
DA:1408,6
DA:1409,6
DA:1410,6
DA:1415,0
DA:1416,0
DA:1417,0
DA:1418,0
DA:1419,0
DA:1421,0
DA:1426,0
DA:1427,0
DA:1428,0
DA:1429,0
DA:1431,0
DA:1433,0
DA:1434,0
DA:1442,0
DA:1443,0
DA:1444,0
DA:1445,0
DA:1446,0
DA:1448,0
DA:1449,0
DA:1450,0
DA:1452,0
DA:1453,0
DA:1454,0
DA:1455,0
DA:1456,0
DA:1457,0
DA:1460,0
DA:1461,0
DA:1462,0
DA:1464,0
DA:1465,0
DA:1468,0
DA:1469,0
DA:1470,0
DA:1471,0
DA:1472,0
DA:1473,0
DA:1475,0
DA:1478,0
DA:1479,0
DA:1480,0
DA:1481,0
DA:1482,0
DA:1483,0
DA:1484,0
DA:1492,0
DA:1493,0
DA:1494,0
DA:1496,0
DA:1499,0
DA:1500,0
DA:1501,0
DA:1502,0
DA:1504,0
DA:1507,0
DA:1508,0
DA:1516,3
DA:1517,3
DA:1518,3
DA:1519,3
DA:1520,33
DA:1521,3
DA:1523,3
DA:1524,2
DA:1525,1
DA:1527,1
DA:1528,1
DA:1529,1
DA:1530,10
DA:1531,10
DA:1532,10
DA:1533,10
DA:1534,1
DA:1535,1
DA:1537,1
DA:1538,3
DA:1546,35
DA:1547,35
DA:1548,35
DA:1549,35
DA:1550,35
DA:1552,35
DA:1555,1
DA:1556,1
DA:1558,1
DA:1559,1
DA:1562,1
DA:1563,1
DA:1565,1
DA:1566,1
DA:1569,1
DA:1570,1
DA:1572,1
DA:1573,1
DA:1574,1
DA:1575,1
DA:1578,1
DA:1579,1
DA:1580,1
DA:1581,1
DA:1582,1
DA:1583,1
DA:1584,1
DA:1585,1
DA:1586,1
DA:1587,1
DA:1588,1
DA:1589,1
DA:1590,1
DA:1591,1
DA:1594,1
DA:1595,1
DA:1596,1
DA:1597,1
DA:1600,1
DA:1601,1
DA:1602,1
DA:1603,1
DA:1604,1
DA:1605,1
DA:1606,1
DA:1607,1
DA:1608,1
DA:1609,1
DA:1610,1
DA:1611,1
DA:1612,1
DA:1613,1
DA:1614,1
DA:1615,1
DA:1616,1
DA:1617,1
DA:1618,1
DA:1619,1
DA:1620,1
DA:1621,1
DA:1622,1
DA:1623,1
DA:1624,1
DA:1625,1
DA:1627,1
DA:1629,1
DA:1630,1
DA:1631,1
DA:1632,1
DA:1633,1
DA:1636,1
DA:1637,1
DA:1639,1
DA:1640,1
DA:1641,1
DA:1642,1
DA:1643,1
DA:1646,1
DA:1647,1
DA:1648,1
DA:1649,1
DA:1652,1
DA:1653,1
DA:1654,1
DA:1655,1
DA:1656,1
DA:1659,1
DA:1660,1
DA:1661,28
DA:1662,7
DA:1664,1
DA:1666,1
DA:1668,1
DA:1669,1
DA:1670,1
DA:1671,1
DA:1672,1
DA:1673,1
DA:1674,1
DA:1675,1
DA:1676,1
DA:1679,1
DA:1680,1
DA:1682,1
DA:1684,1
DA:1685,1
DA:1686,1
DA:1687,1
DA:1690,1
DA:1691,1
DA:1693,1
DA:1695,1
DA:1696,1
DA:1697,1
DA:1698,1
DA:1701,1
DA:1702,1
DA:1704,1
DA:1706,1
DA:1707,1
DA:1708,1
DA:1711,1
DA:1712,1
DA:1713,1
DA:1714,1
DA:1716,1
DA:1717,1
DA:1718,1
DA:1721,1
DA:1722,1
DA:1724,1
DA:1725,1
DA:1726,1
DA:1729,1
DA:1730,1
DA:1733,1
DA:1736,1
DA:1737,1
DA:1742,1
DA:1743,1
DA:1744,1
DA:1745,1
DA:1748,1
DA:1749,1
DA:1750,1
DA:1752,1
DA:1753,1
DA:1754,1
DA:1755,1
DA:1756,1
DA:1759,1
DA:1760,1
DA:1762,1
DA:1764,1
DA:1765,1
DA:1768,1
DA:1769,1
DA:1770,1
DA:1771,1
DA:1772,1
DA:1775,1
DA:1776,1
DA:1777,1
DA:1779,1
DA:1781,1
DA:1782,1
DA:1785,1
DA:1786,1
DA:1788,1
DA:1789,1
DA:1792,1
DA:1793,1
DA:1795,1
DA:1796,1
DA:1799,1
DA:1800,1
DA:1802,1
DA:1805,1
DA:1806,1
DA:1807,1
DA:1808,1
DA:1809,1
DA:1810,1
DA:1813,1
DA:1814,1
DA:1816,1
DA:1817,1
DA:1820,1
DA:1821,1
DA:1822,1
DA:1824,1
DA:1826,1
DA:1827,1
DA:1830,1
DA:1831,1
DA:1832,1
DA:1834,1
DA:1836,1
DA:1837,1
DA:1838,1
DA:1841,1
DA:1842,1
DA:1843,1
DA:1845,1
DA:1846,1
DA:1849,1
DA:1859,1
DA:1861,1
DA:1862,1
DA:1863,1
DA:1864,1
DA:1867,1
DA:1869,1
DA:1870,1
DA:1871,1
DA:1872,1
DA:1873,1
DA:1876,1
DA:1877,1
DA:1878,1
DA:1879,1
DA:1880,1
DA:1883,1
DA:1884,1
DA:1885,1
DA:1886,1
DA:1887,1
DA:1890,1
DA:1891,1
DA:1892,1
DA:1893,1
DA:1894,1
DA:1895,1
DA:1898,1
DA:1899,1
DA:1900,1
DA:1901,1
DA:1902,1
DA:1903,1
DA:1906,1
DA:1910,1
DA:1911,1
DA:1912,1
DA:1913,1
DA:1914,1
DA:1915,1
DA:1917,1
DA:1918,1
DA:1919,1
DA:1920,1
DA:1923,1
DA:1929,1
DA:1930,1
DA:1931,1
DA:1932,1
DA:1933,1
DA:1934,1
DA:1936,1
DA:1937,1
DA:1938,1
DA:1939,1
DA:1940,1
DA:1943,1
DA:1944,1
DA:1945,1
DA:1950,1
DA:1951,1
DA:1952,1
DA:1953,1
DA:1954,1
DA:1957,1
DA:1958,1
DA:1959,1
DA:1960,1
DA:1961,1
DA:1964,1
DA:1965,1
DA:1966,1
DA:1967,1
DA:1968,1
DA:1971,1
DA:1972,1
DA:1973,1
DA:1974,1
DA:1975,1
DA:1978,1
DA:1979,1
DA:1980,1
DA:1981,1
DA:1982,1
DA:1985,1
DA:1986,1
DA:1987,1
DA:1988,1
DA:1991,1
DA:1992,1
DA:1993,1
DA:1996,1
DA:1997,1
DA:1998,1
DA:1999,1
DA:2002,1
DA:2003,1
DA:2004,1
DA:2007,1
DA:2008,1
DA:2009,1
DA:2010,1
DA:2013,1
DA:2014,1
DA:2015,1
DA:2018,1
DA:2019,1
DA:2020,1
DA:2021,1
DA:2022,1
DA:2025,1
DA:2026,1
DA:2027,1
DA:2028,1
DA:2031,1
DA:2032,1
DA:2033,1
DA:2034,1
DA:2037,1
DA:2038,1
DA:2039,1
DA:2040,1
DA:2041,1
DA:2044,1
DA:2045,1
DA:2046,1
DA:2047,1
DA:2048,1
DA:2049,1
DA:2052,1
DA:2053,1
DA:2054,1
DA:2055,1
DA:2056,1
DA:2057,1
DA:2060,1
DA:2061,1
DA:2062,1
DA:2063,1
DA:2065,1
DA:2066,1
DA:2067,1
DA:2068,1
DA:2069,1
DA:2070,1
DA:2073,1
DA:2074,1
DA:2075,1
DA:2077,1
DA:2078,1
DA:2079,1
DA:2082,1
DA:2083,1
DA:2084,1
DA:2086,1
DA:2087,1
DA:2088,1
DA:2089,1
DA:2090,1
DA:2091,1
DA:2094,1
DA:2095,1
DA:2096,1
DA:2098,1
DA:2099,1
DA:2100,1
DA:2101,1
DA:2102,1
DA:2103,1
DA:2106,1
DA:2107,1
DA:2108,1
DA:2109,1
DA:2112,1
DA:2113,1
DA:2114,1
DA:2117,1
DA:2118,1
DA:2119,1
DA:2122,1
DA:2123,1
DA:2124,1
DA:2125,1
DA:2128,1
DA:2129,1
DA:2130,1
DA:2131,1
DA:2133,1
DA:2134,1
DA:2135,1
DA:2136,1
DA:2137,1
DA:2138,1
DA:2139,1
DA:2142,1
DA:2143,1
DA:2144,1
DA:2145,1
DA:2146,1
DA:2147,1
DA:2150,1
DA:2151,1
DA:2152,1
DA:2153,1
DA:2156,1
DA:2157,1
DA:2158,1
DA:2159,1
DA:2161,1
DA:2162,1
DA:2163,1
DA:2164,1
DA:2165,1
DA:2166,1
DA:2169,1
DA:2170,1
DA:2171,1
DA:2172,1
DA:2173,1
DA:2174,1
DA:2176,1
DA:2177,1
DA:2178,1
DA:2179,1
DA:2180,1
DA:2181,1
DA:2182,1
DA:2185,1
DA:2186,1
DA:2187,1
DA:2188,1
DA:2189,1
DA:2190,1
DA:2191,1
DA:2192,1
DA:2193,1
DA:2194,1
DA:2195,1
DA:2196,1
DA:2197,1
DA:2200,1
DA:2201,1
DA:2202,1
DA:2203,1
DA:2204,1
DA:2205,1
DA:2206,1
DA:2207,1
DA:2208,1
DA:2209,1
DA:2212,1
DA:2213,1
DA:2214,1
DA:2215,1
DA:2216,1
DA:2217,1
DA:2220,1
DA:2221,1
DA:2222,1
DA:2223,1
DA:2225,1
DA:2226,1
DA:2227,1
DA:2228,1
DA:2229,1
DA:2232,1
DA:2233,1
DA:2234,1
DA:2236,1
DA:2237,1
DA:2238,1
DA:2241,1
DA:2242,1
DA:2243,1
DA:2244,1
DA:2246,1
DA:2247,1
DA:2248,1
DA:2249,1
DA:2250,1
DA:2251,1
DA:2254,1
DA:2255,1
DA:2256,1
DA:2257,1
DA:2258,1
DA:2259,1
DA:2262,1
DA:2263,1
DA:2264,1
DA:2265,5
DA:2266,5
DA:2267,5
DA:2268,5
DA:2269,5
DA:2270,1
DA:2271,1
DA:2272,1
DA:2273,1
DA:2274,1
DA:2275,1
DA:2277,1
DA:2278,1
DA:2280,1
DA:2282,1
DA:2283,1
DA:2284,1
DA:2291,1
DA:2292,1
DA:2293,1
DA:2294,1
DA:2295,1
DA:2298,1
DA:2299,1
DA:2300,1
DA:2301,1
DA:2304,1
DA:2305,1
DA:2306,1
DA:2307,1
DA:2308,1
DA:2311,1
DA:2312,1
DA:2313,1
DA:2314,1
DA:2317,1
DA:2318,1
DA:2319,1
DA:2320,1
DA:2321,1
DA:2322,1
DA:2323,1
DA:2326,1
DA:2327,1
DA:2328,1
DA:2329,1
DA:2330,1
DA:2331,1
DA:2332,1
DA:2339,1
DA:2340,1
DA:2343,1
DA:2344,1
DA:2345,1
DA:2346,1
DA:2349,1
DA:2350,1
DA:2351,1
DA:2352,1
DA:2353,1
DA:2356,1
DA:2357,1
DA:2358,1
DA:2359,1
DA:2360,1
BRF:0
BRH:0
LF:1592
LH:1417
end_of_record
SF:/Users/solovey/Documents/dev/rusty_intervals_mcp/crates/intervals_icu_mcp/src/engines/cp_regression.rs
FN:114,_RNCNvNtNtNtCsgTXWXfwjzne_17intervals_icu_mcp7engines13cp_regression5testss_29cp_fit_synthetic_perfect_data0B9_
FN:58,_RNCNvNtNtCsgTXWXfwjzne_17intervals_icu_mcp7engines13cp_regression6fit_cp0B7_
FN:67,_RNCNvNtNtCsgTXWXfwjzne_17intervals_icu_mcp7engines13cp_regression6fit_cps_0B7_
FN:131,_RNvNtNtNtCsgTXWXfwjzne_17intervals_icu_mcp7engines13cp_regression5testss_21cp_fit_realistic_data
FN:108,_RNvNtNtNtCsgTXWXfwjzne_17intervals_icu_mcp7engines13cp_regression5testss_29cp_fit_synthetic_perfect_data
FN:125,_RNvNtNtNtCsgTXWXfwjzne_17intervals_icu_mcp7engines13cp_regression5testss_30cp_fit_rejects_few_data_points
FN:148,_RNvNtNtNtCsgTXWXfwjzne_17intervals_icu_mcp7engines13cp_regression5testss_30validate_cp_diff_zero_on_match
FN:161,_RNvNtNtNtCsgTXWXfwjzne_17intervals_icu_mcp7engines13cp_regression5testss_33validate_cp_diff_computes_percent
FN:174,_RNvNtNtNtCsgTXWXfwjzne_17intervals_icu_mcp7engines13cp_regression5testss_44cp_fit_inconsistent_data_returns_some_result
FN:89,_RNvNtNtCsgTXWXfwjzne_17intervals_icu_mcp7engines13cp_regression11validate_cp
FN:26,_RNvNtNtCsgTXWXfwjzne_17intervals_icu_mcp7engines13cp_regression6fit_cp
FNDA:7,_RNCNvNtNtNtCsgTXWXfwjzne_17intervals_icu_mcp7engines13cp_regression5testss_29cp_fit_synthetic_perfect_data0B9_
FNDA:18,_RNCNvNtNtCsgTXWXfwjzne_17intervals_icu_mcp7engines13cp_regression6fit_cp0B7_
FNDA:18,_RNCNvNtNtCsgTXWXfwjzne_17intervals_icu_mcp7engines13cp_regression6fit_cps_0B7_
FNDA:1,_RNvNtNtNtCsgTXWXfwjzne_17intervals_icu_mcp7engines13cp_regression5testss_21cp_fit_realistic_data
FNDA:1,_RNvNtNtNtCsgTXWXfwjzne_17intervals_icu_mcp7engines13cp_regression5testss_29cp_fit_synthetic_perfect_data
FNDA:1,_RNvNtNtNtCsgTXWXfwjzne_17intervals_icu_mcp7engines13cp_regression5testss_30cp_fit_rejects_few_data_points
FNDA:1,_RNvNtNtNtCsgTXWXfwjzne_17intervals_icu_mcp7engines13cp_regression5testss_30validate_cp_diff_zero_on_match
FNDA:1,_RNvNtNtNtCsgTXWXfwjzne_17intervals_icu_mcp7engines13cp_regression5testss_33validate_cp_diff_computes_percent
FNDA:1,_RNvNtNtNtCsgTXWXfwjzne_17intervals_icu_mcp7engines13cp_regression5testss_44cp_fit_inconsistent_data_returns_some_result
FNDA:2,_RNvNtNtCsgTXWXfwjzne_17intervals_icu_mcp7engines13cp_regression11validate_cp
FNDA:4,_RNvNtNtCsgTXWXfwjzne_17intervals_icu_mcp7engines13cp_regression6fit_cp
FNF:11
FNH:11
DA:26,4
DA:27,4
DA:28,1
DA:29,3
DA:31,3
DA:32,3
DA:33,3
DA:34,3
DA:35,3
DA:37,18
DA:38,18
DA:39,18
DA:40,18
DA:41,18
DA:42,18
DA:43,18
DA:45,3
DA:46,3
DA:47,0
DA:48,3
DA:52,3
DA:53,3
DA:54,3
DA:56,3
DA:57,3
DA:58,18
DA:59,18
DA:60,18
DA:61,18
DA:62,18
DA:63,3
DA:65,3
DA:66,3
DA:67,18
DA:68,18
DA:69,18
DA:70,18
DA:71,3
DA:73,3
DA:74,3
DA:76,0
DA:80,3
DA:81,3
DA:82,3
DA:83,3
DA:85,4
DA:89,2
DA:90,2
DA:91,2
DA:93,0
DA:95,2
DA:96,2
DA:98,0
DA:100,2
DA:101,2
DA:108,1
DA:110,1
DA:111,1
DA:112,1
DA:113,1
DA:114,7
DA:115,1
DA:117,1
DA:118,1
DA:119,1
DA:120,1
DA:121,1
DA:122,1
DA:125,1
DA:126,1
DA:127,1
DA:128,1
DA:131,1
DA:133,1
DA:134,1
DA:135,1
DA:136,1
DA:137,1
DA:138,1
DA:139,1
DA:141,1
DA:142,1
DA:143,1
DA:144,1
DA:145,1
DA:148,1
DA:149,1
DA:150,1
DA:151,1
DA:152,1
DA:153,1
DA:154,1
DA:155,1
DA:156,1
DA:157,1
DA:158,1
DA:161,1
DA:162,1
DA:163,1
DA:164,1
DA:165,1
DA:166,1
DA:167,1
DA:168,1
DA:169,1
DA:170,1
DA:171,1
DA:174,1
DA:175,1
DA:176,1
DA:177,1
DA:178,1
DA:179,1
DA:180,1
DA:182,1
DA:183,1
DA:184,1
BRF:0
BRH:0
LF:120
LH:116
end_of_record
SF:/Users/solovey/Documents/dev/rusty_intervals_mcp/crates/intervals_icu_mcp/src/engines/forecast.rs
FN:165,_RNvNtNtNtCsgTXWXfwjzne_17intervals_icu_mcp7engines8forecast5testss_24taper_efficiency_partial
FN:158,_RNvNtNtNtCsgTXWXfwjzne_17intervals_icu_mcp7engines8forecast5testss_24taper_efficiency_perfect
FN:150,_RNvNtNtNtCsgTXWXfwjzne_17intervals_icu_mcp7engines8forecast5testss_25parameterized_load_values
FN:143,_RNvNtNtNtCsgTXWXfwjzne_17intervals_icu_mcp7engines8forecast5testss_26tsb_fatigue_classification
FN:122,_RNvNtNtNtCsgTXWXfwjzne_17intervals_icu_mcp7engines8forecast5testss_26tsb_projection_stable_load
FN:129,_RNvNtNtNtCsgTXWXfwjzne_17intervals_icu_mcp7engines8forecast5testss_33tsb_projection_hard_load_dips_tsb
FN:136,_RNvNtNtNtCsgTXWXfwjzne_17intervals_icu_mcp7engines8forecast5testss_35tsb_projection_easy_load_raises_tsb
FN:47,_RNvNtNtCsgTXWXfwjzne_17intervals_icu_mcp7engines8forecast11project_tsb
FN:84,_RNvNtNtCsgTXWXfwjzne_17intervals_icu_mcp7engines8forecast18parameterized_load
FN:98,_RNvNtNtCsgTXWXfwjzne_17intervals_icu_mcp7engines8forecast24compute_taper_efficiency
FNDA:1,_RNvNtNtNtCsgTXWXfwjzne_17intervals_icu_mcp7engines8forecast5testss_24taper_efficiency_partial
FNDA:1,_RNvNtNtNtCsgTXWXfwjzne_17intervals_icu_mcp7engines8forecast5testss_24taper_efficiency_perfect
FNDA:1,_RNvNtNtNtCsgTXWXfwjzne_17intervals_icu_mcp7engines8forecast5testss_25parameterized_load_values
FNDA:1,_RNvNtNtNtCsgTXWXfwjzne_17intervals_icu_mcp7engines8forecast5testss_26tsb_fatigue_classification
FNDA:1,_RNvNtNtNtCsgTXWXfwjzne_17intervals_icu_mcp7engines8forecast5testss_26tsb_projection_stable_load
FNDA:1,_RNvNtNtNtCsgTXWXfwjzne_17intervals_icu_mcp7engines8forecast5testss_33tsb_projection_hard_load_dips_tsb
FNDA:1,_RNvNtNtNtCsgTXWXfwjzne_17intervals_icu_mcp7engines8forecast5testss_35tsb_projection_easy_load_raises_tsb
FNDA:4,_RNvNtNtCsgTXWXfwjzne_17intervals_icu_mcp7engines8forecast11project_tsb
FNDA:4,_RNvNtNtCsgTXWXfwjzne_17intervals_icu_mcp7engines8forecast18parameterized_load
FNDA:2,_RNvNtNtCsgTXWXfwjzne_17intervals_icu_mcp7engines8forecast24compute_taper_efficiency
FNF:10
FNH:10
DA:47,4
DA:48,4
DA:49,4
DA:50,4
DA:52,35
DA:53,35
DA:54,35
DA:55,35
DA:57,35
DA:58,19
DA:59,16
DA:60,2
DA:61,14
DA:62,14
DA:63,0
DA:64,0
DA:66,0
DA:69,35
DA:70,35
DA:71,35
DA:72,35
DA:73,35
DA:74,35
DA:75,35
DA:78,4
DA:79,4
DA:84,4
DA:85,4
DA:86,4
DA:87,3
DA:88,2
DA:89,1
DA:90,0
DA:92,4
DA:98,2
DA:99,2
DA:100,2
DA:101,2
DA:102,2
DA:103,2
DA:104,2
DA:105,2
DA:107,0
DA:109,2
DA:110,2
DA:112,0
DA:114,2
DA:115,2
DA:122,1
DA:123,1
DA:125,1
DA:126,1
DA:129,1
DA:130,1
DA:132,1
DA:133,1
DA:136,1
DA:137,1
DA:139,1
DA:140,1
DA:143,1
DA:144,1
DA:145,1
DA:146,1
DA:147,1
DA:150,1
DA:151,1
DA:152,1
DA:153,1
DA:154,1
DA:155,1
DA:158,1
DA:159,1
DA:160,1
DA:161,1
DA:162,1
DA:165,1
DA:166,1
DA:167,1
DA:168,1
BRF:0
BRH:0
LF:80
LH:74
end_of_record
SF:/Users/solovey/Documents/dev/rusty_intervals_mcp/crates/intervals_icu_mcp/src/engines/planning.rs
FN:498,_RNCNvNtNtNtCsgTXWXfwjzne_17intervals_icu_mcp7engines8planning5testss_31test_training_phase_progression0B9_
FN:1250,_RNCNvNtNtNtCsgTXWXfwjzne_17intervals_icu_mcp7engines8planning5testss_41test_generate_workout_for_intensity_focus0B9_
FN:423,_RNvNtNtNtCsgTXWXfwjzne_17intervals_icu_mcp7engines8planning5testss_19test_focus_from_gap
FN:873,_RNvNtNtNtCsgTXWXfwjzne_17intervals_icu_mcp7engines8planning5testss_19test_key_race_clone
FN:891,_RNvNtNtNtCsgTXWXfwjzne_17intervals_icu_mcp7engines8planning5testss_19test_key_race_debug
FN:412,_RNvNtNtNtCsgTXWXfwjzne_17intervals_icu_mcp7engines8planning5testss_19test_taper_protocol
FN:1145,_RNvNtNtNtCsgTXWXfwjzne_17intervals_icu_mcp7engines8planning5testss_22test_weekly_plan_clone
FN:1168,_RNvNtNtNtCsgTXWXfwjzne_17intervals_icu_mcp7engines8planning5testss_22test_weekly_plan_debug
FN:435,_RNvNtNtNtCsgTXWXfwjzne_17intervals_icu_mcp7engines8planning5testss_22test_zone_distribution
FN:938,_RNvNtNtNtCsgTXWXfwjzne_17intervals_icu_mcp7engines8planning5testss_23test_period_block_clone
FN:958,_RNvNtNtNtCsgTXWXfwjzne_17intervals_icu_mcp7engines8planning5testss_23test_period_block_debug
FN:1103,_RNvNtNtNtCsgTXWXfwjzne_17intervals_icu_mcp7engines8planning5testss_23test_zone_segment_clone
FN:1117,_RNvNtNtNtCsgTXWXfwjzne_17intervals_icu_mcp7engines8planning5testss_23test_zone_segment_debug
FN:397,_RNvNtNtNtCsgTXWXfwjzne_17intervals_icu_mcp7engines8planning5testss_24test_periodization_rules
FN:848,_RNvNtNtNtCsgTXWXfwjzne_17intervals_icu_mcp7engines8planning5testss_24test_race_distance_clone
FN:855,_RNvNtNtNtCsgTXWXfwjzne_17intervals_icu_mcp7engines8planning5testss_24test_race_distance_debug
FN:462,_RNvNtNtNtCsgTXWXfwjzne_17intervals_icu_mcp7engines8planning5testss_24test_taper_all_distances
FN:552,_RNvNtNtNtCsgTXWXfwjzne_17intervals_icu_mcp7engines8planning5testss_25test_custom_race_distance
FN:455,_RNvNtNtNtCsgTXWXfwjzne_17intervals_icu_mcp7engines8planning5testss_25test_recovery_week_volume
FN:978,_RNvNtNtNtCsgTXWXfwjzne_17intervals_icu_mcp7engines8planning5testss_25test_taper_protocol_clone
FN:992,_RNvNtNtNtCsgTXWXfwjzne_17intervals_icu_mcp7engines8planning5testss_25test_taper_protocol_debug
FN:799,_RNvNtNtNtCsgTXWXfwjzne_17intervals_icu_mcp7engines8planning5testss_25test_training_focus_clone
FN:806,_RNvNtNtNtCsgTXWXfwjzne_17intervals_icu_mcp7engines8planning5testss_25test_training_focus_debug
FN:705,_RNvNtNtNtCsgTXWXfwjzne_17intervals_icu_mcp7engines8planning5testss_25test_training_phase_clone
FN:712,_RNvNtNtNtCsgTXWXfwjzne_17intervals_icu_mcp7engines8planning5testss_25test_training_phase_debug
FN:1228,_RNvNtNtNtCsgTXWXfwjzne_17intervals_icu_mcp7engines8planning5testss_26test_zone_distribution_sum
FN:626,_RNvNtNtNtCsgTXWXfwjzne_17intervals_icu_mcp7engines8planning5testss_27test_planning_horizon_clone
FN:639,_RNvNtNtNtCsgTXWXfwjzne_17intervals_icu_mcp7engines8planning5testss_27test_planning_horizon_debug
FN:507,_RNvNtNtNtCsgTXWXfwjzne_17intervals_icu_mcp7engines8planning5testss_27test_planning_horizon_weeks
FN:1036,_RNvNtNtNtCsgTXWXfwjzne_17intervals_icu_mcp7engines8planning5testss_27test_workout_template_clone
FN:1056,_RNvNtNtNtCsgTXWXfwjzne_17intervals_icu_mcp7engines8planning5testss_27test_workout_template_debug
FN:404,_RNvNtNtNtCsgTXWXfwjzne_17intervals_icu_mcp7engines8planning5testss_28test_recovery_week_detection
FN:719,_RNvNtNtNtCsgTXWXfwjzne_17intervals_icu_mcp7engines8planning5testss_28test_training_phase_equality
FN:1203,_RNvNtNtNtCsgTXWXfwjzne_17intervals_icu_mcp7engines8planning5testss_28test_zone_distribution_clone
FN:1217,_RNvNtNtNtCsgTXWXfwjzne_17intervals_icu_mcp7engines8planning5testss_28test_zone_distribution_debug
FN:906,_RNvNtNtNtCsgTXWXfwjzne_17intervals_icu_mcp7engines8planning5testss_29test_key_race_priority_levels
FN:862,_RNvNtNtNtCsgTXWXfwjzne_17intervals_icu_mcp7engines8planning5testss_30test_race_distance_debug_other
FN:444,_RNvNtNtNtCsgTXWXfwjzne_17intervals_icu_mcp7engines8planning5testss_30test_weekly_volume_calculation
FN:488,_RNvNtNtNtCsgTXWXfwjzne_17intervals_icu_mcp7engines8planning5testss_31test_training_phase_progression
FN:842,_RNvNtNtNtCsgTXWXfwjzne_17intervals_icu_mcp7engines8planning5testss_32test_race_distance_other_variant
FN:776,_RNvNtNtNtCsgTXWXfwjzne_17intervals_icu_mcp7engines8planning5testss_32test_training_focus_all_variants
FN:680,_RNvNtNtNtCsgTXWXfwjzne_17intervals_icu_mcp7engines8planning5testss_32test_training_phase_all_variants
FN:1129,_RNvNtNtNtCsgTXWXfwjzne_17intervals_icu_mcp7engines8planning5testss_32test_zone_segment_no_description
FN:1302,_RNvNtNtNtCsgTXWXfwjzne_17intervals_icu_mcp7engines8planning5testss_33test_generate_workout_sport_field
FN:1004,_RNvNtNtNtCsgTXWXfwjzne_17intervals_icu_mcp7engines8planning5testss_33test_taper_protocol_all_distances
FN:533,_RNvNtNtNtCsgTXWXfwjzne_17intervals_icu_mcp7engines8planning5testss_33test_workout_generation_for_phase
FN:1182,_RNvNtNtNtCsgTXWXfwjzne_17intervals_icu_mcp7engines8planning5testss_35test_weekly_plan_multiple_rest_days
FN:1069,_RNvNtNtNtCsgTXWXfwjzne_17intervals_icu_mcp7engines8planning5testss_36test_workout_template_multiple_zones
FN:651,_RNvNtNtNtCsgTXWXfwjzne_17intervals_icu_mcp7engines8planning5testss_37test_planning_horizon_builder_methods
FN:1290,_RNvNtNtNtCsgTXWXfwjzne_17intervals_icu_mcp7engines8planning5testss_38test_generate_workout_different_phases
FN:588,_RNvNtNtNtCsgTXWXfwjzne_17intervals_icu_mcp7engines8planning5testss_39test_planning_horizon_mesocycle_variant
FN:1272,_RNvNtNtNtCsgTXWXfwjzne_17intervals_icu_mcp7engines8planning5testss_40test_generate_workout_for_recovery_focus
FN:1281,_RNvNtNtNtCsgTXWXfwjzne_17intervals_icu_mcp7engines8planning5testss_40test_generate_workout_for_strength_focus
FN:1254,_RNvNtNtNtCsgTXWXfwjzne_17intervals_icu_mcp7engines8planning5testss_40test_generate_workout_for_vertical_focus
FN:602,_RNvNtNtNtCsgTXWXfwjzne_17intervals_icu_mcp7engines8planning5testss_40test_planning_horizon_macrocycle_variant
FN:564,_RNvNtNtNtCsgTXWXfwjzne_17intervals_icu_mcp7engines8planning5testss_40test_planning_horizon_microcycle_variant
FN:817,_RNvNtNtNtCsgTXWXfwjzne_17intervals_icu_mcp7engines8planning5testss_40test_race_distance_all_standard_variants
FN:1243,_RNvNtNtNtCsgTXWXfwjzne_17intervals_icu_mcp7engines8planning5testss_41test_generate_workout_for_intensity_focus
FN:615,_RNvNtNtNtCsgTXWXfwjzne_17intervals_icu_mcp7engines8planning5testss_41test_planning_horizon_annual_plan_variant
FN:576,_RNvNtNtNtCsgTXWXfwjzne_17intervals_icu_mcp7engines8planning5testss_41test_planning_horizon_microcycle_no_focus
FN:1263,_RNvNtNtNtCsgTXWXfwjzne_17intervals_icu_mcp7engines8planning5testss_45test_generate_workout_for_race_specific_focus
FN:727,_RNvNtNtNtCsgTXWXfwjzne_17intervals_icu_mcp7engines8planning5testss_48test_training_phase_zone_distribution_all_phases
FN:763,_RNvNtNtNtCsgTXWXfwjzne_17intervals_icu_mcp7engines8planning5testss_48test_training_phase_zone_distribution_race_phase
FN:753,_RNvNtNtNtCsgTXWXfwjzne_17intervals_icu_mcp7engines8planning5testss_54test_training_phase_zone_distribution_recovery_vs_base
FN:176,_RNvMNtNtCsgTXWXfwjzne_17intervals_icu_mcp7engines8planningNtB2_18PeriodizationRules13weekly_volume
FN:123,_RNvMNtNtCsgTXWXfwjzne_17intervals_icu_mcp7engines8planningNtB2_18PeriodizationRules14taper_protocol
FN:170,_RNvMNtNtCsgTXWXfwjzne_17intervals_icu_mcp7engines8planningNtB2_18PeriodizationRules16is_recovery_week
FN:164,_RNvMNtNtCsgTXWXfwjzne_17intervals_icu_mcp7engines8planningNtB2_18PeriodizationRules20recovery_week_volume
FN:154,_RNvMNtNtCsgTXWXfwjzne_17intervals_icu_mcp7engines8planningNtB2_18PeriodizationRules21focus_from_aet_lt_gap
FN:259,_RNvMs0_NtNtCsgTXWXfwjzne_17intervals_icu_mcp7engines8planningNtB5_13TrainingPhase17zone_distribution
FN:236,_RNvMs_NtNtCsgTXWXfwjzne_17intervals_icu_mcp7engines8planningNtB4_15PlanningHorizon10macrocycle
FN:218,_RNvMs_NtNtCsgTXWXfwjzne_17intervals_icu_mcp7engines8planningNtB4_15PlanningHorizon10microcycle
FN:246,_RNvMs_NtNtCsgTXWXfwjzne_17intervals_icu_mcp7engines8planningNtB4_15PlanningHorizon5weeks
FN:226,_RNvMs_NtNtCsgTXWXfwjzne_17intervals_icu_mcp7engines8planningNtB4_15PlanningHorizon9mesocycle
FN:305,_RNvNtNtCsgTXWXfwjzne_17intervals_icu_mcp7engines8planning26generate_workout_for_phase
FNDA:6,_RNCNvNtNtNtCsgTXWXfwjzne_17intervals_icu_mcp7engines8planning5testss_31test_training_phase_progression0B9_
FNDA:2,_RNCNvNtNtNtCsgTXWXfwjzne_17intervals_icu_mcp7engines8planning5testss_41test_generate_workout_for_intensity_focus0B9_
FNDA:1,_RNvNtNtNtCsgTXWXfwjzne_17intervals_icu_mcp7engines8planning5testss_19test_focus_from_gap
FNDA:1,_RNvNtNtNtCsgTXWXfwjzne_17intervals_icu_mcp7engines8planning5testss_19test_key_race_clone
FNDA:1,_RNvNtNtNtCsgTXWXfwjzne_17intervals_icu_mcp7engines8planning5testss_19test_key_race_debug
FNDA:1,_RNvNtNtNtCsgTXWXfwjzne_17intervals_icu_mcp7engines8planning5testss_19test_taper_protocol
FNDA:1,_RNvNtNtNtCsgTXWXfwjzne_17intervals_icu_mcp7engines8planning5testss_22test_weekly_plan_clone
FNDA:1,_RNvNtNtNtCsgTXWXfwjzne_17intervals_icu_mcp7engines8planning5testss_22test_weekly_plan_debug
FNDA:1,_RNvNtNtNtCsgTXWXfwjzne_17intervals_icu_mcp7engines8planning5testss_22test_zone_distribution
FNDA:1,_RNvNtNtNtCsgTXWXfwjzne_17intervals_icu_mcp7engines8planning5testss_23test_period_block_clone
FNDA:1,_RNvNtNtNtCsgTXWXfwjzne_17intervals_icu_mcp7engines8planning5testss_23test_period_block_debug
FNDA:1,_RNvNtNtNtCsgTXWXfwjzne_17intervals_icu_mcp7engines8planning5testss_23test_zone_segment_clone
FNDA:1,_RNvNtNtNtCsgTXWXfwjzne_17intervals_icu_mcp7engines8planning5testss_23test_zone_segment_debug
FNDA:1,_RNvNtNtNtCsgTXWXfwjzne_17intervals_icu_mcp7engines8planning5testss_24test_periodization_rules
FNDA:1,_RNvNtNtNtCsgTXWXfwjzne_17intervals_icu_mcp7engines8planning5testss_24test_race_distance_clone
FNDA:1,_RNvNtNtNtCsgTXWXfwjzne_17intervals_icu_mcp7engines8planning5testss_24test_race_distance_debug
FNDA:1,_RNvNtNtNtCsgTXWXfwjzne_17intervals_icu_mcp7engines8planning5testss_24test_taper_all_distances
FNDA:1,_RNvNtNtNtCsgTXWXfwjzne_17intervals_icu_mcp7engines8planning5testss_25test_custom_race_distance
FNDA:1,_RNvNtNtNtCsgTXWXfwjzne_17intervals_icu_mcp7engines8planning5testss_25test_recovery_week_volume
FNDA:1,_RNvNtNtNtCsgTXWXfwjzne_17intervals_icu_mcp7engines8planning5testss_25test_taper_protocol_clone
FNDA:1,_RNvNtNtNtCsgTXWXfwjzne_17intervals_icu_mcp7engines8planning5testss_25test_taper_protocol_debug
FNDA:1,_RNvNtNtNtCsgTXWXfwjzne_17intervals_icu_mcp7engines8planning5testss_25test_training_focus_clone
FNDA:1,_RNvNtNtNtCsgTXWXfwjzne_17intervals_icu_mcp7engines8planning5testss_25test_training_focus_debug
FNDA:1,_RNvNtNtNtCsgTXWXfwjzne_17intervals_icu_mcp7engines8planning5testss_25test_training_phase_clone
FNDA:1,_RNvNtNtNtCsgTXWXfwjzne_17intervals_icu_mcp7engines8planning5testss_25test_training_phase_debug
FNDA:1,_RNvNtNtNtCsgTXWXfwjzne_17intervals_icu_mcp7engines8planning5testss_26test_zone_distribution_sum
FNDA:1,_RNvNtNtNtCsgTXWXfwjzne_17intervals_icu_mcp7engines8planning5testss_27test_planning_horizon_clone
FNDA:1,_RNvNtNtNtCsgTXWXfwjzne_17intervals_icu_mcp7engines8planning5testss_27test_planning_horizon_debug
FNDA:1,_RNvNtNtNtCsgTXWXfwjzne_17intervals_icu_mcp7engines8planning5testss_27test_planning_horizon_weeks
FNDA:1,_RNvNtNtNtCsgTXWXfwjzne_17intervals_icu_mcp7engines8planning5testss_27test_workout_template_clone
FNDA:1,_RNvNtNtNtCsgTXWXfwjzne_17intervals_icu_mcp7engines8planning5testss_27test_workout_template_debug
FNDA:1,_RNvNtNtNtCsgTXWXfwjzne_17intervals_icu_mcp7engines8planning5testss_28test_recovery_week_detection
FNDA:1,_RNvNtNtNtCsgTXWXfwjzne_17intervals_icu_mcp7engines8planning5testss_28test_training_phase_equality
FNDA:1,_RNvNtNtNtCsgTXWXfwjzne_17intervals_icu_mcp7engines8planning5testss_28test_zone_distribution_clone
FNDA:1,_RNvNtNtNtCsgTXWXfwjzne_17intervals_icu_mcp7engines8planning5testss_28test_zone_distribution_debug
FNDA:1,_RNvNtNtNtCsgTXWXfwjzne_17intervals_icu_mcp7engines8planning5testss_29test_key_race_priority_levels
FNDA:1,_RNvNtNtNtCsgTXWXfwjzne_17intervals_icu_mcp7engines8planning5testss_30test_race_distance_debug_other
FNDA:1,_RNvNtNtNtCsgTXWXfwjzne_17intervals_icu_mcp7engines8planning5testss_30test_weekly_volume_calculation
FNDA:1,_RNvNtNtNtCsgTXWXfwjzne_17intervals_icu_mcp7engines8planning5testss_31test_training_phase_progression
FNDA:1,_RNvNtNtNtCsgTXWXfwjzne_17intervals_icu_mcp7engines8planning5testss_32test_race_distance_other_variant
FNDA:1,_RNvNtNtNtCsgTXWXfwjzne_17intervals_icu_mcp7engines8planning5testss_32test_training_focus_all_variants
FNDA:1,_RNvNtNtNtCsgTXWXfwjzne_17intervals_icu_mcp7engines8planning5testss_32test_training_phase_all_variants
FNDA:1,_RNvNtNtNtCsgTXWXfwjzne_17intervals_icu_mcp7engines8planning5testss_32test_zone_segment_no_description
FNDA:1,_RNvNtNtNtCsgTXWXfwjzne_17intervals_icu_mcp7engines8planning5testss_33test_generate_workout_sport_field
FNDA:1,_RNvNtNtNtCsgTXWXfwjzne_17intervals_icu_mcp7engines8planning5testss_33test_taper_protocol_all_distances
FNDA:1,_RNvNtNtNtCsgTXWXfwjzne_17intervals_icu_mcp7engines8planning5testss_33test_workout_generation_for_phase
FNDA:1,_RNvNtNtNtCsgTXWXfwjzne_17intervals_icu_mcp7engines8planning5testss_35test_weekly_plan_multiple_rest_days
FNDA:1,_RNvNtNtNtCsgTXWXfwjzne_17intervals_icu_mcp7engines8planning5testss_36test_workout_template_multiple_zones
FNDA:1,_RNvNtNtNtCsgTXWXfwjzne_17intervals_icu_mcp7engines8planning5testss_37test_planning_horizon_builder_methods
FNDA:1,_RNvNtNtNtCsgTXWXfwjzne_17intervals_icu_mcp7engines8planning5testss_38test_generate_workout_different_phases
FNDA:1,_RNvNtNtNtCsgTXWXfwjzne_17intervals_icu_mcp7engines8planning5testss_39test_planning_horizon_mesocycle_variant
FNDA:1,_RNvNtNtNtCsgTXWXfwjzne_17intervals_icu_mcp7engines8planning5testss_40test_generate_workout_for_recovery_focus
FNDA:1,_RNvNtNtNtCsgTXWXfwjzne_17intervals_icu_mcp7engines8planning5testss_40test_generate_workout_for_strength_focus
FNDA:1,_RNvNtNtNtCsgTXWXfwjzne_17intervals_icu_mcp7engines8planning5testss_40test_generate_workout_for_vertical_focus
FNDA:1,_RNvNtNtNtCsgTXWXfwjzne_17intervals_icu_mcp7engines8planning5testss_40test_planning_horizon_macrocycle_variant
FNDA:1,_RNvNtNtNtCsgTXWXfwjzne_17intervals_icu_mcp7engines8planning5testss_40test_planning_horizon_microcycle_variant
FNDA:1,_RNvNtNtNtCsgTXWXfwjzne_17intervals_icu_mcp7engines8planning5testss_40test_race_distance_all_standard_variants
FNDA:1,_RNvNtNtNtCsgTXWXfwjzne_17intervals_icu_mcp7engines8planning5testss_41test_generate_workout_for_intensity_focus
FNDA:1,_RNvNtNtNtCsgTXWXfwjzne_17intervals_icu_mcp7engines8planning5testss_41test_planning_horizon_annual_plan_variant
FNDA:1,_RNvNtNtNtCsgTXWXfwjzne_17intervals_icu_mcp7engines8planning5testss_41test_planning_horizon_microcycle_no_focus
FNDA:1,_RNvNtNtNtCsgTXWXfwjzne_17intervals_icu_mcp7engines8planning5testss_45test_generate_workout_for_race_specific_focus
FNDA:1,_RNvNtNtNtCsgTXWXfwjzne_17intervals_icu_mcp7engines8planning5testss_48test_training_phase_zone_distribution_all_phases
FNDA:1,_RNvNtNtNtCsgTXWXfwjzne_17intervals_icu_mcp7engines8planning5testss_48test_training_phase_zone_distribution_race_phase
FNDA:1,_RNvNtNtNtCsgTXWXfwjzne_17intervals_icu_mcp7engines8planning5testss_54test_training_phase_zone_distribution_recovery_vs_base
FNDA:2,_RNvMNtNtCsgTXWXfwjzne_17intervals_icu_mcp7engines8planningNtB2_18PeriodizationRules13weekly_volume
FNDA:19,_RNvMNtNtCsgTXWXfwjzne_17intervals_icu_mcp7engines8planningNtB2_18PeriodizationRules14taper_protocol
FNDA:4,_RNvMNtNtCsgTXWXfwjzne_17intervals_icu_mcp7engines8planningNtB2_18PeriodizationRules16is_recovery_week
FNDA:1,_RNvMNtNtCsgTXWXfwjzne_17intervals_icu_mcp7engines8planningNtB2_18PeriodizationRules20recovery_week_volume
FNDA:2,_RNvMNtNtCsgTXWXfwjzne_17intervals_icu_mcp7engines8planningNtB2_18PeriodizationRules21focus_from_aet_lt_gap
FNDA:28,_RNvMs0_NtNtCsgTXWXfwjzne_17intervals_icu_mcp7engines8planningNtB5_13TrainingPhase17zone_distribution
FNDA:2,_RNvMs_NtNtCsgTXWXfwjzne_17intervals_icu_mcp7engines8planningNtB4_15PlanningHorizon10macrocycle
FNDA:4,_RNvMs_NtNtCsgTXWXfwjzne_17intervals_icu_mcp7engines8planningNtB4_15PlanningHorizon10microcycle
FNDA:13,_RNvMs_NtNtCsgTXWXfwjzne_17intervals_icu_mcp7engines8planningNtB4_15PlanningHorizon5weeks
FNDA:2,_RNvMs_NtNtCsgTXWXfwjzne_17intervals_icu_mcp7engines8planningNtB4_15PlanningHorizon9mesocycle
FNDA:9,_RNvNtNtCsgTXWXfwjzne_17intervals_icu_mcp7engines8planning26generate_workout_for_phase
FNF:75
FNH:75
DA:123,19
DA:124,19
DA:125,6
DA:126,6
DA:127,6
DA:128,6
DA:129,6
DA:130,5
DA:131,5
DA:132,5
DA:133,5
DA:134,5
DA:135,2
DA:136,2
DA:137,2
DA:138,2
DA:139,2
DA:140,2
DA:141,2
DA:142,2
DA:143,2
DA:144,2
DA:145,4
DA:146,4
DA:147,4
DA:148,4
DA:149,4
DA:151,19
DA:154,2
DA:155,2
DA:156,1
DA:158,1
DA:160,2
DA:164,1
DA:165,1
DA:166,1
DA:170,4
DA:171,4
DA:172,4
DA:176,2
DA:177,2
DA:178,2
DA:179,2
DA:218,4
DA:219,4
DA:220,4
DA:221,4
DA:222,4
DA:223,4
DA:226,2
DA:227,2
DA:228,2
DA:229,2
DA:230,2
DA:231,2
DA:232,2
DA:233,2
DA:236,2
DA:237,2
DA:238,2
DA:239,2
DA:240,2
DA:241,2
DA:242,2
DA:246,13
DA:247,13
DA:248,6
DA:249,3
DA:250,3
DA:251,1
DA:253,13
DA:259,28
DA:260,28
DA:261,5
DA:262,5
DA:263,5
DA:264,5
DA:265,5
DA:266,9
DA:267,9
DA:268,9
DA:269,9
DA:270,9
DA:271,6
DA:272,6
DA:273,6
DA:274,6
DA:275,6
DA:276,3
DA:277,3
DA:278,3
DA:279,3
DA:280,3
DA:281,2
DA:282,2
DA:283,2
DA:284,2
DA:285,2
DA:286,3
DA:287,3
DA:288,3
DA:289,3
DA:290,3
DA:292,28
DA:305,9
DA:306,9
DA:307,9
DA:308,9
DA:309,9
DA:310,9
DA:312,9
DA:314,4
DA:315,4
DA:316,4
DA:317,4
DA:318,4
DA:319,4
DA:320,4
DA:321,4
DA:322,4
DA:323,4
DA:324,4
DA:325,4
DA:326,4
DA:327,4
DA:328,4
DA:329,4
DA:333,1
DA:334,1
DA:335,1
DA:336,1
DA:337,1
DA:338,1
DA:339,1
DA:340,1
DA:341,1
DA:342,1
DA:343,1
DA:344,1
DA:345,1
DA:346,1
DA:347,1
DA:348,1
DA:349,1
DA:350,1
DA:351,1
DA:352,1
DA:353,1
DA:358,4
DA:359,4
DA:360,4
DA:361,4
DA:362,4
DA:363,4
DA:364,4
DA:365,4
DA:366,4
DA:367,4
DA:368,4
DA:369,4
DA:370,4
DA:371,4
DA:372,4
DA:373,4
DA:374,4
DA:375,4
DA:376,4
DA:377,4
DA:378,4
DA:379,4
DA:384,9
DA:385,9
DA:386,9
DA:387,9
DA:388,9
DA:389,9
DA:390,9
DA:397,1
DA:398,1
DA:399,1
DA:400,1
DA:401,1
DA:404,1
DA:405,1
DA:406,1
DA:407,1
DA:408,1
DA:409,1
DA:412,1
DA:413,1
DA:414,1
DA:415,1
DA:417,1
DA:418,1
DA:419,1
DA:420,1
DA:423,1
DA:424,1
DA:425,1
DA:428,1
DA:429,1
DA:432,1
DA:435,1
DA:436,1
DA:437,1
DA:439,1
DA:440,1
DA:441,1
DA:444,1
DA:445,1
DA:446,1
DA:447,1
DA:449,1
DA:450,1
DA:451,1
DA:452,1
DA:455,1
DA:456,1
DA:457,1
DA:458,1
DA:459,1
DA:462,1
DA:463,1
DA:464,1
DA:465,1
DA:466,1
DA:467,1
DA:468,1
DA:469,1
DA:470,1
DA:471,1
DA:474,8
DA:475,8
DA:476,8
DA:481,8
DA:482,8
DA:483,8
DA:485,1
DA:488,1
DA:489,1
DA:490,1
DA:491,1
DA:492,1
DA:493,1
DA:494,1
DA:495,1
DA:496,1
DA:498,6
DA:501,1
DA:502,1
DA:503,1
DA:504,1
DA:507,1
DA:510,1
DA:511,1
DA:512,1
DA:514,1
DA:516,1
DA:517,1
DA:519,1
DA:522,1
DA:524,1
DA:525,1
DA:526,1
DA:529,1
DA:530,1
DA:533,1
DA:534,1
DA:535,1
DA:537,1
DA:538,1
DA:539,1
DA:542,1
DA:544,1
DA:545,1
DA:549,1
DA:552,1
DA:553,1
DA:554,1
DA:555,1
DA:556,1
DA:557,1
DA:564,1
DA:567,1
DA:568,1
DA:569,1
DA:570,1
DA:572,1
DA:573,1
DA:576,1
DA:579,1
DA:580,1
DA:581,1
DA:582,1
DA:584,1
DA:585,1
DA:588,1
DA:591,1
DA:592,1
DA:593,1
DA:594,1
DA:595,1
DA:596,1
DA:598,1
DA:599,1
DA:602,1
DA:605,1
DA:606,1
DA:607,1
DA:608,1
DA:609,1
DA:611,1
DA:612,1
DA:615,1
DA:616,1
DA:617,1
DA:618,1
DA:619,1
DA:620,1
DA:622,1
DA:623,1
DA:626,1
DA:629,1
DA:630,1
DA:631,1
DA:633,1
DA:635,1
DA:636,1
DA:639,1
DA:642,1
DA:643,1
DA:644,1
DA:646,1
DA:647,1
DA:648,1
DA:651,1
DA:654,1
DA:655,1
DA:656,1
DA:658,1
DA:659,1
DA:661,1
DA:664,1
DA:665,1
DA:666,1
DA:670,1
DA:671,1
DA:672,1
DA:673,1
DA:680,1
DA:681,1
DA:682,1
DA:683,1
DA:684,1
DA:685,1
DA:686,1
DA:687,1
DA:688,1
DA:689,1
DA:690,1
DA:693,8
DA:694,64
DA:695,64
DA:696,8
DA:698,56
DA:702,1
DA:705,1
DA:706,1
DA:707,1
DA:708,1
DA:709,1
DA:712,1
DA:713,1
DA:714,1
DA:715,1
DA:716,1
DA:719,1
DA:720,1
DA:721,1
DA:722,1
DA:723,1
DA:724,1
DA:727,1
DA:728,1
DA:729,1
DA:730,1
DA:731,1
DA:732,1
DA:733,1
DA:734,1
DA:735,1
DA:736,1
DA:739,8
DA:740,8
DA:742,8
DA:743,8
DA:744,8
DA:750,1
DA:753,1
DA:754,1
DA:755,1
DA:758,1
DA:759,1
DA:760,1
DA:763,1
DA:764,1
DA:767,1
DA:768,1
DA:769,1
DA:776,1
DA:777,1
DA:778,1
DA:779,1
DA:780,1
DA:781,1
DA:782,1
DA:783,1
DA:784,1
DA:787,6
DA:788,36
DA:789,36
DA:790,6
DA:792,30
DA:796,1
DA:799,1
DA:800,1
DA:801,1
DA:802,1
DA:803,1
DA:806,1
DA:807,1
DA:808,1
DA:809,1
DA:810,1
DA:817,1
DA:818,1
DA:819,1
DA:820,1
DA:821,1
DA:822,1
DA:823,1
DA:824,1
DA:825,1
DA:826,1
DA:827,1
DA:830,8
DA:831,64
DA:832,64
DA:833,8
DA:835,56
DA:839,1
DA:842,1
DA:843,1
DA:844,1
DA:845,1
DA:848,1
DA:849,1
DA:850,1
DA:851,1
DA:852,1
DA:855,1
DA:856,1
DA:857,1
DA:858,1
DA:859,1
DA:862,1
DA:863,1
DA:864,1
DA:865,1
DA:866,1
DA:873,1
DA:876,1
DA:877,1
DA:878,1
DA:879,1
DA:880,1
DA:881,1
DA:882,1
DA:884,1
DA:885,1
DA:886,1
DA:887,1
DA:888,1
DA:891,1
DA:894,1
DA:895,1
DA:896,1
DA:897,1
DA:898,1
DA:899,1
DA:900,1
DA:901,1
DA:902,1
DA:903,1
DA:906,1
DA:909,1
DA:910,1
DA:911,1
DA:912,1
DA:913,1
DA:914,1
DA:915,1
DA:916,1
DA:917,1
DA:918,1
DA:919,1
DA:920,1
DA:921,1
DA:922,1
DA:923,1
DA:924,1
DA:925,1
DA:926,1
DA:928,1
DA:929,1
DA:930,1
DA:931,1
DA:938,1
DA:941,1
DA:942,1
DA:943,1
DA:944,1
DA:945,1
DA:946,1
DA:947,1
DA:948,1
DA:950,1
DA:951,1
DA:952,1
DA:953,1
DA:954,1
DA:955,1
DA:958,1
DA:961,1
DA:962,1
DA:963,1
DA:964,1
DA:965,1
DA:966,1
DA:967,1
DA:968,1
DA:969,1
DA:970,1
DA:971,1
DA:978,1
DA:979,1
DA:980,1
DA:981,1
DA:982,1
DA:983,1
DA:984,1
DA:986,1
DA:987,1
DA:988,1
DA:989,1
DA:992,1
DA:993,1
DA:994,1
DA:995,1
DA:996,1
DA:997,1
DA:998,1
DA:999,1
DA:1000,1
DA:1001,1
DA:1004,1
DA:1005,1
DA:1006,1
DA:1007,1
DA:1008,1
DA:1009,1
DA:1010,1
DA:1011,1
DA:1012,1
DA:1013,1
DA:1016,8
DA:1017,8
DA:1018,8
DA:1023,8
DA:1024,8
DA:1027,8
DA:1029,1
DA:1036,1
DA:1037,1
DA:1038,1
DA:1039,1
DA:1040,1
DA:1041,1
DA:1042,1
DA:1043,1
DA:1044,1
DA:1045,1
DA:1046,1
DA:1047,1
DA:1049,1
DA:1050,1
DA:1051,1
DA:1052,1
DA:1053,1
DA:1056,1
DA:1057,1
DA:1058,1
DA:1059,1
DA:1060,1
DA:1061,1
DA:1062,1
DA:1063,1
DA:1064,1
DA:1065,1
DA:1066,1
DA:1069,1
DA:1070,1
DA:1071,1
DA:1072,1
DA:1073,1
DA:1074,1
DA:1075,1
DA:1076,1
DA:1077,1
DA:1078,1
DA:1079,1
DA:1080,1
DA:1081,1
DA:1082,1
DA:1083,1
DA:1084,1
DA:1085,1
DA:1086,1
DA:1087,1
DA:1088,1
DA:1089,1
DA:1090,1
DA:1091,1
DA:1093,1
DA:1094,1
DA:1095,1
DA:1096,1
DA:1103,1
DA:1104,1
DA:1105,1
DA:1106,1
DA:1107,1
DA:1108,1
DA:1109,1
DA:1111,1
DA:1112,1
DA:1113,1
DA:1114,1
DA:1117,1
DA:1118,1
DA:1119,1
DA:1120,1
DA:1121,1
DA:1122,1
DA:1123,1
DA:1124,1
DA:1125,1
DA:1126,1
DA:1129,1
DA:1130,1
DA:1131,1
DA:1132,1
DA:1133,1
DA:1134,1
DA:1136,1
DA:1137,1
DA:1138,1
DA:1145,1
DA:1148,1
DA:1149,1
DA:1150,1
DA:1151,1
DA:1152,1
DA:1153,1
DA:1154,1
DA:1155,1
DA:1156,1
DA:1157,1
DA:1158,1
DA:1159,1
DA:1161,1
DA:1162,1
DA:1163,1
DA:1164,1
DA:1165,1
DA:1168,1
DA:1171,1
DA:1172,1
DA:1173,1
DA:1174,1
DA:1175,1
DA:1176,1
DA:1177,1
DA:1178,1
DA:1179,1
DA:1182,1
DA:1185,1
DA:1186,1
DA:1187,1
DA:1188,1
DA:1189,1
DA:1190,1
DA:1192,1
DA:1193,1
DA:1194,1
DA:1195,1
DA:1196,1
DA:1203,1
DA:1204,1
DA:1205,1
DA:1206,1
DA:1207,1
DA:1208,1
DA:1209,1
DA:1211,1
DA:1212,1
DA:1213,1
DA:1214,1
DA:1217,1
DA:1218,1
DA:1219,1
DA:1220,1
DA:1221,1
DA:1222,1
DA:1223,1
DA:1224,1
DA:1225,1
DA:1228,1
DA:1229,1
DA:1230,1
DA:1231,1
DA:1232,1
DA:1233,1
DA:1234,1
DA:1235,1
DA:1236,1
DA:1243,1
DA:1244,1
DA:1245,1
DA:1247,1
DA:1248,1
DA:1249,1
DA:1250,2
DA:1251,1
DA:1254,1
DA:1255,1
DA:1256,1
DA:1258,1
DA:1259,1
DA:1260,1
DA:1263,1
DA:1264,1
DA:1265,1
DA:1267,1
DA:1268,1
DA:1269,1
DA:1272,1
DA:1273,1
DA:1274,1
DA:1276,1
DA:1277,1
DA:1278,1
DA:1281,1
DA:1282,1
DA:1283,1
DA:1285,1
DA:1286,1
DA:1287,1
DA:1290,1
DA:1291,1
DA:1292,1
DA:1293,1
DA:1294,1
DA:1297,1
DA:1298,1
DA:1299,1
DA:1302,1
DA:1303,1
DA:1304,1
DA:1306,1
DA:1307,1
BRF:0
BRH:0
LF:783
LH:783
end_of_record
SF:/Users/solovey/Documents/dev/rusty_intervals_mcp/crates/intervals_icu_mcp/src/engines/race_readiness.rs
FN:54,_RNvNtNtCsgTXWXfwjzne_17intervals_icu_mcp7engines14race_readiness22compute_race_readiness
FN:134,_RNvNtNtNtCsgTXWXfwjzne_17intervals_icu_mcp7engines14race_readiness5testss_19readiness_tsb_bonus
FN:162,_RNvNtNtNtCsgTXWXfwjzne_17intervals_icu_mcp7engines14race_readiness5testss_23readiness_taper_penalty
FN:148,_RNvNtNtNtCsgTXWXfwjzne_17intervals_icu_mcp7engines14race_readiness5testss_24readiness_neural_penalty
FN:127,_RNvNtNtNtCsgTXWXfwjzne_17intervals_icu_mcp7engines14race_readiness5testss_27readiness_baseline_is_ready
FN:141,_RNvNtNtNtCsgTXWXfwjzne_17intervals_icu_mcp7engines14race_readiness5testss_28readiness_durability_penalty
FN:169,_RNvNtNtNtCsgTXWXfwjzne_17intervals_icu_mcp7engines14race_readiness5testss_30readiness_taper_penalty_capped
FN:155,_RNvNtNtNtCsgTXWXfwjzne_17intervals_icu_mcp7engines14race_readiness5testss_33readiness_system_mismatch_penalty
FN:176,_RNvNtNtNtCsgTXWXfwjzne_17intervals_icu_mcp7engines14race_readiness5testss_36readiness_score_cannot_go_below_zero
FN:183,_RNvNtNtNtCsgTXWXfwjzne_17intervals_icu_mcp7engines14race_readiness5testss_49readiness_monotonicity_each_penalty_reduces_score
FNDA:12,_RNvNtNtCsgTXWXfwjzne_17intervals_icu_mcp7engines14race_readiness22compute_race_readiness
FNDA:1,_RNvNtNtNtCsgTXWXfwjzne_17intervals_icu_mcp7engines14race_readiness5testss_19readiness_tsb_bonus
FNDA:1,_RNvNtNtNtCsgTXWXfwjzne_17intervals_icu_mcp7engines14race_readiness5testss_23readiness_taper_penalty
FNDA:1,_RNvNtNtNtCsgTXWXfwjzne_17intervals_icu_mcp7engines14race_readiness5testss_24readiness_neural_penalty
FNDA:1,_RNvNtNtNtCsgTXWXfwjzne_17intervals_icu_mcp7engines14race_readiness5testss_27readiness_baseline_is_ready
FNDA:1,_RNvNtNtNtCsgTXWXfwjzne_17intervals_icu_mcp7engines14race_readiness5testss_28readiness_durability_penalty
FNDA:1,_RNvNtNtNtCsgTXWXfwjzne_17intervals_icu_mcp7engines14race_readiness5testss_30readiness_taper_penalty_capped
FNDA:1,_RNvNtNtNtCsgTXWXfwjzne_17intervals_icu_mcp7engines14race_readiness5testss_33readiness_system_mismatch_penalty
FNDA:1,_RNvNtNtNtCsgTXWXfwjzne_17intervals_icu_mcp7engines14race_readiness5testss_36readiness_score_cannot_go_below_zero
FNDA:1,_RNvNtNtNtCsgTXWXfwjzne_17intervals_icu_mcp7engines14race_readiness5testss_49readiness_monotonicity_each_penalty_reduces_score
FNF:10
FNH:10
DA:54,12
DA:55,12
DA:56,12
DA:57,12
DA:58,12
DA:59,12
DA:60,12
DA:61,12
DA:62,12
DA:63,12
DA:64,12
DA:65,12
DA:66,12
DA:69,12
DA:70,2
DA:71,1
DA:72,1
DA:73,10
DA:76,12
DA:77,3
DA:78,9
DA:81,12
DA:82,3
DA:83,9
DA:86,12
DA:87,3
DA:88,9
DA:91,12
DA:92,3
DA:93,3
DA:94,3
DA:95,9
DA:97,12
DA:98,12
DA:99,12
DA:101,12
DA:102,5
DA:103,7
DA:104,5
DA:105,2
DA:106,0
DA:108,2
DA:111,12
DA:112,12
DA:113,12
DA:114,12
DA:115,12
DA:116,12
DA:117,12
DA:118,12
DA:119,12
DA:120,12
DA:127,1
DA:128,1
DA:129,1
DA:130,1
DA:131,1
DA:134,1
DA:135,1
DA:136,1
DA:137,1
DA:138,1
DA:141,1
DA:142,1
DA:143,1
DA:144,1
DA:145,1
DA:148,1
DA:149,1
DA:150,1
DA:151,1
DA:152,1
DA:155,1
DA:156,1
DA:157,1
DA:158,1
DA:159,1
DA:162,1
DA:163,1
DA:164,1
DA:165,1
DA:166,1
DA:169,1
DA:170,1
DA:171,1
DA:172,1
DA:173,1
DA:176,1
DA:177,1
DA:179,1
DA:180,1
DA:183,1
DA:184,1
DA:185,1
DA:186,1
DA:187,1
DA:189,1
DA:190,1
DA:191,1
DA:192,1
BRF:0
BRH:0
LF:100
LH:99
end_of_record
SF:/Users/solovey/Documents/dev/rusty_intervals_mcp/crates/intervals_icu_mcp/src/engines/trail_execution.rs
FN:32,_RNvMNtNtCsgTXWXfwjzne_17intervals_icu_mcp7engines15trail_executionNtB2_14TerrainContext11unsupported
FN:74,_RNCNCNvNtNtCsgTXWXfwjzne_17intervals_icu_mcp7engines15trail_execution23compute_terrain_context00B9_
FN:71,_RNCNvNtNtCsgTXWXfwjzne_17intervals_icu_mcp7engines15trail_execution23compute_terrain_context0B7_
FN:52,_RNvNtNtCsgTXWXfwjzne_17intervals_icu_mcp7engines15trail_execution11compute_vam
FN:44,_RNvNtNtCsgTXWXfwjzne_17intervals_icu_mcp7engines15trail_execution21compute_terrain_index
FN:61,_RNvNtNtCsgTXWXfwjzne_17intervals_icu_mcp7engines15trail_execution23compute_terrain_context
FN:116,_RNvNtNtNtCsgTXWXfwjzne_17intervals_icu_mcp7engines15trail_execution5testss_13vam_zero_time
FN:110,_RNvNtNtNtCsgTXWXfwjzne_17intervals_icu_mcp7engines15trail_execution5testss_15vam_computation
FN:93,_RNvNtNtNtCsgTXWXfwjzne_17intervals_icu_mcp7engines15trail_execution5testss_18terrain_index_flat
FN:121,_RNvNtNtNtCsgTXWXfwjzne_17intervals_icu_mcp7engines15trail_execution5testss_20terrain_context_flat
FN:99,_RNvNtNtNtCsgTXWXfwjzne_17intervals_icu_mcp7engines15trail_execution5testss_22terrain_index_mountain
FN:105,_RNvNtNtNtCsgTXWXfwjzne_17intervals_icu_mcp7engines15trail_execution5testss_27terrain_index_zero_distance
FN:128,_RNvNtNtNtCsgTXWXfwjzne_17intervals_icu_mcp7engines15trail_execution5testss_32terrain_context_mountain_induced
FNDA:0,_RNvMNtNtCsgTXWXfwjzne_17intervals_icu_mcp7engines15trail_executionNtB2_14TerrainContext11unsupported
FNDA:1,_RNCNCNvNtNtCsgTXWXfwjzne_17intervals_icu_mcp7engines15trail_execution23compute_terrain_context00B9_
FNDA:2,_RNCNvNtNtCsgTXWXfwjzne_17intervals_icu_mcp7engines15trail_execution23compute_terrain_context0B7_
FNDA:4,_RNvNtNtCsgTXWXfwjzne_17intervals_icu_mcp7engines15trail_execution11compute_vam
FNDA:5,_RNvNtNtCsgTXWXfwjzne_17intervals_icu_mcp7engines15trail_execution21compute_terrain_index
FNDA:2,_RNvNtNtCsgTXWXfwjzne_17intervals_icu_mcp7engines15trail_execution23compute_terrain_context
FNDA:1,_RNvNtNtNtCsgTXWXfwjzne_17intervals_icu_mcp7engines15trail_execution5testss_13vam_zero_time
FNDA:1,_RNvNtNtNtCsgTXWXfwjzne_17intervals_icu_mcp7engines15trail_execution5testss_15vam_computation
FNDA:1,_RNvNtNtNtCsgTXWXfwjzne_17intervals_icu_mcp7engines15trail_execution5testss_18terrain_index_flat
FNDA:1,_RNvNtNtNtCsgTXWXfwjzne_17intervals_icu_mcp7engines15trail_execution5testss_20terrain_context_flat
FNDA:1,_RNvNtNtNtCsgTXWXfwjzne_17intervals_icu_mcp7engines15trail_execution5testss_22terrain_index_mountain
FNDA:1,_RNvNtNtNtCsgTXWXfwjzne_17intervals_icu_mcp7engines15trail_execution5testss_27terrain_index_zero_distance
FNDA:1,_RNvNtNtNtCsgTXWXfwjzne_17intervals_icu_mcp7engines15trail_execution5testss_32terrain_context_mountain_induced
FNF:13
FNH:12
DA:32,0
DA:33,0
DA:34,0
DA:35,0
DA:36,0
DA:37,0
DA:38,0
DA:39,0
DA:40,0
DA:44,5
DA:45,5
DA:46,1
DA:47,4
DA:48,4
DA:49,5
DA:52,4
DA:53,4
DA:54,1
DA:55,3
DA:56,3
DA:57,4
DA:61,2
DA:62,2
DA:63,2
DA:64,2
DA:65,2
DA:66,2
DA:67,2
DA:68,2
DA:70,2
DA:71,2
DA:72,2
DA:73,1
DA:74,1
DA:75,1
DA:76,2
DA:77,2
DA:79,2
DA:80,2
DA:81,2
DA:82,2
DA:83,2
DA:84,2
DA:85,2
DA:86,2
DA:93,1
DA:94,1
DA:95,1
DA:96,1
DA:99,1
DA:100,1
DA:101,1
DA:102,1
DA:105,1
DA:106,1
DA:107,1
DA:110,1
DA:111,1
DA:112,1
DA:113,1
DA:116,1
DA:117,1
DA:118,1
DA:121,1
DA:122,1
DA:123,1
DA:124,1
DA:125,1
DA:128,1
DA:129,1
DA:130,1
DA:131,1
DA:132,1
BRF:0
BRH:0
LF:75
LH:66
end_of_record
SF:/Users/solovey/Documents/dev/rusty_intervals_mcp/crates/intervals_icu_mcp/src/event_id.rs
FN:13,_RNvMNtCsgTXWXfwjzne_17intervals_icu_mcp8event_idNtB2_7EventId6as_cow
FN:41,_RNvMs1_NtCsgTXWXfwjzne_17intervals_icu_mcp8event_idNtB5_8FolderId6as_cow
FN:28,_RNvXs0_NtCsgTXWXfwjzne_17intervals_icu_mcp8event_idNtB5_7EventIdINtNtCse2qo0L34Llq_4core7convert4FromNtNtCsehV1Oe06VSW_5alloc6string6StringE4from
FN:50,_RNvXs2_NtCsgTXWXfwjzne_17intervals_icu_mcp8event_idNtB5_8FolderIdINtNtCse2qo0L34Llq_4core7convert4FromReE4from
FN:56,_RNvXs3_NtCsgTXWXfwjzne_17intervals_icu_mcp8event_idNtB5_8FolderIdINtNtCse2qo0L34Llq_4core7convert4FromNtNtCsehV1Oe06VSW_5alloc6string6StringE4from
FN:62,_RNvXs4_NtCsgTXWXfwjzne_17intervals_icu_mcp8event_idNtB5_8FolderIdINtNtCse2qo0L34Llq_4core7convert4FromxE4from
FN:22,_RNvXs_NtCsgTXWXfwjzne_17intervals_icu_mcp8event_idNtB4_7EventIdINtNtCse2qo0L34Llq_4core7convert4FromReE4from
FN:114,_RNvNtNtCsgTXWXfwjzne_17intervals_icu_mcp8event_id5testss_19test_event_id_clone
FN:121,_RNvNtNtCsgTXWXfwjzne_17intervals_icu_mcp8event_id5testss_19test_event_id_debug
FN:176,_RNvNtNtCsgTXWXfwjzne_17intervals_icu_mcp8event_id5testss_20test_folder_id_clone
FN:183,_RNvNtNtCsgTXWXfwjzne_17intervals_icu_mcp8event_id5testss_20test_folder_id_debug
FN:102,_RNvNtNtCsgTXWXfwjzne_17intervals_icu_mcp8event_id5testss_22test_event_id_from_str
FN:170,_RNvNtNtCsgTXWXfwjzne_17intervals_icu_mcp8event_id5testss_23test_folder_id_from_i64
FN:158,_RNvNtNtCsgTXWXfwjzne_17intervals_icu_mcp8event_id5testss_23test_folder_id_from_str
FN:88,_RNvNtNtCsgTXWXfwjzne_17intervals_icu_mcp8event_id5testss_24test_event_id_as_cow_int
FN:95,_RNvNtNtCsgTXWXfwjzne_17intervals_icu_mcp8event_id5testss_24test_event_id_as_cow_str
FN:108,_RNvNtNtCsgTXWXfwjzne_17intervals_icu_mcp8event_id5testss_25test_event_id_from_string
FN:76,_RNvNtNtCsgTXWXfwjzne_17intervals_icu_mcp8event_id5testss_25test_event_id_int_variant
FN:82,_RNvNtNtCsgTXWXfwjzne_17intervals_icu_mcp8event_id5testss_25test_event_id_str_variant
FN:144,_RNvNtNtCsgTXWXfwjzne_17intervals_icu_mcp8event_id5testss_25test_folder_id_as_cow_int
FN:151,_RNvNtNtCsgTXWXfwjzne_17intervals_icu_mcp8event_id5testss_25test_folder_id_as_cow_str
FN:164,_RNvNtNtCsgTXWXfwjzne_17intervals_icu_mcp8event_id5testss_26test_folder_id_from_string
FN:132,_RNvNtNtCsgTXWXfwjzne_17intervals_icu_mcp8event_id5testss_26test_folder_id_int_variant
FN:138,_RNvNtNtCsgTXWXfwjzne_17intervals_icu_mcp8event_id5testss_26test_folder_id_str_variant
FN:194,_RNvNtNtCsgTXWXfwjzne_17intervals_icu_mcp8event_id5testss_27test_event_id_serialize_int
FN:201,_RNvNtNtCsgTXWXfwjzne_17intervals_icu_mcp8event_id5testss_27test_event_id_serialize_str
FN:222,_RNvNtNtCsgTXWXfwjzne_17intervals_icu_mcp8event_id5testss_28test_folder_id_serialize_int
FN:229,_RNvNtNtCsgTXWXfwjzne_17intervals_icu_mcp8event_id5testss_28test_folder_id_serialize_str
FN:208,_RNvNtNtCsgTXWXfwjzne_17intervals_icu_mcp8event_id5testss_29test_event_id_deserialize_int
FN:215,_RNvNtNtCsgTXWXfwjzne_17intervals_icu_mcp8event_id5testss_29test_event_id_deserialize_str
FN:236,_RNvNtNtCsgTXWXfwjzne_17intervals_icu_mcp8event_id5testss_30test_folder_id_deserialize_int
FN:243,_RNvNtNtCsgTXWXfwjzne_17intervals_icu_mcp8event_id5testss_30test_folder_id_deserialize_str
FNDA:5,_RNvMNtCsgTXWXfwjzne_17intervals_icu_mcp8event_idNtB2_7EventId6as_cow
FNDA:4,_RNvMs1_NtCsgTXWXfwjzne_17intervals_icu_mcp8event_idNtB5_8FolderId6as_cow
FNDA:1,_RNvXs0_NtCsgTXWXfwjzne_17intervals_icu_mcp8event_idNtB5_7EventIdINtNtCse2qo0L34Llq_4core7convert4FromNtNtCsehV1Oe06VSW_5alloc6string6StringE4from
FNDA:1,_RNvXs2_NtCsgTXWXfwjzne_17intervals_icu_mcp8event_idNtB5_8FolderIdINtNtCse2qo0L34Llq_4core7convert4FromReE4from
FNDA:1,_RNvXs3_NtCsgTXWXfwjzne_17intervals_icu_mcp8event_idNtB5_8FolderIdINtNtCse2qo0L34Llq_4core7convert4FromNtNtCsehV1Oe06VSW_5alloc6string6StringE4from
FNDA:1,_RNvXs4_NtCsgTXWXfwjzne_17intervals_icu_mcp8event_idNtB5_8FolderIdINtNtCse2qo0L34Llq_4core7convert4FromxE4from
FNDA:1,_RNvXs_NtCsgTXWXfwjzne_17intervals_icu_mcp8event_idNtB4_7EventIdINtNtCse2qo0L34Llq_4core7convert4FromReE4from
FNDA:1,_RNvNtNtCsgTXWXfwjzne_17intervals_icu_mcp8event_id5testss_19test_event_id_clone
FNDA:1,_RNvNtNtCsgTXWXfwjzne_17intervals_icu_mcp8event_id5testss_19test_event_id_debug
FNDA:1,_RNvNtNtCsgTXWXfwjzne_17intervals_icu_mcp8event_id5testss_20test_folder_id_clone
FNDA:1,_RNvNtNtCsgTXWXfwjzne_17intervals_icu_mcp8event_id5testss_20test_folder_id_debug
FNDA:1,_RNvNtNtCsgTXWXfwjzne_17intervals_icu_mcp8event_id5testss_22test_event_id_from_str
FNDA:1,_RNvNtNtCsgTXWXfwjzne_17intervals_icu_mcp8event_id5testss_23test_folder_id_from_i64
FNDA:1,_RNvNtNtCsgTXWXfwjzne_17intervals_icu_mcp8event_id5testss_23test_folder_id_from_str
FNDA:1,_RNvNtNtCsgTXWXfwjzne_17intervals_icu_mcp8event_id5testss_24test_event_id_as_cow_int
FNDA:1,_RNvNtNtCsgTXWXfwjzne_17intervals_icu_mcp8event_id5testss_24test_event_id_as_cow_str
FNDA:1,_RNvNtNtCsgTXWXfwjzne_17intervals_icu_mcp8event_id5testss_25test_event_id_from_string
FNDA:1,_RNvNtNtCsgTXWXfwjzne_17intervals_icu_mcp8event_id5testss_25test_event_id_int_variant
FNDA:1,_RNvNtNtCsgTXWXfwjzne_17intervals_icu_mcp8event_id5testss_25test_event_id_str_variant
FNDA:1,_RNvNtNtCsgTXWXfwjzne_17intervals_icu_mcp8event_id5testss_25test_folder_id_as_cow_int
FNDA:1,_RNvNtNtCsgTXWXfwjzne_17intervals_icu_mcp8event_id5testss_25test_folder_id_as_cow_str
FNDA:1,_RNvNtNtCsgTXWXfwjzne_17intervals_icu_mcp8event_id5testss_26test_folder_id_from_string
FNDA:1,_RNvNtNtCsgTXWXfwjzne_17intervals_icu_mcp8event_id5testss_26test_folder_id_int_variant
FNDA:1,_RNvNtNtCsgTXWXfwjzne_17intervals_icu_mcp8event_id5testss_26test_folder_id_str_variant
FNDA:1,_RNvNtNtCsgTXWXfwjzne_17intervals_icu_mcp8event_id5testss_27test_event_id_serialize_int
FNDA:1,_RNvNtNtCsgTXWXfwjzne_17intervals_icu_mcp8event_id5testss_27test_event_id_serialize_str
FNDA:1,_RNvNtNtCsgTXWXfwjzne_17intervals_icu_mcp8event_id5testss_28test_folder_id_serialize_int
FNDA:1,_RNvNtNtCsgTXWXfwjzne_17intervals_icu_mcp8event_id5testss_28test_folder_id_serialize_str
FNDA:1,_RNvNtNtCsgTXWXfwjzne_17intervals_icu_mcp8event_id5testss_29test_event_id_deserialize_int
FNDA:1,_RNvNtNtCsgTXWXfwjzne_17intervals_icu_mcp8event_id5testss_29test_event_id_deserialize_str
FNDA:1,_RNvNtNtCsgTXWXfwjzne_17intervals_icu_mcp8event_id5testss_30test_folder_id_deserialize_int
FNDA:1,_RNvNtNtCsgTXWXfwjzne_17intervals_icu_mcp8event_id5testss_30test_folder_id_deserialize_str
FNF:32
FNH:32
DA:13,5
DA:14,5
DA:15,4
DA:16,1
DA:18,5
DA:22,1
DA:23,1
DA:24,1
DA:28,1
DA:29,1
DA:30,1
DA:41,4
DA:42,4
DA:43,1
DA:44,3
DA:46,4
DA:50,1
DA:51,1
DA:52,1
DA:56,1
DA:57,1
DA:58,1
DA:62,1
DA:63,1
DA:64,1
DA:76,1
DA:77,1
DA:78,1
DA:79,1
DA:82,1
DA:83,1
DA:84,1
DA:85,1
DA:88,1
DA:89,1
DA:90,1
DA:91,1
DA:92,1
DA:95,1
DA:96,1
DA:97,1
DA:98,1
DA:99,1
DA:102,1
DA:103,1
DA:104,1
DA:105,1
DA:108,1
DA:109,1
DA:110,1
DA:111,1
DA:114,1
DA:115,1
DA:116,1
DA:117,1
DA:118,1
DA:121,1
DA:122,1
DA:123,1
DA:124,1
DA:125,1
DA:132,1
DA:133,1
DA:134,1
DA:135,1
DA:138,1
DA:139,1
DA:140,1
DA:141,1
DA:144,1
DA:145,1
DA:146,1
DA:147,1
DA:148,1
DA:151,1
DA:152,1
DA:153,1
DA:154,1
DA:155,1
DA:158,1
DA:159,1
DA:160,1
DA:161,1
DA:164,1
DA:165,1
DA:166,1
DA:167,1
DA:170,1
DA:171,1
DA:172,1
DA:173,1
DA:176,1
DA:177,1
DA:178,1
DA:179,1
DA:180,1
DA:183,1
DA:184,1
DA:185,1
DA:186,1
DA:187,1
DA:194,1
DA:195,1
DA:196,1
DA:197,1
DA:198,1
DA:201,1
DA:202,1
DA:203,1
DA:204,1
DA:205,1
DA:208,1
DA:209,1
DA:210,1
DA:211,1
DA:212,1
DA:215,1
DA:216,1
DA:217,1
DA:218,1
DA:219,1
DA:222,1
DA:223,1
DA:224,1
DA:225,1
DA:226,1
DA:229,1
DA:230,1
DA:231,1
DA:232,1
DA:233,1
DA:236,1
DA:237,1
DA:238,1
DA:239,1
DA:240,1
DA:243,1
DA:244,1
DA:245,1
DA:246,1
DA:247,1
BRF:0
BRH:0
LF:141
LH:141
end_of_record
SF:/Users/solovey/Documents/dev/rusty_intervals_mcp/crates/intervals_icu_mcp/src/intents/error.rs
FN:103,_RNvMNtNtCsgTXWXfwjzne_17intervals_icu_mcp7intents5errorNtB2_13ErrorGuidance10rate_limit
FN:47,_RNvMNtNtCsgTXWXfwjzne_17intervals_icu_mcp7intents5errorNtB2_13ErrorGuidance12empty_period
FN:82,_RNvMNtNtCsgTXWXfwjzne_17intervals_icu_mcp7intents5errorNtB2_13ErrorGuidance12invalid_date
FN:33,_RNvMNtNtCsgTXWXfwjzne_17intervals_icu_mcp7intents5errorNtB2_13ErrorGuidance13missing_field
FN:96,_RNvMNtNtCsgTXWXfwjzne_17intervals_icu_mcp7intents5errorNtB2_13ErrorGuidance14multiple_found
FN:19,_RNvMNtNtCsgTXWXfwjzne_17intervals_icu_mcp7intents5errorNtB2_13ErrorGuidance14unknown_intent
FN:26,_RNvMNtNtCsgTXWXfwjzne_17intervals_icu_mcp7intents5errorNtB2_13ErrorGuidance16validation_error
FN:89,_RNvMNtNtCsgTXWXfwjzne_17intervals_icu_mcp7intents5errorNtB2_13ErrorGuidance18invalid_date_range
FN:54,_RNvMNtNtCsgTXWXfwjzne_17intervals_icu_mcp7intents5errorNtB2_13ErrorGuidance20idempotency_conflict
FN:75,_RNvMNtNtCsgTXWXfwjzne_17intervals_icu_mcp7intents5errorNtB2_13ErrorGuidance23nested_dict_not_allowed
FN:68,_RNvMNtNtCsgTXWXfwjzne_17intervals_icu_mcp7intents5errorNtB2_13ErrorGuidance28destructive_requires_dry_run
FN:12,_RNvMNtNtCsgTXWXfwjzne_17intervals_icu_mcp7intents5errorNtB2_13ErrorGuidance3new
FN:61,_RNvMNtNtCsgTXWXfwjzne_17intervals_icu_mcp7intents5errorNtB2_13ErrorGuidance9api_error
FN:40,_RNvMNtNtCsgTXWXfwjzne_17intervals_icu_mcp7intents5errorNtB2_13ErrorGuidance9not_found
FN:117,_RNvNtNtNtCsgTXWXfwjzne_17intervals_icu_mcp7intents5error5testss_23test_error_guidance_new
FN:293,_RNvNtNtNtCsgTXWXfwjzne_17intervals_icu_mcp7intents5error5testss_25test_error_guidance_clone
FN:184,_RNvNtNtNtCsgTXWXfwjzne_17intervals_icu_mcp7intents5error5testss_29test_error_guidance_api_error
FN:160,_RNvNtNtNtCsgTXWXfwjzne_17intervals_icu_mcp7intents5error5testss_29test_error_guidance_not_found
FN:235,_RNvNtNtNtCsgTXWXfwjzne_17intervals_icu_mcp7intents5error5testss_30test_error_guidance_rate_limit
FN:284,_RNvNtNtNtCsgTXWXfwjzne_17intervals_icu_mcp7intents5error5testss_32test_error_guidance_debug_format
FN:168,_RNvNtNtNtCsgTXWXfwjzne_17intervals_icu_mcp7intents5error5testss_32test_error_guidance_empty_period
FN:211,_RNvNtNtNtCsgTXWXfwjzne_17intervals_icu_mcp7intents5error5testss_32test_error_guidance_invalid_date
FN:152,_RNvNtNtNtCsgTXWXfwjzne_17intervals_icu_mcp7intents5error5testss_33test_error_guidance_missing_field
FN:227,_RNvNtNtNtCsgTXWXfwjzne_17intervals_icu_mcp7intents5error5testss_34test_error_guidance_multiple_found
FN:133,_RNvNtNtNtCsgTXWXfwjzne_17intervals_icu_mcp7intents5error5testss_34test_error_guidance_unknown_intent
FN:144,_RNvNtNtNtCsgTXWXfwjzne_17intervals_icu_mcp7intents5error5testss_36test_error_guidance_validation_error
FN:219,_RNvNtNtNtCsgTXWXfwjzne_17intervals_icu_mcp7intents5error5testss_38test_error_guidance_invalid_date_range
FN:176,_RNvNtNtNtCsgTXWXfwjzne_17intervals_icu_mcp7intents5error5testss_40test_error_guidance_idempotency_conflict
FN:203,_RNvNtNtNtCsgTXWXfwjzne_17intervals_icu_mcp7intents5error5testss_43test_error_guidance_nested_dict_not_allowed
FN:195,_RNvNtNtNtCsgTXWXfwjzne_17intervals_icu_mcp7intents5error5testss_48test_error_guidance_destructive_requires_dry_run
FN:125,_RNvNtNtNtCsgTXWXfwjzne_17intervals_icu_mcp7intents5error5testss_48test_error_guidance_new_without_suggested_intent
FN:243,_RNvNtNtNtCsgTXWXfwjzne_17intervals_icu_mcp7intents5error5testss_49test_error_guidance_rate_limit_different_duration
FN:258,_RNvNtNtNtCsgTXWXfwjzne_17intervals_icu_mcp7intents5error5testss_51test_error_guidance_serialize_with_suggested_intent
FN:275,_RNvNtNtNtCsgTXWXfwjzne_17intervals_icu_mcp7intents5error5testss_53test_error_guidance_deserialize_with_suggested_intent
FN:251,_RNvNtNtNtCsgTXWXfwjzne_17intervals_icu_mcp7intents5error5testss_54test_error_guidance_serialize_without_suggested_intent
FN:266,_RNvNtNtNtCsgTXWXfwjzne_17intervals_icu_mcp7intents5error5testss_56test_error_guidance_deserialize_without_suggested_intent
FNDA:2,_RNvMNtNtCsgTXWXfwjzne_17intervals_icu_mcp7intents5errorNtB2_13ErrorGuidance10rate_limit
FNDA:1,_RNvMNtNtCsgTXWXfwjzne_17intervals_icu_mcp7intents5errorNtB2_13ErrorGuidance12empty_period
FNDA:1,_RNvMNtNtCsgTXWXfwjzne_17intervals_icu_mcp7intents5errorNtB2_13ErrorGuidance12invalid_date
FNDA:3,_RNvMNtNtCsgTXWXfwjzne_17intervals_icu_mcp7intents5errorNtB2_13ErrorGuidance13missing_field
FNDA:1,_RNvMNtNtCsgTXWXfwjzne_17intervals_icu_mcp7intents5errorNtB2_13ErrorGuidance14multiple_found
FNDA:1,_RNvMNtNtCsgTXWXfwjzne_17intervals_icu_mcp7intents5errorNtB2_13ErrorGuidance14unknown_intent
FNDA:1,_RNvMNtNtCsgTXWXfwjzne_17intervals_icu_mcp7intents5errorNtB2_13ErrorGuidance16validation_error
FNDA:1,_RNvMNtNtCsgTXWXfwjzne_17intervals_icu_mcp7intents5errorNtB2_13ErrorGuidance18invalid_date_range
FNDA:1,_RNvMNtNtCsgTXWXfwjzne_17intervals_icu_mcp7intents5errorNtB2_13ErrorGuidance20idempotency_conflict
FNDA:3,_RNvMNtNtCsgTXWXfwjzne_17intervals_icu_mcp7intents5errorNtB2_13ErrorGuidance23nested_dict_not_allowed
FNDA:2,_RNvMNtNtCsgTXWXfwjzne_17intervals_icu_mcp7intents5errorNtB2_13ErrorGuidance28destructive_requires_dry_run
FNDA:25,_RNvMNtNtCsgTXWXfwjzne_17intervals_icu_mcp7intents5errorNtB2_13ErrorGuidance3new
FNDA:1,_RNvMNtNtCsgTXWXfwjzne_17intervals_icu_mcp7intents5errorNtB2_13ErrorGuidance9api_error
FNDA:1,_RNvMNtNtCsgTXWXfwjzne_17intervals_icu_mcp7intents5errorNtB2_13ErrorGuidance9not_found
FNDA:1,_RNvNtNtNtCsgTXWXfwjzne_17intervals_icu_mcp7intents5error5testss_23test_error_guidance_new
FNDA:1,_RNvNtNtNtCsgTXWXfwjzne_17intervals_icu_mcp7intents5error5testss_25test_error_guidance_clone
FNDA:1,_RNvNtNtNtCsgTXWXfwjzne_17intervals_icu_mcp7intents5error5testss_29test_error_guidance_api_error
FNDA:1,_RNvNtNtNtCsgTXWXfwjzne_17intervals_icu_mcp7intents5error5testss_29test_error_guidance_not_found
FNDA:1,_RNvNtNtNtCsgTXWXfwjzne_17intervals_icu_mcp7intents5error5testss_30test_error_guidance_rate_limit
FNDA:1,_RNvNtNtNtCsgTXWXfwjzne_17intervals_icu_mcp7intents5error5testss_32test_error_guidance_debug_format
FNDA:1,_RNvNtNtNtCsgTXWXfwjzne_17intervals_icu_mcp7intents5error5testss_32test_error_guidance_empty_period
FNDA:1,_RNvNtNtNtCsgTXWXfwjzne_17intervals_icu_mcp7intents5error5testss_32test_error_guidance_invalid_date
FNDA:1,_RNvNtNtNtCsgTXWXfwjzne_17intervals_icu_mcp7intents5error5testss_33test_error_guidance_missing_field
FNDA:1,_RNvNtNtNtCsgTXWXfwjzne_17intervals_icu_mcp7intents5error5testss_34test_error_guidance_multiple_found
FNDA:1,_RNvNtNtNtCsgTXWXfwjzne_17intervals_icu_mcp7intents5error5testss_34test_error_guidance_unknown_intent
FNDA:1,_RNvNtNtNtCsgTXWXfwjzne_17intervals_icu_mcp7intents5error5testss_36test_error_guidance_validation_error
FNDA:1,_RNvNtNtNtCsgTXWXfwjzne_17intervals_icu_mcp7intents5error5testss_38test_error_guidance_invalid_date_range
FNDA:1,_RNvNtNtNtCsgTXWXfwjzne_17intervals_icu_mcp7intents5error5testss_40test_error_guidance_idempotency_conflict
FNDA:1,_RNvNtNtNtCsgTXWXfwjzne_17intervals_icu_mcp7intents5error5testss_43test_error_guidance_nested_dict_not_allowed
FNDA:1,_RNvNtNtNtCsgTXWXfwjzne_17intervals_icu_mcp7intents5error5testss_48test_error_guidance_destructive_requires_dry_run
FNDA:1,_RNvNtNtNtCsgTXWXfwjzne_17intervals_icu_mcp7intents5error5testss_48test_error_guidance_new_without_suggested_intent
FNDA:1,_RNvNtNtNtCsgTXWXfwjzne_17intervals_icu_mcp7intents5error5testss_49test_error_guidance_rate_limit_different_duration
FNDA:1,_RNvNtNtNtCsgTXWXfwjzne_17intervals_icu_mcp7intents5error5testss_51test_error_guidance_serialize_with_suggested_intent
FNDA:1,_RNvNtNtNtCsgTXWXfwjzne_17intervals_icu_mcp7intents5error5testss_53test_error_guidance_deserialize_with_suggested_intent
FNDA:1,_RNvNtNtNtCsgTXWXfwjzne_17intervals_icu_mcp7intents5error5testss_54test_error_guidance_serialize_without_suggested_intent
FNDA:1,_RNvNtNtNtCsgTXWXfwjzne_17intervals_icu_mcp7intents5error5testss_56test_error_guidance_deserialize_without_suggested_intent
FNF:36
FNH:36
DA:12,25
DA:13,25
DA:14,25
DA:15,25
DA:16,25
DA:17,25
DA:18,25
DA:19,1
DA:20,1
DA:21,1
DA:22,1
DA:23,1
DA:25,1
DA:26,1
DA:27,1
DA:28,1
DA:29,1
DA:30,1
DA:32,1
DA:33,3
DA:34,3
DA:35,3
DA:36,3
DA:37,3
DA:39,3
DA:40,1
DA:41,1
DA:42,1
DA:43,1
DA:44,1
DA:46,1
DA:47,1
DA:48,1
DA:49,1
DA:50,1
DA:51,1
DA:53,1
DA:54,1
DA:55,1
DA:56,1
DA:57,1
DA:58,1
DA:60,1
DA:61,1
DA:62,1
DA:63,1
DA:64,1
DA:65,1
DA:67,1
DA:68,2
DA:69,2
DA:70,2
DA:71,2
DA:72,2
DA:74,2
DA:75,3
DA:76,3
DA:77,3
DA:78,3
DA:79,3
DA:81,3
DA:82,1
DA:83,1
DA:84,1
DA:85,1
DA:86,1
DA:88,1
DA:89,1
DA:90,1
DA:91,1
DA:92,1
DA:93,1
DA:95,1
DA:96,1
DA:97,1
DA:98,1
DA:99,1
DA:100,1
DA:102,1
DA:103,2
DA:104,2
DA:105,2
DA:106,2
DA:107,2
DA:109,2
DA:117,1
DA:118,1
DA:119,1
DA:120,1
DA:121,1
DA:122,1
DA:125,1
DA:126,1
DA:127,1
DA:128,1
DA:129,1
DA:130,1
DA:133,1
DA:134,1
DA:135,1
DA:136,1
DA:137,1
DA:139,1
DA:141,1
DA:144,1
DA:145,1
DA:146,1
DA:147,1
DA:148,1
DA:149,1
DA:152,1
DA:153,1
DA:154,1
DA:155,1
DA:156,1
DA:157,1
DA:160,1
DA:161,1
DA:162,1
DA:163,1
DA:164,1
DA:165,1
DA:168,1
DA:169,1
DA:170,1
DA:171,1
DA:172,1
DA:173,1
DA:176,1
DA:177,1
DA:178,1
DA:179,1
DA:180,1
DA:181,1
DA:184,1
DA:185,1
DA:186,1
DA:187,1
DA:191,1
DA:192,1
DA:195,1
DA:196,1
DA:197,1
DA:198,1
DA:199,1
DA:200,1
DA:203,1
DA:204,1
DA:205,1
DA:206,1
DA:207,1
DA:208,1
DA:211,1
DA:212,1
DA:213,1
DA:214,1
DA:215,1
DA:216,1
DA:219,1
DA:220,1
DA:221,1
DA:222,1
DA:223,1
DA:224,1
DA:227,1
DA:228,1
DA:229,1
DA:230,1
DA:231,1
DA:232,1
DA:235,1
DA:236,1
DA:237,1
DA:238,1
DA:239,1
DA:240,1
DA:243,1
DA:244,1
DA:245,1
DA:246,1
DA:247,1
DA:248,1
DA:251,1
DA:252,1
DA:253,1
DA:254,1
DA:255,1
DA:258,1
DA:259,1
DA:260,1
DA:261,1
DA:262,1
DA:263,1
DA:266,1
DA:267,1
DA:268,1
DA:269,1
DA:270,1
DA:271,1
DA:272,1
DA:275,1
DA:276,1
DA:277,1
DA:278,1
DA:279,1
DA:280,1
DA:281,1
DA:284,1
DA:285,1
DA:286,1
DA:287,1
DA:288,1
DA:289,1
DA:290,1
DA:293,1
DA:294,1
DA:295,1
DA:296,1
DA:297,1
DA:298,1
DA:299,1
BRF:0
BRH:0
LF:221
LH:221
end_of_record
SF:/Users/solovey/Documents/dev/rusty_intervals_mcp/crates/intervals_icu_mcp/src/intents/handlers/analyze_race.rs
FN:447,_RNvXs0_NtNtNtCsgTXWXfwjzne_17intervals_icu_mcp7intents8handlers12analyze_raceNtB5_18AnalyzeRaceHandlerNtNtCse2qo0L34Llq_4core7default7Default7default
FN:534,_RNvNtNtNtNtCsgTXWXfwjzne_17intervals_icu_mcp7intents8handlers12analyze_race5testss_16test_date_values
FN:474,_RNvNtNtNtNtCsgTXWXfwjzne_17intervals_icu_mcp7intents8handlers12analyze_race5testss_16test_description
FN:457,_RNvNtNtNtNtCsgTXWXfwjzne_17intervals_icu_mcp7intents8handlers12analyze_race5testss_16test_new_handler
FN:509,_RNvNtNtNtNtCsgTXWXfwjzne_17intervals_icu_mcp7intents8handlers12analyze_race5testss_19test_default_values
FN:463,_RNvNtNtNtNtCsgTXWXfwjzne_17intervals_icu_mcp7intents8handlers12analyze_race5testss_20test_default_handler
FN:634,_RNvNtNtNtNtCsgTXWXfwjzne_17intervals_icu_mcp7intents8handlers12analyze_race5testss_22test_content_structure
FN:575,_RNvNtNtNtNtCsgTXWXfwjzne_17intervals_icu_mcp7intents8handlers12analyze_race5testss_22test_race_search_logic
FN:544,_RNvNtNtNtNtCsgTXWXfwjzne_17intervals_icu_mcp7intents8handlers12analyze_race5testss_23test_description_filter
FN:526,_RNvNtNtNtNtCsgTXWXfwjzne_17intervals_icu_mcp7intents8handlers12analyze_race5testss_25test_analysis_type_values
FN:619,_RNvNtNtNtNtCsgTXWXfwjzne_17intervals_icu_mcp7intents8handlers12analyze_race5testss_27test_empty_results_handling
FN:483,_RNvNtNtNtNtCsgTXWXfwjzne_17intervals_icu_mcp7intents8handlers12analyze_race5testss_27test_input_schema_structure
FN:590,_RNvNtNtNtNtCsgTXWXfwjzne_17intervals_icu_mcp7intents8handlers12analyze_race5testss_29test_looks_like_race_keywords
FN:659,_RNvNtNtNtNtCsgTXWXfwjzne_17intervals_icu_mcp7intents8handlers12analyze_race5testss_31test_recovery_period_after_race
FN:503,_RNvNtNtNtNtCsgTXWXfwjzne_17intervals_icu_mcp7intents8handlers12analyze_race5testss_31test_requires_idempotency_token
FN:646,_RNvNtNtNtNtCsgTXWXfwjzne_17intervals_icu_mcp7intents8handlers12analyze_race5testss_35test_next_actions_for_race_analysis
FN:568,_RNvNtNtNtNtCsgTXWXfwjzne_17intervals_icu_mcp7intents8handlers12analyze_race5testss_46test_parse_requested_date_supports_today_alias
FN:554,_RNvNtNtNtNtCsgTXWXfwjzne_17intervals_icu_mcp7intents8handlers12analyze_race5testss_51test_target_date_alias_falls_back_when_date_missing
FN:468,_RNvNtNtNtNtCsgTXWXfwjzne_17intervals_icu_mcp7intents8handlers12analyze_race5testss_9test_name
FN:43,_RNvMNtNtNtCsgTXWXfwjzne_17intervals_icu_mcp7intents8handlers12analyze_raceNtB2_18AnalyzeRaceHandler15looks_like_race
FN:33,_RNvMNtNtNtCsgTXWXfwjzne_17intervals_icu_mcp7intents8handlers12analyze_raceNtB2_18AnalyzeRaceHandler19parse_activity_date
FN:24,_RNvMNtNtNtCsgTXWXfwjzne_17intervals_icu_mcp7intents8handlers12analyze_raceNtB2_18AnalyzeRaceHandler20parse_requested_date
FN:20,_RNvMNtNtNtCsgTXWXfwjzne_17intervals_icu_mcp7intents8handlers12analyze_raceNtB2_18AnalyzeRaceHandler3new
FN:74,_RNvMs_NtNtNtCsgTXWXfwjzne_17intervals_icu_mcp7intents8handlers12analyze_raceNtB4_16RaceAnalysisMode5parse
FN:89,_RNvXs8_NtNtNtCsgTXWXfwjzne_17intervals_icu_mcp7intents8handlers12analyze_raceNtB5_18AnalyzeRaceHandlerNtNtB9_5types13IntentHandler11description
FN:94,_RNvXs8_NtNtNtCsgTXWXfwjzne_17intervals_icu_mcp7intents8handlers12analyze_raceNtB5_18AnalyzeRaceHandlerNtNtB9_5types13IntentHandler12input_schema
FN:441,_RNvXs8_NtNtNtCsgTXWXfwjzne_17intervals_icu_mcp7intents8handlers12analyze_raceNtB5_18AnalyzeRaceHandlerNtNtB9_5types13IntentHandler26requires_idempotency_token
FN:85,_RNvXs8_NtNtNtCsgTXWXfwjzne_17intervals_icu_mcp7intents8handlers12analyze_raceNtB5_18AnalyzeRaceHandlerNtNtB9_5types13IntentHandler4name
FN:112,_RNvXs8_NtNtNtCsgTXWXfwjzne_17intervals_icu_mcp7intents8handlers12analyze_raceNtB5_18AnalyzeRaceHandlerNtNtB9_5types13IntentHandler7execute
FN:145,_RNCNCNCNCNvXs8_NtNtNtCsgTXWXfwjzne_17intervals_icu_mcp7intents8handlers12analyze_raceNtBd_18AnalyzeRaceHandlerNtNtBh_5types13IntentHandler7execute0s2_000Bj_
FN:141,_RNCNCNCNvXs8_NtNtNtCsgTXWXfwjzne_17intervals_icu_mcp7intents8handlers12analyze_raceNtBb_18AnalyzeRaceHandlerNtNtBf_5types13IntentHandler7execute0s2_00Bh_
FN:376,_RNCNCNCNvXs8_NtNtNtCsgTXWXfwjzne_17intervals_icu_mcp7intents8handlers12analyze_raceNtBb_18AnalyzeRaceHandlerNtNtBf_5types13IntentHandler7execute0se_00Bh_
FN:383,_RNCNCNCNvXs8_NtNtNtCsgTXWXfwjzne_17intervals_icu_mcp7intents8handlers12analyze_raceNtBb_18AnalyzeRaceHandlerNtNtBf_5types13IntentHandler7execute0sf_00Bh_
FN:39,_RNCNCNvMNtNtNtCsgTXWXfwjzne_17intervals_icu_mcp7intents8handlers12analyze_raceNtB6_18AnalyzeRaceHandler19parse_activity_date00Bc_
FN:116,_RNCNCNvXs8_NtNtNtCsgTXWXfwjzne_17intervals_icu_mcp7intents8handlers12analyze_raceNtB9_18AnalyzeRaceHandlerNtNtBd_5types13IntentHandler7execute00Bf_
FN:134,_RNCNCNvXs8_NtNtNtCsgTXWXfwjzne_17intervals_icu_mcp7intents8handlers12analyze_raceNtB9_18AnalyzeRaceHandlerNtNtBd_5types13IntentHandler7execute0s0_0Bf_
FN:135,_RNCNCNvXs8_NtNtNtCsgTXWXfwjzne_17intervals_icu_mcp7intents8handlers12analyze_raceNtB9_18AnalyzeRaceHandlerNtNtBd_5types13IntentHandler7execute0s1_0Bf_
FN:138,_RNCNCNvXs8_NtNtNtCsgTXWXfwjzne_17intervals_icu_mcp7intents8handlers12analyze_raceNtB9_18AnalyzeRaceHandlerNtNtBd_5types13IntentHandler7execute0s2_0Bf_
FN:157,_RNCNCNvXs8_NtNtNtCsgTXWXfwjzne_17intervals_icu_mcp7intents8handlers12analyze_raceNtB9_18AnalyzeRaceHandlerNtNtBd_5types13IntentHandler7execute0s3_0Bf_
FN:158,_RNCNCNvXs8_NtNtNtCsgTXWXfwjzne_17intervals_icu_mcp7intents8handlers12analyze_raceNtB9_18AnalyzeRaceHandlerNtNtBd_5types13IntentHandler7execute0s4_0Bf_
FN:217,_RNCNCNvXs8_NtNtNtCsgTXWXfwjzne_17intervals_icu_mcp7intents8handlers12analyze_raceNtB9_18AnalyzeRaceHandlerNtNtBd_5types13IntentHandler7execute0s5_0Bf_
FN:226,_RNCNCNvXs8_NtNtNtCsgTXWXfwjzne_17intervals_icu_mcp7intents8handlers12analyze_raceNtB9_18AnalyzeRaceHandlerNtNtBd_5types13IntentHandler7execute0s6_0Bf_
FN:231,_RNCNCNvXs8_NtNtNtCsgTXWXfwjzne_17intervals_icu_mcp7intents8handlers12analyze_raceNtB9_18AnalyzeRaceHandlerNtNtBd_5types13IntentHandler7execute0s7_0Bf_
FN:245,_RNCNCNvXs8_NtNtNtCsgTXWXfwjzne_17intervals_icu_mcp7intents8handlers12analyze_raceNtB9_18AnalyzeRaceHandlerNtNtBd_5types13IntentHandler7execute0s9_0Bf_
FN:129,_RNCNCNvXs8_NtNtNtCsgTXWXfwjzne_17intervals_icu_mcp7intents8handlers12analyze_raceNtB9_18AnalyzeRaceHandlerNtNtBd_5types13IntentHandler7execute0s_0Bf_
FN:257,_RNCNCNvXs8_NtNtNtCsgTXWXfwjzne_17intervals_icu_mcp7intents8handlers12analyze_raceNtB9_18AnalyzeRaceHandlerNtNtBd_5types13IntentHandler7execute0sa_0Bf_
FN:274,_RNCNCNvXs8_NtNtNtCsgTXWXfwjzne_17intervals_icu_mcp7intents8handlers12analyze_raceNtB9_18AnalyzeRaceHandlerNtNtBd_5types13IntentHandler7execute0sb_0Bf_
FN:277,_RNCNCNvXs8_NtNtNtCsgTXWXfwjzne_17intervals_icu_mcp7intents8handlers12analyze_raceNtB9_18AnalyzeRaceHandlerNtNtBd_5types13IntentHandler7execute0sc_0Bf_
FN:283,_RNCNCNvXs8_NtNtNtCsgTXWXfwjzne_17intervals_icu_mcp7intents8handlers12analyze_raceNtB9_18AnalyzeRaceHandlerNtNtBd_5types13IntentHandler7execute0sd_0Bf_
FN:374,_RNCNCNvXs8_NtNtNtCsgTXWXfwjzne_17intervals_icu_mcp7intents8handlers12analyze_raceNtB9_18AnalyzeRaceHandlerNtNtBd_5types13IntentHandler7execute0se_0Bf_
FN:381,_RNCNCNvXs8_NtNtNtCsgTXWXfwjzne_17intervals_icu_mcp7intents8handlers12analyze_raceNtB9_18AnalyzeRaceHandlerNtNtBd_5types13IntentHandler7execute0sf_0Bf_
FN:408,_RNCNCNvXs8_NtNtNtCsgTXWXfwjzne_17intervals_icu_mcp7intents8handlers12analyze_raceNtB9_18AnalyzeRaceHandlerNtNtBd_5types13IntentHandler7execute0sg_0Bf_
FN:62,_RNCNvMNtNtNtCsgTXWXfwjzne_17intervals_icu_mcp7intents8handlers12analyze_raceNtB4_18AnalyzeRaceHandler15looks_like_race0Ba_
FN:36,_RNCNvMNtNtNtCsgTXWXfwjzne_17intervals_icu_mcp7intents8handlers12analyze_raceNtB4_18AnalyzeRaceHandler19parse_activity_date0Ba_
FN:30,_RNCNvMNtNtNtCsgTXWXfwjzne_17intervals_icu_mcp7intents8handlers12analyze_raceNtB4_18AnalyzeRaceHandler20parse_requested_date0Ba_
FN:514,_RNCNvNtNtNtNtCsgTXWXfwjzne_17intervals_icu_mcp7intents8handlers12analyze_race5testss_19test_default_values0Bb_
FN:518,_RNCNvNtNtNtNtCsgTXWXfwjzne_17intervals_icu_mcp7intents8handlers12analyze_race5testss_19test_default_valuess_0Bb_
FN:582,_RNCNvNtNtNtNtCsgTXWXfwjzne_17intervals_icu_mcp7intents8handlers12analyze_race5testss_22test_race_search_logic0Bb_
FN:549,_RNCNvNtNtNtNtCsgTXWXfwjzne_17intervals_icu_mcp7intents8handlers12analyze_race5testss_23test_description_filter0Bb_
FN:562,_RNCNvNtNtNtNtCsgTXWXfwjzne_17intervals_icu_mcp7intents8handlers12analyze_race5testss_51test_target_date_alias_falls_back_when_date_missing0Bb_
FNDA:0,_RNvXs0_NtNtNtCsgTXWXfwjzne_17intervals_icu_mcp7intents8handlers12analyze_raceNtB5_18AnalyzeRaceHandlerNtNtCse2qo0L34Llq_4core7default7Default7default
FNDA:1,_RNvNtNtNtNtCsgTXWXfwjzne_17intervals_icu_mcp7intents8handlers12analyze_race5testss_16test_date_values
FNDA:1,_RNvNtNtNtNtCsgTXWXfwjzne_17intervals_icu_mcp7intents8handlers12analyze_race5testss_16test_description
FNDA:1,_RNvNtNtNtNtCsgTXWXfwjzne_17intervals_icu_mcp7intents8handlers12analyze_race5testss_16test_new_handler
FNDA:1,_RNvNtNtNtNtCsgTXWXfwjzne_17intervals_icu_mcp7intents8handlers12analyze_race5testss_19test_default_values
FNDA:1,_RNvNtNtNtNtCsgTXWXfwjzne_17intervals_icu_mcp7intents8handlers12analyze_race5testss_20test_default_handler
FNDA:1,_RNvNtNtNtNtCsgTXWXfwjzne_17intervals_icu_mcp7intents8handlers12analyze_race5testss_22test_content_structure
FNDA:1,_RNvNtNtNtNtCsgTXWXfwjzne_17intervals_icu_mcp7intents8handlers12analyze_race5testss_22test_race_search_logic
FNDA:1,_RNvNtNtNtNtCsgTXWXfwjzne_17intervals_icu_mcp7intents8handlers12analyze_race5testss_23test_description_filter
FNDA:1,_RNvNtNtNtNtCsgTXWXfwjzne_17intervals_icu_mcp7intents8handlers12analyze_race5testss_25test_analysis_type_values
FNDA:1,_RNvNtNtNtNtCsgTXWXfwjzne_17intervals_icu_mcp7intents8handlers12analyze_race5testss_27test_empty_results_handling
FNDA:1,_RNvNtNtNtNtCsgTXWXfwjzne_17intervals_icu_mcp7intents8handlers12analyze_race5testss_27test_input_schema_structure
FNDA:1,_RNvNtNtNtNtCsgTXWXfwjzne_17intervals_icu_mcp7intents8handlers12analyze_race5testss_29test_looks_like_race_keywords
FNDA:1,_RNvNtNtNtNtCsgTXWXfwjzne_17intervals_icu_mcp7intents8handlers12analyze_race5testss_31test_recovery_period_after_race
FNDA:1,_RNvNtNtNtNtCsgTXWXfwjzne_17intervals_icu_mcp7intents8handlers12analyze_race5testss_31test_requires_idempotency_token
FNDA:1,_RNvNtNtNtNtCsgTXWXfwjzne_17intervals_icu_mcp7intents8handlers12analyze_race5testss_35test_next_actions_for_race_analysis
FNDA:1,_RNvNtNtNtNtCsgTXWXfwjzne_17intervals_icu_mcp7intents8handlers12analyze_race5testss_46test_parse_requested_date_supports_today_alias
FNDA:1,_RNvNtNtNtNtCsgTXWXfwjzne_17intervals_icu_mcp7intents8handlers12analyze_race5testss_51test_target_date_alias_falls_back_when_date_missing
FNDA:1,_RNvNtNtNtNtCsgTXWXfwjzne_17intervals_icu_mcp7intents8handlers12analyze_race5testss_9test_name
FNDA:16,_RNvMNtNtNtCsgTXWXfwjzne_17intervals_icu_mcp7intents8handlers12analyze_raceNtB2_18AnalyzeRaceHandler15looks_like_race
FNDA:0,_RNvMNtNtNtCsgTXWXfwjzne_17intervals_icu_mcp7intents8handlers12analyze_raceNtB2_18AnalyzeRaceHandler19parse_activity_date
FNDA:1,_RNvMNtNtNtCsgTXWXfwjzne_17intervals_icu_mcp7intents8handlers12analyze_raceNtB2_18AnalyzeRaceHandler20parse_requested_date
FNDA:21,_RNvMNtNtNtCsgTXWXfwjzne_17intervals_icu_mcp7intents8handlers12analyze_raceNtB2_18AnalyzeRaceHandler3new
FNDA:0,_RNvMs_NtNtNtCsgTXWXfwjzne_17intervals_icu_mcp7intents8handlers12analyze_raceNtB4_16RaceAnalysisMode5parse
FNDA:9,_RNvXs8_NtNtNtCsgTXWXfwjzne_17intervals_icu_mcp7intents8handlers12analyze_raceNtB5_18AnalyzeRaceHandlerNtNtB9_5types13IntentHandler11description
FNDA:9,_RNvXs8_NtNtNtCsgTXWXfwjzne_17intervals_icu_mcp7intents8handlers12analyze_raceNtB5_18AnalyzeRaceHandlerNtNtB9_5types13IntentHandler12input_schema
FNDA:1,_RNvXs8_NtNtNtCsgTXWXfwjzne_17intervals_icu_mcp7intents8handlers12analyze_raceNtB5_18AnalyzeRaceHandlerNtNtB9_5types13IntentHandler26requires_idempotency_token
FNDA:25,_RNvXs8_NtNtNtCsgTXWXfwjzne_17intervals_icu_mcp7intents8handlers12analyze_raceNtB5_18AnalyzeRaceHandlerNtNtB9_5types13IntentHandler4name
FNDA:0,_RNvXs8_NtNtNtCsgTXWXfwjzne_17intervals_icu_mcp7intents8handlers12analyze_raceNtB5_18AnalyzeRaceHandlerNtNtB9_5types13IntentHandler7execute
FNDA:0,_RNCNCNCNCNvXs8_NtNtNtCsgTXWXfwjzne_17intervals_icu_mcp7intents8handlers12analyze_raceNtBd_18AnalyzeRaceHandlerNtNtBh_5types13IntentHandler7execute0s2_000Bj_
FNDA:0,_RNCNCNCNvXs8_NtNtNtCsgTXWXfwjzne_17intervals_icu_mcp7intents8handlers12analyze_raceNtBb_18AnalyzeRaceHandlerNtNtBf_5types13IntentHandler7execute0s2_00Bh_
FNDA:0,_RNCNCNCNvXs8_NtNtNtCsgTXWXfwjzne_17intervals_icu_mcp7intents8handlers12analyze_raceNtBb_18AnalyzeRaceHandlerNtNtBf_5types13IntentHandler7execute0se_00Bh_
FNDA:0,_RNCNCNCNvXs8_NtNtNtCsgTXWXfwjzne_17intervals_icu_mcp7intents8handlers12analyze_raceNtBb_18AnalyzeRaceHandlerNtNtBf_5types13IntentHandler7execute0sf_00Bh_
FNDA:0,_RNCNCNvMNtNtNtCsgTXWXfwjzne_17intervals_icu_mcp7intents8handlers12analyze_raceNtB6_18AnalyzeRaceHandler19parse_activity_date00Bc_
FNDA:0,_RNCNCNvXs8_NtNtNtCsgTXWXfwjzne_17intervals_icu_mcp7intents8handlers12analyze_raceNtB9_18AnalyzeRaceHandlerNtNtBd_5types13IntentHandler7execute00Bf_
FNDA:0,_RNCNCNvXs8_NtNtNtCsgTXWXfwjzne_17intervals_icu_mcp7intents8handlers12analyze_raceNtB9_18AnalyzeRaceHandlerNtNtBd_5types13IntentHandler7execute0s0_0Bf_
FNDA:0,_RNCNCNvXs8_NtNtNtCsgTXWXfwjzne_17intervals_icu_mcp7intents8handlers12analyze_raceNtB9_18AnalyzeRaceHandlerNtNtBd_5types13IntentHandler7execute0s1_0Bf_
FNDA:0,_RNCNCNvXs8_NtNtNtCsgTXWXfwjzne_17intervals_icu_mcp7intents8handlers12analyze_raceNtB9_18AnalyzeRaceHandlerNtNtBd_5types13IntentHandler7execute0s2_0Bf_
FNDA:0,_RNCNCNvXs8_NtNtNtCsgTXWXfwjzne_17intervals_icu_mcp7intents8handlers12analyze_raceNtB9_18AnalyzeRaceHandlerNtNtBd_5types13IntentHandler7execute0s3_0Bf_
FNDA:0,_RNCNCNvXs8_NtNtNtCsgTXWXfwjzne_17intervals_icu_mcp7intents8handlers12analyze_raceNtB9_18AnalyzeRaceHandlerNtNtBd_5types13IntentHandler7execute0s4_0Bf_
FNDA:0,_RNCNCNvXs8_NtNtNtCsgTXWXfwjzne_17intervals_icu_mcp7intents8handlers12analyze_raceNtB9_18AnalyzeRaceHandlerNtNtBd_5types13IntentHandler7execute0s5_0Bf_
FNDA:0,_RNCNCNvXs8_NtNtNtCsgTXWXfwjzne_17intervals_icu_mcp7intents8handlers12analyze_raceNtB9_18AnalyzeRaceHandlerNtNtBd_5types13IntentHandler7execute0s6_0Bf_
FNDA:0,_RNCNCNvXs8_NtNtNtCsgTXWXfwjzne_17intervals_icu_mcp7intents8handlers12analyze_raceNtB9_18AnalyzeRaceHandlerNtNtBd_5types13IntentHandler7execute0s7_0Bf_
FNDA:0,_RNCNCNvXs8_NtNtNtCsgTXWXfwjzne_17intervals_icu_mcp7intents8handlers12analyze_raceNtB9_18AnalyzeRaceHandlerNtNtBd_5types13IntentHandler7execute0s9_0Bf_
FNDA:0,_RNCNCNvXs8_NtNtNtCsgTXWXfwjzne_17intervals_icu_mcp7intents8handlers12analyze_raceNtB9_18AnalyzeRaceHandlerNtNtBd_5types13IntentHandler7execute0s_0Bf_
FNDA:0,_RNCNCNvXs8_NtNtNtCsgTXWXfwjzne_17intervals_icu_mcp7intents8handlers12analyze_raceNtB9_18AnalyzeRaceHandlerNtNtBd_5types13IntentHandler7execute0sa_0Bf_
FNDA:0,_RNCNCNvXs8_NtNtNtCsgTXWXfwjzne_17intervals_icu_mcp7intents8handlers12analyze_raceNtB9_18AnalyzeRaceHandlerNtNtBd_5types13IntentHandler7execute0sb_0Bf_
FNDA:0,_RNCNCNvXs8_NtNtNtCsgTXWXfwjzne_17intervals_icu_mcp7intents8handlers12analyze_raceNtB9_18AnalyzeRaceHandlerNtNtBd_5types13IntentHandler7execute0sc_0Bf_
FNDA:0,_RNCNCNvXs8_NtNtNtCsgTXWXfwjzne_17intervals_icu_mcp7intents8handlers12analyze_raceNtB9_18AnalyzeRaceHandlerNtNtBd_5types13IntentHandler7execute0sd_0Bf_
FNDA:0,_RNCNCNvXs8_NtNtNtCsgTXWXfwjzne_17intervals_icu_mcp7intents8handlers12analyze_raceNtB9_18AnalyzeRaceHandlerNtNtBd_5types13IntentHandler7execute0se_0Bf_
FNDA:0,_RNCNCNvXs8_NtNtNtCsgTXWXfwjzne_17intervals_icu_mcp7intents8handlers12analyze_raceNtB9_18AnalyzeRaceHandlerNtNtBd_5types13IntentHandler7execute0sf_0Bf_
FNDA:0,_RNCNCNvXs8_NtNtNtCsgTXWXfwjzne_17intervals_icu_mcp7intents8handlers12analyze_raceNtB9_18AnalyzeRaceHandlerNtNtBd_5types13IntentHandler7execute0sg_0Bf_
FNDA:103,_RNCNvMNtNtNtCsgTXWXfwjzne_17intervals_icu_mcp7intents8handlers12analyze_raceNtB4_18AnalyzeRaceHandler15looks_like_race0Ba_
FNDA:0,_RNCNvMNtNtNtCsgTXWXfwjzne_17intervals_icu_mcp7intents8handlers12analyze_raceNtB4_18AnalyzeRaceHandler19parse_activity_date0Ba_
FNDA:0,_RNCNvMNtNtNtCsgTXWXfwjzne_17intervals_icu_mcp7intents8handlers12analyze_raceNtB4_18AnalyzeRaceHandler20parse_requested_date0Ba_
FNDA:0,_RNCNvNtNtNtNtCsgTXWXfwjzne_17intervals_icu_mcp7intents8handlers12analyze_race5testss_19test_default_values0Bb_
FNDA:0,_RNCNvNtNtNtNtCsgTXWXfwjzne_17intervals_icu_mcp7intents8handlers12analyze_race5testss_19test_default_valuess_0Bb_
FNDA:4,_RNCNvNtNtNtNtCsgTXWXfwjzne_17intervals_icu_mcp7intents8handlers12analyze_race5testss_22test_race_search_logic0Bb_
FNDA:1,_RNCNvNtNtNtNtCsgTXWXfwjzne_17intervals_icu_mcp7intents8handlers12analyze_race5testss_23test_description_filter0Bb_
FNDA:1,_RNCNvNtNtNtNtCsgTXWXfwjzne_17intervals_icu_mcp7intents8handlers12analyze_race5testss_51test_target_date_alias_falls_back_when_date_missing0Bb_
FNF:60
FNH:29
DA:20,21
DA:21,21
DA:22,21
DA:24,1
DA:25,1
DA:26,1
DA:27,0
DA:29,0
DA:30,0
DA:31,1
DA:33,0
DA:34,0
DA:35,0
DA:36,0
DA:37,0
DA:38,0
DA:39,0
DA:40,0
DA:41,0
DA:43,16
DA:44,16
DA:45,1
DA:47,15
DA:48,15
DA:49,15
DA:50,15
DA:51,15
DA:52,15
DA:53,15
DA:54,15
DA:55,15
DA:56,15
DA:57,15
DA:58,15
DA:59,15
DA:60,15
DA:61,15
DA:62,103
DA:63,16
DA:74,0
DA:75,0
DA:76,0
DA:77,0
DA:78,0
DA:80,0
DA:85,25
DA:86,25
DA:87,25
DA:89,9
DA:90,9
DA:91,9
DA:92,9
DA:94,9
DA:95,9
DA:96,9
DA:97,9
DA:98,9
DA:99,9
DA:100,9
DA:101,9
DA:102,9
DA:105,9
DA:112,0
DA:116,0
DA:129,0
DA:134,0
DA:135,0
DA:138,0
DA:139,0
DA:140,0
DA:141,0
DA:142,0
DA:143,0
DA:144,0
DA:145,0
DA:146,0
DA:147,0
DA:148,0
DA:149,0
DA:157,0
DA:158,0
DA:217,0
DA:226,0
DA:231,0
DA:245,0
DA:246,0
DA:247,0
DA:249,0
DA:251,0
DA:257,0
DA:274,0
DA:277,0
DA:283,0
DA:374,0
DA:375,0
DA:376,0
DA:377,0
DA:378,0
DA:381,0
DA:382,0
DA:383,0
DA:384,0
DA:385,0
DA:386,0
DA:408,0
DA:439,0
DA:441,1
DA:442,1
DA:443,1
DA:447,0
DA:448,0
DA:449,0
DA:457,1
DA:458,1
DA:459,1
DA:460,1
DA:463,1
DA:464,1
DA:465,1
DA:468,1
DA:469,1
DA:470,1
DA:471,1
DA:474,1
DA:475,1
DA:476,1
DA:477,1
DA:478,1
DA:479,1
DA:480,1
DA:483,1
DA:484,1
DA:485,1
DA:487,1
DA:488,1
DA:489,1
DA:490,1
DA:491,1
DA:492,1
DA:495,1
DA:496,1
DA:497,1
DA:498,1
DA:499,1
DA:500,1
DA:503,1
DA:504,1
DA:505,1
DA:506,1
DA:509,1
DA:510,1
DA:512,1
DA:513,1
DA:514,1
DA:515,1
DA:516,1
DA:517,1
DA:518,1
DA:519,1
DA:521,1
DA:522,1
DA:523,1
DA:526,1
DA:527,1
DA:528,3
DA:529,3
DA:531,1
DA:534,1
DA:536,1
DA:537,2
DA:539,2
DA:541,1
DA:544,1
DA:545,1
DA:546,1
DA:549,1
DA:550,1
DA:551,1
DA:554,1
DA:555,1
DA:556,1
DA:559,1
DA:560,1
DA:561,1
DA:562,1
DA:564,1
DA:565,1
DA:568,1
DA:569,1
DA:571,1
DA:572,1
DA:575,1
DA:577,1
DA:578,1
DA:580,1
DA:581,1
DA:582,4
DA:583,1
DA:585,1
DA:586,1
DA:587,1
DA:590,1
DA:593,1
DA:594,1
DA:595,1
DA:596,1
DA:597,1
DA:598,1
DA:599,1
DA:600,1
DA:602,1
DA:603,1
DA:604,1
DA:605,1
DA:606,1
DA:607,1
DA:608,1
DA:610,1
DA:611,1
DA:612,1
DA:614,1
DA:615,1
DA:616,1
DA:619,1
DA:621,1
DA:623,1
DA:625,1
DA:626,1
DA:627,1
DA:628,1
DA:629,1
DA:630,0
DA:631,1
DA:634,1
DA:635,1
DA:638,1
DA:639,1
DA:641,1
DA:642,1
DA:643,1
DA:646,1
DA:648,1
DA:649,1
DA:650,1
DA:651,1
DA:653,1
DA:654,1
DA:655,1
DA:656,1
DA:659,1
DA:661,1
DA:662,1
DA:663,1
BRF:0
BRH:0
LF:266
LH:191
end_of_record
SF:/Users/solovey/Documents/dev/rusty_intervals_mcp/crates/intervals_icu_mcp/src/intents/handlers/analyze_training.rs
FN:1187,_RNvXs1_NtNtNtCsgTXWXfwjzne_17intervals_icu_mcp7intents8handlers16analyze_trainingNtB5_22AnalyzeTrainingHandlerNtNtCse2qo0L34Llq_4core7default7Default7default
FN:1225,_RNvNtNtNtNtCsgTXWXfwjzne_17intervals_icu_mcp7intents8handlers16analyze_training5testss_16test_description
FN:1204,_RNvNtNtNtNtCsgTXWXfwjzne_17intervals_icu_mcp7intents8handlers16analyze_training5testss_16test_new_handler
FN:1210,_RNvNtNtNtNtCsgTXWXfwjzne_17intervals_icu_mcp7intents8handlers16analyze_training5testss_20test_default_handler
FN:1685,_RNvNtNtNtNtCsgTXWXfwjzne_17intervals_icu_mcp7intents8handlers16analyze_training5testss_21test_calculate_median
FN:1360,_RNvNtNtNtNtCsgTXWXfwjzne_17intervals_icu_mcp7intents8handlers16analyze_training5testss_21test_handler_metadata
FN:1385,_RNvNtNtNtNtCsgTXWXfwjzne_17intervals_icu_mcp7intents8handlers16analyze_training5testss_23test_date_parsing_valid
FN:1429,_RNvNtNtNtNtCsgTXWXfwjzne_17intervals_icu_mcp7intents8handlers16analyze_training5testss_24test_content_block_types
FN:1315,_RNvNtNtNtNtCsgTXWXfwjzne_17intervals_icu_mcp7intents8handlers16analyze_training5testss_25test_analysis_type_values
FN:2811,_RNvNtNtNtNtCsgTXWXfwjzne_17intervals_icu_mcp7intents8handlers16analyze_training5testss_25test_analyze_period_basic
FN:1395,_RNvNtNtNtNtCsgTXWXfwjzne_17intervals_icu_mcp7intents8handlers16analyze_training5testss_25test_date_parsing_invalid
FN:1323,_RNvNtNtNtNtCsgTXWXfwjzne_17intervals_icu_mcp7intents8handlers16analyze_training5testss_26test_default_analysis_type
FN:1336,_RNvNtNtNtNtCsgTXWXfwjzne_17intervals_icu_mcp7intents8handlers16analyze_training5testss_26test_default_include_flags
FN:1299,_RNvNtNtNtNtCsgTXWXfwjzne_17intervals_icu_mcp7intents8handlers16analyze_training5testss_26test_validation_date_range
FN:1234,_RNvNtNtNtNtCsgTXWXfwjzne_17intervals_icu_mcp7intents8handlers16analyze_training5testss_27test_input_schema_structure
FN:2030,_RNvNtNtNtNtCsgTXWXfwjzne_17intervals_icu_mcp7intents8handlers16analyze_training5testss_27test_numeric_value_from_f64
FN:2037,_RNvNtNtNtNtCsgTXWXfwjzne_17intervals_icu_mcp7intents8handlers16analyze_training5testss_27test_numeric_value_from_i64
FN:1288,_RNvNtNtNtNtCsgTXWXfwjzne_17intervals_icu_mcp7intents8handlers16analyze_training5testss_27test_validation_date_format
FN:1409,_RNvNtNtNtNtCsgTXWXfwjzne_17intervals_icu_mcp7intents8handlers16analyze_training5testss_28test_period_days_calculation
FN:1449,_RNvNtNtNtNtCsgTXWXfwjzne_17intervals_icu_mcp7intents8handlers16analyze_training5testss_30test_date_error_message_format
FN:2044,_RNvNtNtNtNtCsgTXWXfwjzne_17intervals_icu_mcp7intents8handlers16analyze_training5testss_30test_numeric_value_missing_key
FN:2051,_RNvNtNtNtNtCsgTXWXfwjzne_17intervals_icu_mcp7intents8handlers16analyze_training5testss_30test_numeric_value_non_numeric
FN:2182,_RNvNtNtNtNtCsgTXWXfwjzne_17intervals_icu_mcp7intents8handlers16analyze_training5testss_31test_best_efforts_array_invalid
FN:1618,_RNvNtNtNtNtCsgTXWXfwjzne_17intervals_icu_mcp7intents8handlers16analyze_training5testss_31test_count_work_intervals_empty
FN:1998,_RNvNtNtNtNtCsgTXWXfwjzne_17intervals_icu_mcp7intents8handlers16analyze_training5testss_31test_interval_output_value_kind
FN:1260,_RNvNtNtNtNtCsgTXWXfwjzne_17intervals_icu_mcp7intents8handlers16analyze_training5testss_31test_requires_idempotency_token
FN:1417,_RNvNtNtNtNtCsgTXWXfwjzne_17intervals_icu_mcp7intents8handlers16analyze_training5testss_31test_weekly_average_calculation
FN:2776,_RNvNtNtNtNtCsgTXWXfwjzne_17intervals_icu_mcp7intents8handlers16analyze_training5testss_32test_analyze_single_invalid_date
FN:2794,_RNvNtNtNtNtCsgTXWXfwjzne_17intervals_icu_mcp7intents8handlers16analyze_training5testss_32test_analyze_single_missing_date
FN:2501,_RNvNtNtNtNtCsgTXWXfwjzne_17intervals_icu_mcp7intents8handlers16analyze_training5testss_32test_analyze_single_streams_mode
FN:2403,_RNvNtNtNtNtCsgTXWXfwjzne_17intervals_icu_mcp7intents8handlers16analyze_training5testss_32test_analyze_single_summary_mode
FN:3136,_RNvNtNtNtNtCsgTXWXfwjzne_17intervals_icu_mcp7intents8handlers16analyze_training5testss_32test_execute_invalid_target_type
FN:3155,_RNvNtNtNtNtCsgTXWXfwjzne_17intervals_icu_mcp7intents8handlers16analyze_training5testss_32test_execute_missing_target_type
FN:1873,_RNvNtNtNtNtCsgTXWXfwjzne_17intervals_icu_mcp7intents8handlers16analyze_training5testss_32test_parse_activity_date_invalid
FN:1790,_RNvNtNtNtNtCsgTXWXfwjzne_17intervals_icu_mcp7intents8handlers16analyze_training5testss_32test_single_analysis_mode_as_str
FN:2856,_RNvNtNtNtNtCsgTXWXfwjzne_17intervals_icu_mcp7intents8handlers16analyze_training5testss_33test_analyze_period_no_activities
FN:2433,_RNvNtNtNtNtCsgTXWXfwjzne_17intervals_icu_mcp7intents8handlers16analyze_training5testss_33test_analyze_single_detailed_mode
FN:1890,_RNvNtNtNtNtCsgTXWXfwjzne_17intervals_icu_mcp7intents8handlers16analyze_training5testss_33test_requested_metrics_with_array
FN:2469,_RNvNtNtNtNtCsgTXWXfwjzne_17intervals_icu_mcp7intents8handlers16analyze_training5testss_34test_analyze_single_intervals_mode
FN:1863,_RNvNtNtNtNtCsgTXWXfwjzne_17intervals_icu_mcp7intents8handlers16analyze_training5testss_34test_parse_activity_date_date_only
FN:1883,_RNvNtNtNtNtCsgTXWXfwjzne_17intervals_icu_mcp7intents8handlers16analyze_training5testss_34test_requested_metrics_empty_input
FN:2939,_RNvNtNtNtNtCsgTXWXfwjzne_17intervals_icu_mcp7intents8handlers16analyze_training5testss_35test_analyze_period_start_after_end
FN:2533,_RNvNtNtNtNtCsgTXWXfwjzne_17intervals_icu_mcp7intents8handlers16analyze_training5testss_35test_analyze_single_with_histograms
FN:1441,_RNvNtNtNtNtCsgTXWXfwjzne_17intervals_icu_mcp7intents8handlers16analyze_training5testss_35test_error_messages_contain_context
FN:1920,_RNvNtNtNtNtCsgTXWXfwjzne_17intervals_icu_mcp7intents8handlers16analyze_training5testss_35test_format_duration_hhmm_over_hour
FN:3171,_RNvNtNtNtNtCsgTXWXfwjzne_17intervals_icu_mcp7intents8handlers16analyze_training5testss_35test_schema_has_if_then_constraints
FN:1278,_RNvNtNtNtNtCsgTXWXfwjzne_17intervals_icu_mcp7intents8handlers16analyze_training5testss_35test_validation_invalid_target_type
FN:1270,_RNvNtNtNtNtCsgTXWXfwjzne_17intervals_icu_mcp7intents8handlers16analyze_training5testss_35test_validation_missing_target_type
FN:2924,_RNvNtNtNtNtCsgTXWXfwjzne_17intervals_icu_mcp7intents8handlers16analyze_training5testss_36test_analyze_period_invalid_end_date
FN:2158,_RNvNtNtNtNtCsgTXWXfwjzne_17intervals_icu_mcp7intents8handlers16analyze_training5testss_36test_best_efforts_array_direct_array
FN:1956,_RNvNtNtNtNtCsgTXWXfwjzne_17intervals_icu_mcp7intents8handlers16analyze_training5testss_36test_build_calendar_event_rows_empty
FN:1670,_RNvNtNtNtNtCsgTXWXfwjzne_17intervals_icu_mcp7intents8handlers16analyze_training5testss_36test_count_work_intervals_speed_only
FN:2219,_RNvNtNtNtNtCsgTXWXfwjzne_17intervals_icu_mcp7intents8handlers16analyze_training5testss_36test_format_best_effort_average_pace
FN:1912,_RNvNtNtNtNtCsgTXWXfwjzne_17intervals_icu_mcp7intents8handlers16analyze_training5testss_36test_format_duration_hhmm_under_hour
FN:2068,_RNvNtNtNtNtCsgTXWXfwjzne_17intervals_icu_mcp7intents8handlers16analyze_training5testss_36test_format_histogram_number_decimal
FN:2062,_RNvNtNtNtNtCsgTXWXfwjzne_17intervals_icu_mcp7intents8handlers16analyze_training5testss_36test_format_histogram_number_integer
FN:1704,_RNvNtNtNtNtCsgTXWXfwjzne_17intervals_icu_mcp7intents8handlers16analyze_training5testss_36test_key_phrase_extraction_with_dash
FN:2569,_RNvNtNtNtNtCsgTXWXfwjzne_17intervals_icu_mcp7intents8handlers16analyze_training5testss_37test_analyze_single_with_best_efforts
FN:2074,_RNvNtNtNtNtCsgTXWXfwjzne_17intervals_icu_mcp7intents8handlers16analyze_training5testss_37test_build_range_histogram_rows_empty
FN:2210,_RNvNtNtNtNtCsgTXWXfwjzne_17intervals_icu_mcp7intents8handlers16analyze_training5testss_37test_format_best_effort_average_power
FN:1734,_RNvNtNtNtNtCsgTXWXfwjzne_17intervals_icu_mcp7intents8handlers16analyze_training5testss_37test_key_phrase_extraction_empty_dash
FN:1720,_RNvNtNtNtNtCsgTXWXfwjzne_17intervals_icu_mcp7intents8handlers16analyze_training5testss_37test_key_phrase_extraction_with_colon
FN:2909,_RNvNtNtNtNtCsgTXWXfwjzne_17intervals_icu_mcp7intents8handlers16analyze_training5testss_38test_analyze_period_invalid_start_date
FN:2968,_RNvNtNtNtNtCsgTXWXfwjzne_17intervals_icu_mcp7intents8handlers16analyze_training5testss_38test_analyze_period_missing_period_end
FN:2174,_RNvNtNtNtNtCsgTXWXfwjzne_17intervals_icu_mcp7intents8handlers16analyze_training5testss_38test_best_efforts_array_nested_efforts
FN:2249,_RNvNtNtNtNtCsgTXWXfwjzne_17intervals_icu_mcp7intents8handlers16analyze_training5testss_38test_build_activity_message_rows_empty
FN:2096,_RNvNtNtNtNtCsgTXWXfwjzne_17intervals_icu_mcp7intents8handlers16analyze_training5testss_38test_build_bucket_histogram_rows_empty
FN:2204,_RNvNtNtNtNtCsgTXWXfwjzne_17intervals_icu_mcp7intents8handlers16analyze_training5testss_38test_format_best_effort_duration_hours
FN:2013,_RNvNtNtNtNtCsgTXWXfwjzne_17intervals_icu_mcp7intents8handlers16analyze_training5testss_38test_interval_output_value_format_pace
FN:1814,_RNvNtNtNtNtCsgTXWXfwjzne_17intervals_icu_mcp7intents8handlers16analyze_training5testss_38test_single_analysis_mode_show_methods
FN:2600,_RNvNtNtNtNtCsgTXWXfwjzne_17intervals_icu_mcp7intents8handlers16analyze_training5testss_39test_analyze_single_no_activities_found
FN:2126,_RNvNtNtNtNtCsgTXWXfwjzne_17intervals_icu_mcp7intents8handlers16analyze_training5testss_39test_build_zone_distribution_rows_empty
FN:2237,_RNvNtNtNtNtCsgTXWXfwjzne_17intervals_icu_mcp7intents8handlers16analyze_training5testss_39test_format_best_effort_average_no_data
FN:2007,_RNvNtNtNtNtCsgTXWXfwjzne_17intervals_icu_mcp7intents8handlers16analyze_training5testss_39test_interval_output_value_format_power
FN:1939,_RNvNtNtNtNtCsgTXWXfwjzne_17intervals_icu_mcp7intents8handlers16analyze_training5testss_39test_is_planned_workout_id_event_prefix
FN:1727,_RNvNtNtNtNtCsgTXWXfwjzne_17intervals_icu_mcp7intents8handlers16analyze_training5testss_39test_key_phrase_extraction_no_separator
FN:1741,_RNvNtNtNtNtCsgTXWXfwjzne_17intervals_icu_mcp7intents8handlers16analyze_training5testss_39test_key_phrase_extraction_unicode_dash
FN:1712,_RNvNtNtNtNtCsgTXWXfwjzne_17intervals_icu_mcp7intents8handlers16analyze_training5testss_39test_key_phrase_extraction_with_em_dash
FN:1853,_RNvNtNtNtNtCsgTXWXfwjzne_17intervals_icu_mcp7intents8handlers16analyze_training5testss_39test_parse_activity_date_with_timestamp
FN:1753,_RNvNtNtNtNtCsgTXWXfwjzne_17intervals_icu_mcp7intents8handlers16analyze_training5testss_39test_single_analysis_mode_parse_default
FN:1782,_RNvNtNtNtNtCsgTXWXfwjzne_17intervals_icu_mcp7intents8handlers16analyze_training5testss_39test_single_analysis_mode_parse_streams
FN:2954,_RNvNtNtNtNtCsgTXWXfwjzne_17intervals_icu_mcp7intents8handlers16analyze_training5testss_40test_analyze_period_missing_period_start
FN:2874,_RNvNtNtNtNtCsgTXWXfwjzne_17intervals_icu_mcp7intents8handlers16analyze_training5testss_40test_analyze_period_with_calendar_events
FN:1624,_RNvNtNtNtNtCsgTXWXfwjzne_17intervals_icu_mcp7intents8handlers16analyze_training5testss_40test_count_work_intervals_with_real_data
FN:1899,_RNvNtNtNtNtCsgTXWXfwjzne_17intervals_icu_mcp7intents8handlers16analyze_training5testss_40test_requested_metrics_non_string_values
FN:1766,_RNvNtNtNtNtCsgTXWXfwjzne_17intervals_icu_mcp7intents8handlers16analyze_training5testss_40test_single_analysis_mode_parse_detailed
FN:3074,_RNvNtNtNtNtCsgTXWXfwjzne_17intervals_icu_mcp7intents8handlers16analyze_training5testss_41test_analyze_period_analysis_type_streams
FN:2081,_RNvNtNtNtNtCsgTXWXfwjzne_17intervals_icu_mcp7intents8handlers16analyze_training5testss_41test_build_range_histogram_rows_with_data
FN:2228,_RNvNtNtNtNtCsgTXWXfwjzne_17intervals_icu_mcp7intents8handlers16analyze_training5testss_41test_format_best_effort_average_heartrate
FN:1927,_RNvNtNtNtNtCsgTXWXfwjzne_17intervals_icu_mcp7intents8handlers16analyze_training5testss_41test_format_duration_compact_matches_hhmm
FN:1806,_RNvNtNtNtNtCsgTXWXfwjzne_17intervals_icu_mcp7intents8handlers16analyze_training5testss_41test_single_analysis_mode_include_streams
FN:1774,_RNvNtNtNtNtCsgTXWXfwjzne_17intervals_icu_mcp7intents8handlers16analyze_training5testss_41test_single_analysis_mode_parse_intervals
FN:3037,_RNvNtNtNtNtCsgTXWXfwjzne_17intervals_icu_mcp7intents8handlers16analyze_training5testss_42test_analyze_period_with_requested_metrics
FN:2735,_RNvNtNtNtNtCsgTXWXfwjzne_17intervals_icu_mcp7intents8handlers16analyze_training5testss_42test_analyze_single_with_activity_messages
FN:2691,_RNvNtNtNtNtCsgTXWXfwjzne_17intervals_icu_mcp7intents8handlers16analyze_training5testss_42test_analyze_single_with_requested_metrics
FN:2103,_RNvNtNtNtNtCsgTXWXfwjzne_17intervals_icu_mcp7intents8handlers16analyze_training5testss_42test_build_bucket_histogram_rows_with_data
FN:1963,_RNvNtNtNtNtCsgTXWXfwjzne_17intervals_icu_mcp7intents8handlers16analyze_training5testss_42test_build_calendar_event_rows_with_events
FN:1655,_RNvNtNtNtNtCsgTXWXfwjzne_17intervals_icu_mcp7intents8handlers16analyze_training5testss_42test_count_work_intervals_clear_separation
FN:3108,_RNvNtNtNtNtCsgTXWXfwjzne_17intervals_icu_mcp7intents8handlers16analyze_training5testss_43test_analyze_period_analysis_type_intervals
FN:3004,_RNvNtNtNtNtCsgTXWXfwjzne_17intervals_icu_mcp7intents8handlers16analyze_training5testss_43test_analyze_period_with_description_filter
FN:2656,_RNvNtNtNtNtCsgTXWXfwjzne_17intervals_icu_mcp7intents8handlers16analyze_training5testss_43test_analyze_single_with_description_filter
FN:2166,_RNvNtNtNtNtCsgTXWXfwjzne_17intervals_icu_mcp7intents8handlers16analyze_training5testss_43test_best_efforts_array_nested_best_efforts
FN:2134,_RNvNtNtNtNtCsgTXWXfwjzne_17intervals_icu_mcp7intents8handlers16analyze_training5testss_43test_build_zone_distribution_rows_with_data
FN:1945,_RNvNtNtNtNtCsgTXWXfwjzne_17intervals_icu_mcp7intents8handlers16analyze_training5testss_43test_is_planned_workout_id_regular_activity
FN:1798,_RNvNtNtNtNtCsgTXWXfwjzne_17intervals_icu_mcp7intents8handlers16analyze_training5testss_43test_single_analysis_mode_include_intervals
FN:2982,_RNvNtNtNtNtCsgTXWXfwjzne_17intervals_icu_mcp7intents8handlers16analyze_training5testss_44test_analyze_period_with_histograms_rejected
FN:3209,_RNvNtNtNtNtCsgTXWXfwjzne_17intervals_icu_mcp7intents8handlers16analyze_training5testss_44test_execute_period_with_histograms_rejected
FN:2621,_RNvNtNtNtNtCsgTXWXfwjzne_17intervals_icu_mcp7intents8handlers16analyze_training5testss_45test_analyze_single_multiple_activities_found
FN:2191,_RNvNtNtNtNtCsgTXWXfwjzne_17intervals_icu_mcp7intents8handlers16analyze_training5testss_45test_format_best_effort_duration_seconds_only
FN:2256,_RNvNtNtNtNtCsgTXWXfwjzne_17intervals_icu_mcp7intents8handlers16analyze_training5testss_46test_build_activity_message_rows_with_messages
FN:2020,_RNvNtNtNtNtCsgTXWXfwjzne_17intervals_icu_mcp7intents8handlers16analyze_training5testss_46test_interval_output_value_format_invalid_pace
FN:2297,_RNvNtNtNtNtCsgTXWXfwjzne_17intervals_icu_mcp7intents8handlers16analyze_training5testss_48test_build_activity_message_rows_filters_deleted
FN:2197,_RNvNtNtNtNtCsgTXWXfwjzne_17intervals_icu_mcp7intents8handlers16analyze_training5testss_48test_format_best_effort_duration_minutes_seconds
FN:1508,_RNvNtNtNtNtCsgTXWXfwjzne_17intervals_icu_mcp7intents8handlers16analyze_training5testss_49build_interval_analysis_rows_formats_known_fields
FN:1590,_RNvNtNtNtNtCsgTXWXfwjzne_17intervals_icu_mcp7intents8handlers16analyze_training5testss_49build_period_summary_rows_formats_snapshot_values
FN:2118,_RNvNtNtNtNtCsgTXWXfwjzne_17intervals_icu_mcp7intents8handlers16analyze_training5testss_52test_build_bucket_histogram_rows_without_average_key
FN:2335,_RNvNtNtNtNtCsgTXWXfwjzne_17intervals_icu_mcp7intents8handlers16analyze_training5testss_54test_build_activity_message_rows_filters_empty_content
FN:2372,_RNvNtNtNtNtCsgTXWXfwjzne_17intervals_icu_mcp7intents8handlers16analyze_training5testss_55test_build_activity_message_rows_handles_missing_fields
FN:1486,_RNvNtNtNtNtCsgTXWXfwjzne_17intervals_icu_mcp7intents8handlers16analyze_training5testss_56build_basic_workout_metric_rows_formats_available_values
FN:1457,_RNvNtNtNtNtCsgTXWXfwjzne_17intervals_icu_mcp7intents8handlers16analyze_training5testss_57load_management_markdown_renders_acwr_and_monotony_values
FN:3231,_RNvNtNtNtNtCsgTXWXfwjzne_17intervals_icu_mcp7intents8handlers16analyze_training5testss_58test_schema_include_histograms_description_mentions_single
FN:1478,_RNvNtNtNtNtCsgTXWXfwjzne_17intervals_icu_mcp7intents8handlers16analyze_training5testss_60load_management_markdown_reports_when_history_is_unavailable
FN:1546,_RNvNtNtNtNtCsgTXWXfwjzne_17intervals_icu_mcp7intents8handlers16analyze_training5testss_62build_interval_analysis_rows_backfills_power_from_stream_slice
FN:1372,_RNvNtNtNtNtCsgTXWXfwjzne_17intervals_icu_mcp7intents8handlers16analyze_training5testss_63test_handler_description_mentions_comments_and_calendar_context
FN:1219,_RNvNtNtNtNtCsgTXWXfwjzne_17intervals_icu_mcp7intents8handlers16analyze_training5testss_9test_name
FN:2720,_RNCNCNCNCNvNtNtNtNtCsgTXWXfwjzne_17intervals_icu_mcp7intents8handlers16analyze_training5testss_42test_analyze_single_with_requested_metrics0000Bh_
FN:2723,_RNCNCNCNCNvNtNtNtNtCsgTXWXfwjzne_17intervals_icu_mcp7intents8handlers16analyze_training5testss_42test_analyze_single_with_requested_metrics00s_00Bh_
FN:2720,_RNCNCNCNvNtNtNtNtCsgTXWXfwjzne_17intervals_icu_mcp7intents8handlers16analyze_training5testss_42test_analyze_single_with_requested_metrics000Bf_
FN:2723,_RNCNCNCNvNtNtNtNtCsgTXWXfwjzne_17intervals_icu_mcp7intents8handlers16analyze_training5testss_42test_analyze_single_with_requested_metrics00s_0Bf_
FN:2714,_RNCNCNvNtNtNtNtCsgTXWXfwjzne_17intervals_icu_mcp7intents8handlers16analyze_training5testss_42test_analyze_single_with_requested_metrics00Bd_
FN:2811,_RNCNvNtNtNtNtCsgTXWXfwjzne_17intervals_icu_mcp7intents8handlers16analyze_training5testss_25test_analyze_period_basic0Bb_
FN:1330,_RNCNvNtNtNtNtCsgTXWXfwjzne_17intervals_icu_mcp7intents8handlers16analyze_training5testss_26test_default_analysis_type0Bb_
FN:1344,_RNCNvNtNtNtNtCsgTXWXfwjzne_17intervals_icu_mcp7intents8handlers16analyze_training5testss_26test_default_include_flags0Bb_
FN:1350,_RNCNvNtNtNtNtCsgTXWXfwjzne_17intervals_icu_mcp7intents8handlers16analyze_training5testss_26test_default_include_flagss_0Bb_
FN:2776,_RNCNvNtNtNtNtCsgTXWXfwjzne_17intervals_icu_mcp7intents8handlers16analyze_training5testss_32test_analyze_single_invalid_date0Bb_
FN:2794,_RNCNvNtNtNtNtCsgTXWXfwjzne_17intervals_icu_mcp7intents8handlers16analyze_training5testss_32test_analyze_single_missing_date0Bb_
FN:2501,_RNCNvNtNtNtNtCsgTXWXfwjzne_17intervals_icu_mcp7intents8handlers16analyze_training5testss_32test_analyze_single_streams_mode0Bb_
FN:2403,_RNCNvNtNtNtNtCsgTXWXfwjzne_17intervals_icu_mcp7intents8handlers16analyze_training5testss_32test_analyze_single_summary_mode0Bb_
FN:3136,_RNCNvNtNtNtNtCsgTXWXfwjzne_17intervals_icu_mcp7intents8handlers16analyze_training5testss_32test_execute_invalid_target_type0Bb_
FN:3155,_RNCNvNtNtNtNtCsgTXWXfwjzne_17intervals_icu_mcp7intents8handlers16analyze_training5testss_32test_execute_missing_target_type0Bb_
FN:2856,_RNCNvNtNtNtNtCsgTXWXfwjzne_17intervals_icu_mcp7intents8handlers16analyze_training5testss_33test_analyze_period_no_activities0Bb_
FN:2433,_RNCNvNtNtNtNtCsgTXWXfwjzne_17intervals_icu_mcp7intents8handlers16analyze_training5testss_33test_analyze_single_detailed_mode0Bb_
FN:2469,_RNCNvNtNtNtNtCsgTXWXfwjzne_17intervals_icu_mcp7intents8handlers16analyze_training5testss_34test_analyze_single_intervals_mode0Bb_
FN:2939,_RNCNvNtNtNtNtCsgTXWXfwjzne_17intervals_icu_mcp7intents8handlers16analyze_training5testss_35test_analyze_period_start_after_end0Bb_
FN:2533,_RNCNvNtNtNtNtCsgTXWXfwjzne_17intervals_icu_mcp7intents8handlers16analyze_training5testss_35test_analyze_single_with_histograms0Bb_
FN:3187,_RNCNvNtNtNtNtCsgTXWXfwjzne_17intervals_icu_mcp7intents8handlers16analyze_training5testss_35test_schema_has_if_then_constraints0Bb_
FN:3189,_RNCNvNtNtNtNtCsgTXWXfwjzne_17intervals_icu_mcp7intents8handlers16analyze_training5testss_35test_schema_has_if_then_constraintss0_0Bb_
FN:3202,_RNCNvNtNtNtNtCsgTXWXfwjzne_17intervals_icu_mcp7intents8handlers16analyze_training5testss_35test_schema_has_if_then_constraintss1_0Bb_
FN:3188,_RNCNvNtNtNtNtCsgTXWXfwjzne_17intervals_icu_mcp7intents8handlers16analyze_training5testss_35test_schema_has_if_then_constraintss_0Bb_
FN:1282,_RNCNvNtNtNtNtCsgTXWXfwjzne_17intervals_icu_mcp7intents8handlers16analyze_training5testss_35test_validation_invalid_target_type0Bb_
FN:2924,_RNCNvNtNtNtNtCsgTXWXfwjzne_17intervals_icu_mcp7intents8handlers16analyze_training5testss_36test_analyze_period_invalid_end_date0Bb_
FN:2569,_RNCNvNtNtNtNtCsgTXWXfwjzne_17intervals_icu_mcp7intents8handlers16analyze_training5testss_37test_analyze_single_with_best_efforts0Bb_
FN:2909,_RNCNvNtNtNtNtCsgTXWXfwjzne_17intervals_icu_mcp7intents8handlers16analyze_training5testss_38test_analyze_period_invalid_start_date0Bb_
FN:2968,_RNCNvNtNtNtNtCsgTXWXfwjzne_17intervals_icu_mcp7intents8handlers16analyze_training5testss_38test_analyze_period_missing_period_end0Bb_
FN:2600,_RNCNvNtNtNtNtCsgTXWXfwjzne_17intervals_icu_mcp7intents8handlers16analyze_training5testss_39test_analyze_single_no_activities_found0Bb_
FN:2954,_RNCNvNtNtNtNtCsgTXWXfwjzne_17intervals_icu_mcp7intents8handlers16analyze_training5testss_40test_analyze_period_missing_period_start0Bb_
FN:2874,_RNCNvNtNtNtNtCsgTXWXfwjzne_17intervals_icu_mcp7intents8handlers16analyze_training5testss_40test_analyze_period_with_calendar_events0Bb_
FN:3074,_RNCNvNtNtNtNtCsgTXWXfwjzne_17intervals_icu_mcp7intents8handlers16analyze_training5testss_41test_analyze_period_analysis_type_streams0Bb_
FN:3037,_RNCNvNtNtNtNtCsgTXWXfwjzne_17intervals_icu_mcp7intents8handlers16analyze_training5testss_42test_analyze_period_with_requested_metrics0Bb_
FN:2735,_RNCNvNtNtNtNtCsgTXWXfwjzne_17intervals_icu_mcp7intents8handlers16analyze_training5testss_42test_analyze_single_with_activity_messages0Bb_
FN:2691,_RNCNvNtNtNtNtCsgTXWXfwjzne_17intervals_icu_mcp7intents8handlers16analyze_training5testss_42test_analyze_single_with_requested_metrics0Bb_
FN:3108,_RNCNvNtNtNtNtCsgTXWXfwjzne_17intervals_icu_mcp7intents8handlers16analyze_training5testss_43test_analyze_period_analysis_type_intervals0Bb_
FN:3004,_RNCNvNtNtNtNtCsgTXWXfwjzne_17intervals_icu_mcp7intents8handlers16analyze_training5testss_43test_analyze_period_with_description_filter0Bb_
FN:2656,_RNCNvNtNtNtNtCsgTXWXfwjzne_17intervals_icu_mcp7intents8handlers16analyze_training5testss_43test_analyze_single_with_description_filter0Bb_
FN:2982,_RNCNvNtNtNtNtCsgTXWXfwjzne_17intervals_icu_mcp7intents8handlers16analyze_training5testss_44test_analyze_period_with_histograms_rejected0Bb_
FN:3209,_RNCNvNtNtNtNtCsgTXWXfwjzne_17intervals_icu_mcp7intents8handlers16analyze_training5testss_44test_execute_period_with_histograms_rejected0Bb_
FN:2621,_RNCNvNtNtNtNtCsgTXWXfwjzne_17intervals_icu_mcp7intents8handlers16analyze_training5testss_45test_analyze_single_multiple_activities_found0Bb_
FN:3238,_RNCNvNtNtNtNtCsgTXWXfwjzne_17intervals_icu_mcp7intents8handlers16analyze_training5testss_58test_schema_include_histograms_description_mentions_single0Bb_
FN:34,_RNvMNtNtNtCsgTXWXfwjzne_17intervals_icu_mcp7intents8handlers16analyze_trainingNtB2_22AnalyzeTrainingHandler3new
FN:714,_RNvMs0_NtNtNtCsgTXWXfwjzne_17intervals_icu_mcp7intents8handlers16analyze_trainingNtB5_22AnalyzeTrainingHandler14analyze_period
FN:208,_RNvMs0_NtNtNtCsgTXWXfwjzne_17intervals_icu_mcp7intents8handlers16analyze_trainingNtB5_22AnalyzeTrainingHandler14analyze_single
FN:70,_RNvMs_NtNtNtCsgTXWXfwjzne_17intervals_icu_mcp7intents8handlers16analyze_trainingNtB4_18SingleAnalysisMode15include_streams
FN:66,_RNvMs_NtNtNtCsgTXWXfwjzne_17intervals_icu_mcp7intents8handlers16analyze_trainingNtB4_18SingleAnalysisMode17include_intervals
FN:83,_RNvMs_NtNtNtCsgTXWXfwjzne_17intervals_icu_mcp7intents8handlers16analyze_trainingNtB4_18SingleAnalysisMode19show_stream_section
FN:79,_RNvMs_NtNtNtCsgTXWXfwjzne_17intervals_icu_mcp7intents8handlers16analyze_trainingNtB4_18SingleAnalysisMode21show_interval_section
FN:87,_RNvMs_NtNtNtCsgTXWXfwjzne_17intervals_icu_mcp7intents8handlers16analyze_trainingNtB4_18SingleAnalysisMode21show_quality_findings
FN:91,_RNvMs_NtNtNtCsgTXWXfwjzne_17intervals_icu_mcp7intents8handlers16analyze_trainingNtB4_18SingleAnalysisMode22show_data_availability
FN:75,_RNvMs_NtNtNtCsgTXWXfwjzne_17intervals_icu_mcp7intents8handlers16analyze_trainingNtB4_18SingleAnalysisMode22show_execution_context
FN:95,_RNvMs_NtNtNtCsgTXWXfwjzne_17intervals_icu_mcp7intents8handlers16analyze_trainingNtB4_18SingleAnalysisMode23show_detailed_breakdown
FN:48,_RNvMs_NtNtNtCsgTXWXfwjzne_17intervals_icu_mcp7intents8handlers16analyze_trainingNtB4_18SingleAnalysisMode5parse
FN:57,_RNvMs_NtNtNtCsgTXWXfwjzne_17intervals_icu_mcp7intents8handlers16analyze_trainingNtB4_18SingleAnalysisMode6as_str
FN:1180,_RNvNtNtNtCsgTXWXfwjzne_17intervals_icu_mcp7intents8handlers16analyze_training10format_pct
FN:106,_RNvXs9_NtNtNtCsgTXWXfwjzne_17intervals_icu_mcp7intents8handlers16analyze_trainingNtB5_22AnalyzeTrainingHandlerNtNtB9_5types13IntentHandler11description
FN:115,_RNvXs9_NtNtNtCsgTXWXfwjzne_17intervals_icu_mcp7intents8handlers16analyze_trainingNtB5_22AnalyzeTrainingHandlerNtNtB9_5types13IntentHandler12input_schema
FN:202,_RNvXs9_NtNtNtCsgTXWXfwjzne_17intervals_icu_mcp7intents8handlers16analyze_trainingNtB5_22AnalyzeTrainingHandlerNtNtB9_5types13IntentHandler26requires_idempotency_token
FN:102,_RNvXs9_NtNtNtCsgTXWXfwjzne_17intervals_icu_mcp7intents8handlers16analyze_trainingNtB5_22AnalyzeTrainingHandlerNtNtB9_5types13IntentHandler4name
FN:186,_RNvXs9_NtNtNtCsgTXWXfwjzne_17intervals_icu_mcp7intents8handlers16analyze_trainingNtB5_22AnalyzeTrainingHandlerNtNtB9_5types13IntentHandler7execute
FN:994,_RNCNCNCNCNCNvMs0_NtNtNtCsgTXWXfwjzne_17intervals_icu_mcp7intents8handlers16analyze_trainingNtBf_22AnalyzeTrainingHandler14analyze_period0sb_0s3_000Bl_
FN:901,_RNCNCNCNCNvMs0_NtNtNtCsgTXWXfwjzne_17intervals_icu_mcp7intents8handlers16analyze_trainingNtBd_22AnalyzeTrainingHandler14analyze_period0s4_000Bj_
FN:994,_RNCNCNCNCNvMs0_NtNtNtCsgTXWXfwjzne_17intervals_icu_mcp7intents8handlers16analyze_trainingNtBd_22AnalyzeTrainingHandler14analyze_period0sb_0s3_00Bj_
FN:792,_RNCNCNCNvMs0_NtNtNtCsgTXWXfwjzne_17intervals_icu_mcp7intents8handlers16analyze_trainingNtBb_22AnalyzeTrainingHandler14analyze_period0s0_00Bh_
FN:900,_RNCNCNCNvMs0_NtNtNtCsgTXWXfwjzne_17intervals_icu_mcp7intents8handlers16analyze_trainingNtBb_22AnalyzeTrainingHandler14analyze_period0s4_00Bh_
FN:904,_RNCNCNCNvMs0_NtNtNtCsgTXWXfwjzne_17intervals_icu_mcp7intents8handlers16analyze_trainingNtBb_22AnalyzeTrainingHandler14analyze_period0s4_0s0_0Bh_
FN:905,_RNCNCNCNvMs0_NtNtNtCsgTXWXfwjzne_17intervals_icu_mcp7intents8handlers16analyze_trainingNtBb_22AnalyzeTrainingHandler14analyze_period0s4_0s1_0Bh_
FN:914,_RNCNCNCNvMs0_NtNtNtCsgTXWXfwjzne_17intervals_icu_mcp7intents8handlers16analyze_trainingNtBb_22AnalyzeTrainingHandler14analyze_period0s5_00Bh_
FN:978,_RNCNCNCNvMs0_NtNtNtCsgTXWXfwjzne_17intervals_icu_mcp7intents8handlers16analyze_trainingNtBb_22AnalyzeTrainingHandler14analyze_period0sb_00Bh_
FN:982,_RNCNCNCNvMs0_NtNtNtCsgTXWXfwjzne_17intervals_icu_mcp7intents8handlers16analyze_trainingNtBb_22AnalyzeTrainingHandler14analyze_period0sb_0s0_0Bh_
FN:983,_RNCNCNCNvMs0_NtNtNtCsgTXWXfwjzne_17intervals_icu_mcp7intents8handlers16analyze_trainingNtBb_22AnalyzeTrainingHandler14analyze_period0sb_0s1_0Bh_
FN:992,_RNCNCNCNvMs0_NtNtNtCsgTXWXfwjzne_17intervals_icu_mcp7intents8handlers16analyze_trainingNtBb_22AnalyzeTrainingHandler14analyze_period0sb_0s2_0Bh_
FN:993,_RNCNCNCNvMs0_NtNtNtCsgTXWXfwjzne_17intervals_icu_mcp7intents8handlers16analyze_trainingNtBb_22AnalyzeTrainingHandler14analyze_period0sb_0s3_0Bh_
FN:996,_RNCNCNCNvMs0_NtNtNtCsgTXWXfwjzne_17intervals_icu_mcp7intents8handlers16analyze_trainingNtBb_22AnalyzeTrainingHandler14analyze_period0sb_0s4_0Bh_
FN:997,_RNCNCNCNvMs0_NtNtNtCsgTXWXfwjzne_17intervals_icu_mcp7intents8handlers16analyze_trainingNtBb_22AnalyzeTrainingHandler14analyze_period0sb_0s5_0Bh_
FN:1010,_RNCNCNCNvMs0_NtNtNtCsgTXWXfwjzne_17intervals_icu_mcp7intents8handlers16analyze_trainingNtBb_22AnalyzeTrainingHandler14analyze_period0sb_0s6_0Bh_
FN:979,_RNCNCNCNvMs0_NtNtNtCsgTXWXfwjzne_17intervals_icu_mcp7intents8handlers16analyze_trainingNtBb_22AnalyzeTrainingHandler14analyze_period0sb_0s_0Bh_
FN:1122,_RNCNCNCNvMs0_NtNtNtCsgTXWXfwjzne_17intervals_icu_mcp7intents8handlers16analyze_trainingNtBb_22AnalyzeTrainingHandler14analyze_period0sg_00Bh_
FN:1136,_RNCNCNCNvMs0_NtNtNtCsgTXWXfwjzne_17intervals_icu_mcp7intents8handlers16analyze_trainingNtBb_22AnalyzeTrainingHandler14analyze_period0sh_00Bh_
FN:248,_RNCNCNCNvMs0_NtNtNtCsgTXWXfwjzne_17intervals_icu_mcp7intents8handlers16analyze_trainingNtBb_22AnalyzeTrainingHandler14analyze_single0s0_00Bh_
FN:722,_RNCNCNvMs0_NtNtNtCsgTXWXfwjzne_17intervals_icu_mcp7intents8handlers16analyze_trainingNtB9_22AnalyzeTrainingHandler14analyze_period00Bf_
FN:789,_RNCNCNvMs0_NtNtNtCsgTXWXfwjzne_17intervals_icu_mcp7intents8handlers16analyze_trainingNtB9_22AnalyzeTrainingHandler14analyze_period0s0_0Bf_
FN:888,_RNCNCNvMs0_NtNtNtCsgTXWXfwjzne_17intervals_icu_mcp7intents8handlers16analyze_trainingNtB9_22AnalyzeTrainingHandler14analyze_period0s1_0Bf_
FN:891,_RNCNCNvMs0_NtNtNtCsgTXWXfwjzne_17intervals_icu_mcp7intents8handlers16analyze_trainingNtB9_22AnalyzeTrainingHandler14analyze_period0s2_0Bf_
FN:896,_RNCNCNvMs0_NtNtNtCsgTXWXfwjzne_17intervals_icu_mcp7intents8handlers16analyze_trainingNtB9_22AnalyzeTrainingHandler14analyze_period0s3_0Bf_
FN:897,_RNCNCNvMs0_NtNtNtCsgTXWXfwjzne_17intervals_icu_mcp7intents8handlers16analyze_trainingNtB9_22AnalyzeTrainingHandler14analyze_period0s4_0Bf_
FN:912,_RNCNCNvMs0_NtNtNtCsgTXWXfwjzne_17intervals_icu_mcp7intents8handlers16analyze_trainingNtB9_22AnalyzeTrainingHandler14analyze_period0s5_0Bf_
FN:941,_RNCNCNvMs0_NtNtNtCsgTXWXfwjzne_17intervals_icu_mcp7intents8handlers16analyze_trainingNtB9_22AnalyzeTrainingHandler14analyze_period0s8_0Bf_
FN:726,_RNCNCNvMs0_NtNtNtCsgTXWXfwjzne_17intervals_icu_mcp7intents8handlers16analyze_trainingNtB9_22AnalyzeTrainingHandler14analyze_period0s_0Bf_
FN:969,_RNCNCNvMs0_NtNtNtCsgTXWXfwjzne_17intervals_icu_mcp7intents8handlers16analyze_trainingNtB9_22AnalyzeTrainingHandler14analyze_period0sa_0Bf_
FN:975,_RNCNCNvMs0_NtNtNtCsgTXWXfwjzne_17intervals_icu_mcp7intents8handlers16analyze_trainingNtB9_22AnalyzeTrainingHandler14analyze_period0sb_0Bf_
FN:1031,_RNCNCNvMs0_NtNtNtCsgTXWXfwjzne_17intervals_icu_mcp7intents8handlers16analyze_trainingNtB9_22AnalyzeTrainingHandler14analyze_period0sc_0Bf_
FN:1105,_RNCNCNvMs0_NtNtNtCsgTXWXfwjzne_17intervals_icu_mcp7intents8handlers16analyze_trainingNtB9_22AnalyzeTrainingHandler14analyze_period0sd_0Bf_
FN:1114,_RNCNCNvMs0_NtNtNtCsgTXWXfwjzne_17intervals_icu_mcp7intents8handlers16analyze_trainingNtB9_22AnalyzeTrainingHandler14analyze_period0se_0Bf_
FN:1115,_RNCNCNvMs0_NtNtNtCsgTXWXfwjzne_17intervals_icu_mcp7intents8handlers16analyze_trainingNtB9_22AnalyzeTrainingHandler14analyze_period0sf_0Bf_
FN:1118,_RNCNCNvMs0_NtNtNtCsgTXWXfwjzne_17intervals_icu_mcp7intents8handlers16analyze_trainingNtB9_22AnalyzeTrainingHandler14analyze_period0sg_0Bf_
FN:1125,_RNCNCNvMs0_NtNtNtCsgTXWXfwjzne_17intervals_icu_mcp7intents8handlers16analyze_trainingNtB9_22AnalyzeTrainingHandler14analyze_period0sh_0Bf_
FN:1072,_RNCNCNvMs0_NtNtNtCsgTXWXfwjzne_17intervals_icu_mcp7intents8handlers16analyze_trainingNtB9_22AnalyzeTrainingHandler14analyze_period0si_0Bf_
FN:1073,_RNCNCNvMs0_NtNtNtCsgTXWXfwjzne_17intervals_icu_mcp7intents8handlers16analyze_trainingNtB9_22AnalyzeTrainingHandler14analyze_period0sj_0Bf_
FN:216,_RNCNCNvMs0_NtNtNtCsgTXWXfwjzne_17intervals_icu_mcp7intents8handlers16analyze_trainingNtB9_22AnalyzeTrainingHandler14analyze_single00Bf_
FN:245,_RNCNCNvMs0_NtNtNtCsgTXWXfwjzne_17intervals_icu_mcp7intents8handlers16analyze_trainingNtB9_22AnalyzeTrainingHandler14analyze_single0s0_0Bf_
FN:431,_RNCNCNvMs0_NtNtNtCsgTXWXfwjzne_17intervals_icu_mcp7intents8handlers16analyze_trainingNtB9_22AnalyzeTrainingHandler14analyze_single0s1_0Bf_
FN:436,_RNCNCNvMs0_NtNtNtCsgTXWXfwjzne_17intervals_icu_mcp7intents8handlers16analyze_trainingNtB9_22AnalyzeTrainingHandler14analyze_single0s2_0Bf_
FN:439,_RNCNCNvMs0_NtNtNtCsgTXWXfwjzne_17intervals_icu_mcp7intents8handlers16analyze_trainingNtB9_22AnalyzeTrainingHandler14analyze_single0s3_0Bf_
FN:443,_RNCNCNvMs0_NtNtNtCsgTXWXfwjzne_17intervals_icu_mcp7intents8handlers16analyze_trainingNtB9_22AnalyzeTrainingHandler14analyze_single0s4_0Bf_
FN:226,_RNCNCNvMs0_NtNtNtCsgTXWXfwjzne_17intervals_icu_mcp7intents8handlers16analyze_trainingNtB9_22AnalyzeTrainingHandler14analyze_single0s_0Bf_
FN:190,_RNCNCNvXs9_NtNtNtCsgTXWXfwjzne_17intervals_icu_mcp7intents8handlers16analyze_trainingNtB9_22AnalyzeTrainingHandlerNtNtBd_5types13IntentHandler7execute00Bf_
FN:718,_RNCNvMs0_NtNtNtCsgTXWXfwjzne_17intervals_icu_mcp7intents8handlers16analyze_trainingNtB7_22AnalyzeTrainingHandler14analyze_period0Bd_
FN:212,_RNCNvMs0_NtNtNtCsgTXWXfwjzne_17intervals_icu_mcp7intents8handlers16analyze_trainingNtB7_22AnalyzeTrainingHandler14analyze_single0Bd_
FN:1182,_RNCNvNtNtNtCsgTXWXfwjzne_17intervals_icu_mcp7intents8handlers16analyze_training10format_pct0B9_
FN:1183,_RNCNvNtNtNtCsgTXWXfwjzne_17intervals_icu_mcp7intents8handlers16analyze_training10format_pcts_0B9_
FNDA:0,_RNvXs1_NtNtNtCsgTXWXfwjzne_17intervals_icu_mcp7intents8handlers16analyze_trainingNtB5_22AnalyzeTrainingHandlerNtNtCse2qo0L34Llq_4core7default7Default7default
FNDA:1,_RNvNtNtNtNtCsgTXWXfwjzne_17intervals_icu_mcp7intents8handlers16analyze_training5testss_16test_description
FNDA:1,_RNvNtNtNtNtCsgTXWXfwjzne_17intervals_icu_mcp7intents8handlers16analyze_training5testss_16test_new_handler
FNDA:1,_RNvNtNtNtNtCsgTXWXfwjzne_17intervals_icu_mcp7intents8handlers16analyze_training5testss_20test_default_handler
FNDA:1,_RNvNtNtNtNtCsgTXWXfwjzne_17intervals_icu_mcp7intents8handlers16analyze_training5testss_21test_calculate_median
FNDA:1,_RNvNtNtNtNtCsgTXWXfwjzne_17intervals_icu_mcp7intents8handlers16analyze_training5testss_21test_handler_metadata
FNDA:1,_RNvNtNtNtNtCsgTXWXfwjzne_17intervals_icu_mcp7intents8handlers16analyze_training5testss_23test_date_parsing_valid
FNDA:1,_RNvNtNtNtNtCsgTXWXfwjzne_17intervals_icu_mcp7intents8handlers16analyze_training5testss_24test_content_block_types
FNDA:1,_RNvNtNtNtNtCsgTXWXfwjzne_17intervals_icu_mcp7intents8handlers16analyze_training5testss_25test_analysis_type_values
FNDA:1,_RNvNtNtNtNtCsgTXWXfwjzne_17intervals_icu_mcp7intents8handlers16analyze_training5testss_25test_analyze_period_basic
FNDA:1,_RNvNtNtNtNtCsgTXWXfwjzne_17intervals_icu_mcp7intents8handlers16analyze_training5testss_25test_date_parsing_invalid
FNDA:1,_RNvNtNtNtNtCsgTXWXfwjzne_17intervals_icu_mcp7intents8handlers16analyze_training5testss_26test_default_analysis_type
FNDA:1,_RNvNtNtNtNtCsgTXWXfwjzne_17intervals_icu_mcp7intents8handlers16analyze_training5testss_26test_default_include_flags
FNDA:1,_RNvNtNtNtNtCsgTXWXfwjzne_17intervals_icu_mcp7intents8handlers16analyze_training5testss_26test_validation_date_range
FNDA:1,_RNvNtNtNtNtCsgTXWXfwjzne_17intervals_icu_mcp7intents8handlers16analyze_training5testss_27test_input_schema_structure
FNDA:1,_RNvNtNtNtNtCsgTXWXfwjzne_17intervals_icu_mcp7intents8handlers16analyze_training5testss_27test_numeric_value_from_f64
FNDA:1,_RNvNtNtNtNtCsgTXWXfwjzne_17intervals_icu_mcp7intents8handlers16analyze_training5testss_27test_numeric_value_from_i64
FNDA:1,_RNvNtNtNtNtCsgTXWXfwjzne_17intervals_icu_mcp7intents8handlers16analyze_training5testss_27test_validation_date_format
FNDA:1,_RNvNtNtNtNtCsgTXWXfwjzne_17intervals_icu_mcp7intents8handlers16analyze_training5testss_28test_period_days_calculation
FNDA:1,_RNvNtNtNtNtCsgTXWXfwjzne_17intervals_icu_mcp7intents8handlers16analyze_training5testss_30test_date_error_message_format
FNDA:1,_RNvNtNtNtNtCsgTXWXfwjzne_17intervals_icu_mcp7intents8handlers16analyze_training5testss_30test_numeric_value_missing_key
FNDA:1,_RNvNtNtNtNtCsgTXWXfwjzne_17intervals_icu_mcp7intents8handlers16analyze_training5testss_30test_numeric_value_non_numeric
FNDA:1,_RNvNtNtNtNtCsgTXWXfwjzne_17intervals_icu_mcp7intents8handlers16analyze_training5testss_31test_best_efforts_array_invalid
FNDA:1,_RNvNtNtNtNtCsgTXWXfwjzne_17intervals_icu_mcp7intents8handlers16analyze_training5testss_31test_count_work_intervals_empty
FNDA:1,_RNvNtNtNtNtCsgTXWXfwjzne_17intervals_icu_mcp7intents8handlers16analyze_training5testss_31test_interval_output_value_kind
FNDA:1,_RNvNtNtNtNtCsgTXWXfwjzne_17intervals_icu_mcp7intents8handlers16analyze_training5testss_31test_requires_idempotency_token
FNDA:1,_RNvNtNtNtNtCsgTXWXfwjzne_17intervals_icu_mcp7intents8handlers16analyze_training5testss_31test_weekly_average_calculation
FNDA:1,_RNvNtNtNtNtCsgTXWXfwjzne_17intervals_icu_mcp7intents8handlers16analyze_training5testss_32test_analyze_single_invalid_date
FNDA:1,_RNvNtNtNtNtCsgTXWXfwjzne_17intervals_icu_mcp7intents8handlers16analyze_training5testss_32test_analyze_single_missing_date
FNDA:1,_RNvNtNtNtNtCsgTXWXfwjzne_17intervals_icu_mcp7intents8handlers16analyze_training5testss_32test_analyze_single_streams_mode
FNDA:1,_RNvNtNtNtNtCsgTXWXfwjzne_17intervals_icu_mcp7intents8handlers16analyze_training5testss_32test_analyze_single_summary_mode
FNDA:1,_RNvNtNtNtNtCsgTXWXfwjzne_17intervals_icu_mcp7intents8handlers16analyze_training5testss_32test_execute_invalid_target_type
FNDA:1,_RNvNtNtNtNtCsgTXWXfwjzne_17intervals_icu_mcp7intents8handlers16analyze_training5testss_32test_execute_missing_target_type
FNDA:1,_RNvNtNtNtNtCsgTXWXfwjzne_17intervals_icu_mcp7intents8handlers16analyze_training5testss_32test_parse_activity_date_invalid
FNDA:1,_RNvNtNtNtNtCsgTXWXfwjzne_17intervals_icu_mcp7intents8handlers16analyze_training5testss_32test_single_analysis_mode_as_str
FNDA:1,_RNvNtNtNtNtCsgTXWXfwjzne_17intervals_icu_mcp7intents8handlers16analyze_training5testss_33test_analyze_period_no_activities
FNDA:1,_RNvNtNtNtNtCsgTXWXfwjzne_17intervals_icu_mcp7intents8handlers16analyze_training5testss_33test_analyze_single_detailed_mode
FNDA:1,_RNvNtNtNtNtCsgTXWXfwjzne_17intervals_icu_mcp7intents8handlers16analyze_training5testss_33test_requested_metrics_with_array
FNDA:1,_RNvNtNtNtNtCsgTXWXfwjzne_17intervals_icu_mcp7intents8handlers16analyze_training5testss_34test_analyze_single_intervals_mode
FNDA:1,_RNvNtNtNtNtCsgTXWXfwjzne_17intervals_icu_mcp7intents8handlers16analyze_training5testss_34test_parse_activity_date_date_only
FNDA:1,_RNvNtNtNtNtCsgTXWXfwjzne_17intervals_icu_mcp7intents8handlers16analyze_training5testss_34test_requested_metrics_empty_input
FNDA:1,_RNvNtNtNtNtCsgTXWXfwjzne_17intervals_icu_mcp7intents8handlers16analyze_training5testss_35test_analyze_period_start_after_end
FNDA:1,_RNvNtNtNtNtCsgTXWXfwjzne_17intervals_icu_mcp7intents8handlers16analyze_training5testss_35test_analyze_single_with_histograms
FNDA:1,_RNvNtNtNtNtCsgTXWXfwjzne_17intervals_icu_mcp7intents8handlers16analyze_training5testss_35test_error_messages_contain_context
FNDA:1,_RNvNtNtNtNtCsgTXWXfwjzne_17intervals_icu_mcp7intents8handlers16analyze_training5testss_35test_format_duration_hhmm_over_hour
FNDA:1,_RNvNtNtNtNtCsgTXWXfwjzne_17intervals_icu_mcp7intents8handlers16analyze_training5testss_35test_schema_has_if_then_constraints
FNDA:1,_RNvNtNtNtNtCsgTXWXfwjzne_17intervals_icu_mcp7intents8handlers16analyze_training5testss_35test_validation_invalid_target_type
FNDA:1,_RNvNtNtNtNtCsgTXWXfwjzne_17intervals_icu_mcp7intents8handlers16analyze_training5testss_35test_validation_missing_target_type
FNDA:1,_RNvNtNtNtNtCsgTXWXfwjzne_17intervals_icu_mcp7intents8handlers16analyze_training5testss_36test_analyze_period_invalid_end_date
FNDA:1,_RNvNtNtNtNtCsgTXWXfwjzne_17intervals_icu_mcp7intents8handlers16analyze_training5testss_36test_best_efforts_array_direct_array
FNDA:1,_RNvNtNtNtNtCsgTXWXfwjzne_17intervals_icu_mcp7intents8handlers16analyze_training5testss_36test_build_calendar_event_rows_empty
FNDA:1,_RNvNtNtNtNtCsgTXWXfwjzne_17intervals_icu_mcp7intents8handlers16analyze_training5testss_36test_count_work_intervals_speed_only
FNDA:1,_RNvNtNtNtNtCsgTXWXfwjzne_17intervals_icu_mcp7intents8handlers16analyze_training5testss_36test_format_best_effort_average_pace
FNDA:1,_RNvNtNtNtNtCsgTXWXfwjzne_17intervals_icu_mcp7intents8handlers16analyze_training5testss_36test_format_duration_hhmm_under_hour
FNDA:1,_RNvNtNtNtNtCsgTXWXfwjzne_17intervals_icu_mcp7intents8handlers16analyze_training5testss_36test_format_histogram_number_decimal
FNDA:1,_RNvNtNtNtNtCsgTXWXfwjzne_17intervals_icu_mcp7intents8handlers16analyze_training5testss_36test_format_histogram_number_integer
FNDA:1,_RNvNtNtNtNtCsgTXWXfwjzne_17intervals_icu_mcp7intents8handlers16analyze_training5testss_36test_key_phrase_extraction_with_dash
FNDA:1,_RNvNtNtNtNtCsgTXWXfwjzne_17intervals_icu_mcp7intents8handlers16analyze_training5testss_37test_analyze_single_with_best_efforts
FNDA:1,_RNvNtNtNtNtCsgTXWXfwjzne_17intervals_icu_mcp7intents8handlers16analyze_training5testss_37test_build_range_histogram_rows_empty
FNDA:1,_RNvNtNtNtNtCsgTXWXfwjzne_17intervals_icu_mcp7intents8handlers16analyze_training5testss_37test_format_best_effort_average_power
FNDA:1,_RNvNtNtNtNtCsgTXWXfwjzne_17intervals_icu_mcp7intents8handlers16analyze_training5testss_37test_key_phrase_extraction_empty_dash
FNDA:1,_RNvNtNtNtNtCsgTXWXfwjzne_17intervals_icu_mcp7intents8handlers16analyze_training5testss_37test_key_phrase_extraction_with_colon
FNDA:1,_RNvNtNtNtNtCsgTXWXfwjzne_17intervals_icu_mcp7intents8handlers16analyze_training5testss_38test_analyze_period_invalid_start_date
FNDA:1,_RNvNtNtNtNtCsgTXWXfwjzne_17intervals_icu_mcp7intents8handlers16analyze_training5testss_38test_analyze_period_missing_period_end
FNDA:1,_RNvNtNtNtNtCsgTXWXfwjzne_17intervals_icu_mcp7intents8handlers16analyze_training5testss_38test_best_efforts_array_nested_efforts
FNDA:1,_RNvNtNtNtNtCsgTXWXfwjzne_17intervals_icu_mcp7intents8handlers16analyze_training5testss_38test_build_activity_message_rows_empty
FNDA:1,_RNvNtNtNtNtCsgTXWXfwjzne_17intervals_icu_mcp7intents8handlers16analyze_training5testss_38test_build_bucket_histogram_rows_empty
FNDA:1,_RNvNtNtNtNtCsgTXWXfwjzne_17intervals_icu_mcp7intents8handlers16analyze_training5testss_38test_format_best_effort_duration_hours
FNDA:1,_RNvNtNtNtNtCsgTXWXfwjzne_17intervals_icu_mcp7intents8handlers16analyze_training5testss_38test_interval_output_value_format_pace
FNDA:1,_RNvNtNtNtNtCsgTXWXfwjzne_17intervals_icu_mcp7intents8handlers16analyze_training5testss_38test_single_analysis_mode_show_methods
FNDA:1,_RNvNtNtNtNtCsgTXWXfwjzne_17intervals_icu_mcp7intents8handlers16analyze_training5testss_39test_analyze_single_no_activities_found
FNDA:1,_RNvNtNtNtNtCsgTXWXfwjzne_17intervals_icu_mcp7intents8handlers16analyze_training5testss_39test_build_zone_distribution_rows_empty
FNDA:1,_RNvNtNtNtNtCsgTXWXfwjzne_17intervals_icu_mcp7intents8handlers16analyze_training5testss_39test_format_best_effort_average_no_data
FNDA:1,_RNvNtNtNtNtCsgTXWXfwjzne_17intervals_icu_mcp7intents8handlers16analyze_training5testss_39test_interval_output_value_format_power
FNDA:1,_RNvNtNtNtNtCsgTXWXfwjzne_17intervals_icu_mcp7intents8handlers16analyze_training5testss_39test_is_planned_workout_id_event_prefix
FNDA:1,_RNvNtNtNtNtCsgTXWXfwjzne_17intervals_icu_mcp7intents8handlers16analyze_training5testss_39test_key_phrase_extraction_no_separator
FNDA:1,_RNvNtNtNtNtCsgTXWXfwjzne_17intervals_icu_mcp7intents8handlers16analyze_training5testss_39test_key_phrase_extraction_unicode_dash
FNDA:1,_RNvNtNtNtNtCsgTXWXfwjzne_17intervals_icu_mcp7intents8handlers16analyze_training5testss_39test_key_phrase_extraction_with_em_dash
FNDA:1,_RNvNtNtNtNtCsgTXWXfwjzne_17intervals_icu_mcp7intents8handlers16analyze_training5testss_39test_parse_activity_date_with_timestamp
FNDA:1,_RNvNtNtNtNtCsgTXWXfwjzne_17intervals_icu_mcp7intents8handlers16analyze_training5testss_39test_single_analysis_mode_parse_default
FNDA:1,_RNvNtNtNtNtCsgTXWXfwjzne_17intervals_icu_mcp7intents8handlers16analyze_training5testss_39test_single_analysis_mode_parse_streams
FNDA:1,_RNvNtNtNtNtCsgTXWXfwjzne_17intervals_icu_mcp7intents8handlers16analyze_training5testss_40test_analyze_period_missing_period_start
FNDA:1,_RNvNtNtNtNtCsgTXWXfwjzne_17intervals_icu_mcp7intents8handlers16analyze_training5testss_40test_analyze_period_with_calendar_events
FNDA:1,_RNvNtNtNtNtCsgTXWXfwjzne_17intervals_icu_mcp7intents8handlers16analyze_training5testss_40test_count_work_intervals_with_real_data
FNDA:1,_RNvNtNtNtNtCsgTXWXfwjzne_17intervals_icu_mcp7intents8handlers16analyze_training5testss_40test_requested_metrics_non_string_values
FNDA:1,_RNvNtNtNtNtCsgTXWXfwjzne_17intervals_icu_mcp7intents8handlers16analyze_training5testss_40test_single_analysis_mode_parse_detailed
FNDA:1,_RNvNtNtNtNtCsgTXWXfwjzne_17intervals_icu_mcp7intents8handlers16analyze_training5testss_41test_analyze_period_analysis_type_streams
FNDA:1,_RNvNtNtNtNtCsgTXWXfwjzne_17intervals_icu_mcp7intents8handlers16analyze_training5testss_41test_build_range_histogram_rows_with_data
FNDA:1,_RNvNtNtNtNtCsgTXWXfwjzne_17intervals_icu_mcp7intents8handlers16analyze_training5testss_41test_format_best_effort_average_heartrate
FNDA:1,_RNvNtNtNtNtCsgTXWXfwjzne_17intervals_icu_mcp7intents8handlers16analyze_training5testss_41test_format_duration_compact_matches_hhmm
FNDA:1,_RNvNtNtNtNtCsgTXWXfwjzne_17intervals_icu_mcp7intents8handlers16analyze_training5testss_41test_single_analysis_mode_include_streams
FNDA:1,_RNvNtNtNtNtCsgTXWXfwjzne_17intervals_icu_mcp7intents8handlers16analyze_training5testss_41test_single_analysis_mode_parse_intervals
FNDA:1,_RNvNtNtNtNtCsgTXWXfwjzne_17intervals_icu_mcp7intents8handlers16analyze_training5testss_42test_analyze_period_with_requested_metrics
FNDA:1,_RNvNtNtNtNtCsgTXWXfwjzne_17intervals_icu_mcp7intents8handlers16analyze_training5testss_42test_analyze_single_with_activity_messages
FNDA:1,_RNvNtNtNtNtCsgTXWXfwjzne_17intervals_icu_mcp7intents8handlers16analyze_training5testss_42test_analyze_single_with_requested_metrics
FNDA:1,_RNvNtNtNtNtCsgTXWXfwjzne_17intervals_icu_mcp7intents8handlers16analyze_training5testss_42test_build_bucket_histogram_rows_with_data
FNDA:1,_RNvNtNtNtNtCsgTXWXfwjzne_17intervals_icu_mcp7intents8handlers16analyze_training5testss_42test_build_calendar_event_rows_with_events
FNDA:1,_RNvNtNtNtNtCsgTXWXfwjzne_17intervals_icu_mcp7intents8handlers16analyze_training5testss_42test_count_work_intervals_clear_separation
FNDA:1,_RNvNtNtNtNtCsgTXWXfwjzne_17intervals_icu_mcp7intents8handlers16analyze_training5testss_43test_analyze_period_analysis_type_intervals
FNDA:1,_RNvNtNtNtNtCsgTXWXfwjzne_17intervals_icu_mcp7intents8handlers16analyze_training5testss_43test_analyze_period_with_description_filter
FNDA:1,_RNvNtNtNtNtCsgTXWXfwjzne_17intervals_icu_mcp7intents8handlers16analyze_training5testss_43test_analyze_single_with_description_filter
FNDA:1,_RNvNtNtNtNtCsgTXWXfwjzne_17intervals_icu_mcp7intents8handlers16analyze_training5testss_43test_best_efforts_array_nested_best_efforts
FNDA:1,_RNvNtNtNtNtCsgTXWXfwjzne_17intervals_icu_mcp7intents8handlers16analyze_training5testss_43test_build_zone_distribution_rows_with_data
FNDA:1,_RNvNtNtNtNtCsgTXWXfwjzne_17intervals_icu_mcp7intents8handlers16analyze_training5testss_43test_is_planned_workout_id_regular_activity
FNDA:1,_RNvNtNtNtNtCsgTXWXfwjzne_17intervals_icu_mcp7intents8handlers16analyze_training5testss_43test_single_analysis_mode_include_intervals
FNDA:1,_RNvNtNtNtNtCsgTXWXfwjzne_17intervals_icu_mcp7intents8handlers16analyze_training5testss_44test_analyze_period_with_histograms_rejected
FNDA:1,_RNvNtNtNtNtCsgTXWXfwjzne_17intervals_icu_mcp7intents8handlers16analyze_training5testss_44test_execute_period_with_histograms_rejected
FNDA:1,_RNvNtNtNtNtCsgTXWXfwjzne_17intervals_icu_mcp7intents8handlers16analyze_training5testss_45test_analyze_single_multiple_activities_found
FNDA:1,_RNvNtNtNtNtCsgTXWXfwjzne_17intervals_icu_mcp7intents8handlers16analyze_training5testss_45test_format_best_effort_duration_seconds_only
FNDA:1,_RNvNtNtNtNtCsgTXWXfwjzne_17intervals_icu_mcp7intents8handlers16analyze_training5testss_46test_build_activity_message_rows_with_messages
FNDA:1,_RNvNtNtNtNtCsgTXWXfwjzne_17intervals_icu_mcp7intents8handlers16analyze_training5testss_46test_interval_output_value_format_invalid_pace
FNDA:1,_RNvNtNtNtNtCsgTXWXfwjzne_17intervals_icu_mcp7intents8handlers16analyze_training5testss_48test_build_activity_message_rows_filters_deleted
FNDA:1,_RNvNtNtNtNtCsgTXWXfwjzne_17intervals_icu_mcp7intents8handlers16analyze_training5testss_48test_format_best_effort_duration_minutes_seconds
FNDA:1,_RNvNtNtNtNtCsgTXWXfwjzne_17intervals_icu_mcp7intents8handlers16analyze_training5testss_49build_interval_analysis_rows_formats_known_fields
FNDA:1,_RNvNtNtNtNtCsgTXWXfwjzne_17intervals_icu_mcp7intents8handlers16analyze_training5testss_49build_period_summary_rows_formats_snapshot_values
FNDA:1,_RNvNtNtNtNtCsgTXWXfwjzne_17intervals_icu_mcp7intents8handlers16analyze_training5testss_52test_build_bucket_histogram_rows_without_average_key
FNDA:1,_RNvNtNtNtNtCsgTXWXfwjzne_17intervals_icu_mcp7intents8handlers16analyze_training5testss_54test_build_activity_message_rows_filters_empty_content
FNDA:1,_RNvNtNtNtNtCsgTXWXfwjzne_17intervals_icu_mcp7intents8handlers16analyze_training5testss_55test_build_activity_message_rows_handles_missing_fields
FNDA:1,_RNvNtNtNtNtCsgTXWXfwjzne_17intervals_icu_mcp7intents8handlers16analyze_training5testss_56build_basic_workout_metric_rows_formats_available_values
FNDA:1,_RNvNtNtNtNtCsgTXWXfwjzne_17intervals_icu_mcp7intents8handlers16analyze_training5testss_57load_management_markdown_renders_acwr_and_monotony_values
FNDA:1,_RNvNtNtNtNtCsgTXWXfwjzne_17intervals_icu_mcp7intents8handlers16analyze_training5testss_58test_schema_include_histograms_description_mentions_single
FNDA:1,_RNvNtNtNtNtCsgTXWXfwjzne_17intervals_icu_mcp7intents8handlers16analyze_training5testss_60load_management_markdown_reports_when_history_is_unavailable
FNDA:1,_RNvNtNtNtNtCsgTXWXfwjzne_17intervals_icu_mcp7intents8handlers16analyze_training5testss_62build_interval_analysis_rows_backfills_power_from_stream_slice
FNDA:1,_RNvNtNtNtNtCsgTXWXfwjzne_17intervals_icu_mcp7intents8handlers16analyze_training5testss_63test_handler_description_mentions_comments_and_calendar_context
FNDA:1,_RNvNtNtNtNtCsgTXWXfwjzne_17intervals_icu_mcp7intents8handlers16analyze_training5testss_9test_name
FNDA:6,_RNCNCNCNCNvNtNtNtNtCsgTXWXfwjzne_17intervals_icu_mcp7intents8handlers16analyze_training5testss_42test_analyze_single_with_requested_metrics0000Bh_
FNDA:2,_RNCNCNCNCNvNtNtNtNtCsgTXWXfwjzne_17intervals_icu_mcp7intents8handlers16analyze_training5testss_42test_analyze_single_with_requested_metrics00s_00Bh_
FNDA:6,_RNCNCNCNvNtNtNtNtCsgTXWXfwjzne_17intervals_icu_mcp7intents8handlers16analyze_training5testss_42test_analyze_single_with_requested_metrics000Bf_
FNDA:2,_RNCNCNCNvNtNtNtNtCsgTXWXfwjzne_17intervals_icu_mcp7intents8handlers16analyze_training5testss_42test_analyze_single_with_requested_metrics00s_0Bf_
FNDA:4,_RNCNCNvNtNtNtNtCsgTXWXfwjzne_17intervals_icu_mcp7intents8handlers16analyze_training5testss_42test_analyze_single_with_requested_metrics00Bd_
FNDA:1,_RNCNvNtNtNtNtCsgTXWXfwjzne_17intervals_icu_mcp7intents8handlers16analyze_training5testss_25test_analyze_period_basic0Bb_
FNDA:0,_RNCNvNtNtNtNtCsgTXWXfwjzne_17intervals_icu_mcp7intents8handlers16analyze_training5testss_26test_default_analysis_type0Bb_
FNDA:0,_RNCNvNtNtNtNtCsgTXWXfwjzne_17intervals_icu_mcp7intents8handlers16analyze_training5testss_26test_default_include_flags0Bb_
FNDA:0,_RNCNvNtNtNtNtCsgTXWXfwjzne_17intervals_icu_mcp7intents8handlers16analyze_training5testss_26test_default_include_flagss_0Bb_
FNDA:1,_RNCNvNtNtNtNtCsgTXWXfwjzne_17intervals_icu_mcp7intents8handlers16analyze_training5testss_32test_analyze_single_invalid_date0Bb_
FNDA:1,_RNCNvNtNtNtNtCsgTXWXfwjzne_17intervals_icu_mcp7intents8handlers16analyze_training5testss_32test_analyze_single_missing_date0Bb_
FNDA:1,_RNCNvNtNtNtNtCsgTXWXfwjzne_17intervals_icu_mcp7intents8handlers16analyze_training5testss_32test_analyze_single_streams_mode0Bb_
FNDA:1,_RNCNvNtNtNtNtCsgTXWXfwjzne_17intervals_icu_mcp7intents8handlers16analyze_training5testss_32test_analyze_single_summary_mode0Bb_
FNDA:1,_RNCNvNtNtNtNtCsgTXWXfwjzne_17intervals_icu_mcp7intents8handlers16analyze_training5testss_32test_execute_invalid_target_type0Bb_
FNDA:1,_RNCNvNtNtNtNtCsgTXWXfwjzne_17intervals_icu_mcp7intents8handlers16analyze_training5testss_32test_execute_missing_target_type0Bb_
FNDA:1,_RNCNvNtNtNtNtCsgTXWXfwjzne_17intervals_icu_mcp7intents8handlers16analyze_training5testss_33test_analyze_period_no_activities0Bb_
FNDA:1,_RNCNvNtNtNtNtCsgTXWXfwjzne_17intervals_icu_mcp7intents8handlers16analyze_training5testss_33test_analyze_single_detailed_mode0Bb_
FNDA:1,_RNCNvNtNtNtNtCsgTXWXfwjzne_17intervals_icu_mcp7intents8handlers16analyze_training5testss_34test_analyze_single_intervals_mode0Bb_
FNDA:1,_RNCNvNtNtNtNtCsgTXWXfwjzne_17intervals_icu_mcp7intents8handlers16analyze_training5testss_35test_analyze_period_start_after_end0Bb_
FNDA:1,_RNCNvNtNtNtNtCsgTXWXfwjzne_17intervals_icu_mcp7intents8handlers16analyze_training5testss_35test_analyze_single_with_histograms0Bb_
FNDA:1,_RNCNvNtNtNtNtCsgTXWXfwjzne_17intervals_icu_mcp7intents8handlers16analyze_training5testss_35test_schema_has_if_then_constraints0Bb_
FNDA:1,_RNCNvNtNtNtNtCsgTXWXfwjzne_17intervals_icu_mcp7intents8handlers16analyze_training5testss_35test_schema_has_if_then_constraintss0_0Bb_
FNDA:1,_RNCNvNtNtNtNtCsgTXWXfwjzne_17intervals_icu_mcp7intents8handlers16analyze_training5testss_35test_schema_has_if_then_constraintss1_0Bb_
FNDA:1,_RNCNvNtNtNtNtCsgTXWXfwjzne_17intervals_icu_mcp7intents8handlers16analyze_training5testss_35test_schema_has_if_then_constraintss_0Bb_
FNDA:1,_RNCNvNtNtNtNtCsgTXWXfwjzne_17intervals_icu_mcp7intents8handlers16analyze_training5testss_35test_validation_invalid_target_type0Bb_
FNDA:1,_RNCNvNtNtNtNtCsgTXWXfwjzne_17intervals_icu_mcp7intents8handlers16analyze_training5testss_36test_analyze_period_invalid_end_date0Bb_
FNDA:1,_RNCNvNtNtNtNtCsgTXWXfwjzne_17intervals_icu_mcp7intents8handlers16analyze_training5testss_37test_analyze_single_with_best_efforts0Bb_
FNDA:1,_RNCNvNtNtNtNtCsgTXWXfwjzne_17intervals_icu_mcp7intents8handlers16analyze_training5testss_38test_analyze_period_invalid_start_date0Bb_
FNDA:1,_RNCNvNtNtNtNtCsgTXWXfwjzne_17intervals_icu_mcp7intents8handlers16analyze_training5testss_38test_analyze_period_missing_period_end0Bb_
FNDA:1,_RNCNvNtNtNtNtCsgTXWXfwjzne_17intervals_icu_mcp7intents8handlers16analyze_training5testss_39test_analyze_single_no_activities_found0Bb_
FNDA:1,_RNCNvNtNtNtNtCsgTXWXfwjzne_17intervals_icu_mcp7intents8handlers16analyze_training5testss_40test_analyze_period_missing_period_start0Bb_
FNDA:1,_RNCNvNtNtNtNtCsgTXWXfwjzne_17intervals_icu_mcp7intents8handlers16analyze_training5testss_40test_analyze_period_with_calendar_events0Bb_
FNDA:1,_RNCNvNtNtNtNtCsgTXWXfwjzne_17intervals_icu_mcp7intents8handlers16analyze_training5testss_41test_analyze_period_analysis_type_streams0Bb_
FNDA:1,_RNCNvNtNtNtNtCsgTXWXfwjzne_17intervals_icu_mcp7intents8handlers16analyze_training5testss_42test_analyze_period_with_requested_metrics0Bb_
FNDA:1,_RNCNvNtNtNtNtCsgTXWXfwjzne_17intervals_icu_mcp7intents8handlers16analyze_training5testss_42test_analyze_single_with_activity_messages0Bb_
FNDA:1,_RNCNvNtNtNtNtCsgTXWXfwjzne_17intervals_icu_mcp7intents8handlers16analyze_training5testss_42test_analyze_single_with_requested_metrics0Bb_
FNDA:1,_RNCNvNtNtNtNtCsgTXWXfwjzne_17intervals_icu_mcp7intents8handlers16analyze_training5testss_43test_analyze_period_analysis_type_intervals0Bb_
FNDA:1,_RNCNvNtNtNtNtCsgTXWXfwjzne_17intervals_icu_mcp7intents8handlers16analyze_training5testss_43test_analyze_period_with_description_filter0Bb_
FNDA:1,_RNCNvNtNtNtNtCsgTXWXfwjzne_17intervals_icu_mcp7intents8handlers16analyze_training5testss_43test_analyze_single_with_description_filter0Bb_
FNDA:1,_RNCNvNtNtNtNtCsgTXWXfwjzne_17intervals_icu_mcp7intents8handlers16analyze_training5testss_44test_analyze_period_with_histograms_rejected0Bb_
FNDA:1,_RNCNvNtNtNtNtCsgTXWXfwjzne_17intervals_icu_mcp7intents8handlers16analyze_training5testss_44test_execute_period_with_histograms_rejected0Bb_
FNDA:1,_RNCNvNtNtNtNtCsgTXWXfwjzne_17intervals_icu_mcp7intents8handlers16analyze_training5testss_45test_analyze_single_multiple_activities_found0Bb_
FNDA:1,_RNCNvNtNtNtNtCsgTXWXfwjzne_17intervals_icu_mcp7intents8handlers16analyze_training5testss_58test_schema_include_histograms_description_mentions_single0Bb_
FNDA:53,_RNvMNtNtNtCsgTXWXfwjzne_17intervals_icu_mcp7intents8handlers16analyze_trainingNtB2_22AnalyzeTrainingHandler3new
FNDA:14,_RNvMs0_NtNtNtCsgTXWXfwjzne_17intervals_icu_mcp7intents8handlers16analyze_trainingNtB5_22AnalyzeTrainingHandler14analyze_period
FNDA:13,_RNvMs0_NtNtNtCsgTXWXfwjzne_17intervals_icu_mcp7intents8handlers16analyze_trainingNtB5_22AnalyzeTrainingHandler14analyze_single
FNDA:22,_RNvMs_NtNtNtCsgTXWXfwjzne_17intervals_icu_mcp7intents8handlers16analyze_trainingNtB4_18SingleAnalysisMode15include_streams
FNDA:13,_RNvMs_NtNtNtCsgTXWXfwjzne_17intervals_icu_mcp7intents8handlers16analyze_trainingNtB4_18SingleAnalysisMode17include_intervals
FNDA:13,_RNvMs_NtNtNtCsgTXWXfwjzne_17intervals_icu_mcp7intents8handlers16analyze_trainingNtB4_18SingleAnalysisMode19show_stream_section
FNDA:13,_RNvMs_NtNtNtCsgTXWXfwjzne_17intervals_icu_mcp7intents8handlers16analyze_trainingNtB4_18SingleAnalysisMode21show_interval_section
FNDA:13,_RNvMs_NtNtNtCsgTXWXfwjzne_17intervals_icu_mcp7intents8handlers16analyze_trainingNtB4_18SingleAnalysisMode21show_quality_findings
FNDA:13,_RNvMs_NtNtNtCsgTXWXfwjzne_17intervals_icu_mcp7intents8handlers16analyze_trainingNtB4_18SingleAnalysisMode22show_data_availability
FNDA:13,_RNvMs_NtNtNtCsgTXWXfwjzne_17intervals_icu_mcp7intents8handlers16analyze_trainingNtB4_18SingleAnalysisMode22show_execution_context
FNDA:13,_RNvMs_NtNtNtCsgTXWXfwjzne_17intervals_icu_mcp7intents8handlers16analyze_trainingNtB4_18SingleAnalysisMode23show_detailed_breakdown
FNDA:15,_RNvMs_NtNtNtCsgTXWXfwjzne_17intervals_icu_mcp7intents8handlers16analyze_trainingNtB4_18SingleAnalysisMode5parse
FNDA:13,_RNvMs_NtNtNtCsgTXWXfwjzne_17intervals_icu_mcp7intents8handlers16analyze_trainingNtB4_18SingleAnalysisMode6as_str
FNDA:18,_RNvNtNtNtCsgTXWXfwjzne_17intervals_icu_mcp7intents8handlers16analyze_training10format_pct
FNDA:10,_RNvXs9_NtNtNtCsgTXWXfwjzne_17intervals_icu_mcp7intents8handlers16analyze_trainingNtB5_22AnalyzeTrainingHandlerNtNtB9_5types13IntentHandler11description
FNDA:11,_RNvXs9_NtNtNtCsgTXWXfwjzne_17intervals_icu_mcp7intents8handlers16analyze_trainingNtB5_22AnalyzeTrainingHandlerNtNtB9_5types13IntentHandler12input_schema
FNDA:1,_RNvXs9_NtNtNtCsgTXWXfwjzne_17intervals_icu_mcp7intents8handlers16analyze_trainingNtB5_22AnalyzeTrainingHandlerNtNtB9_5types13IntentHandler26requires_idempotency_token
FNDA:25,_RNvXs9_NtNtNtCsgTXWXfwjzne_17intervals_icu_mcp7intents8handlers16analyze_trainingNtB5_22AnalyzeTrainingHandlerNtNtB9_5types13IntentHandler4name
FNDA:29,_RNvXs9_NtNtNtCsgTXWXfwjzne_17intervals_icu_mcp7intents8handlers16analyze_trainingNtB5_22AnalyzeTrainingHandlerNtNtB9_5types13IntentHandler7execute
FNDA:0,_RNCNCNCNCNCNvMs0_NtNtNtCsgTXWXfwjzne_17intervals_icu_mcp7intents8handlers16analyze_trainingNtBf_22AnalyzeTrainingHandler14analyze_period0sb_0s3_000Bl_
FNDA:7,_RNCNCNCNCNvMs0_NtNtNtCsgTXWXfwjzne_17intervals_icu_mcp7intents8handlers16analyze_trainingNtBd_22AnalyzeTrainingHandler14analyze_period0s4_000Bj_
FNDA:0,_RNCNCNCNCNvMs0_NtNtNtCsgTXWXfwjzne_17intervals_icu_mcp7intents8handlers16analyze_trainingNtBd_22AnalyzeTrainingHandler14analyze_period0sb_0s3_00Bj_
FNDA:2,_RNCNCNCNvMs0_NtNtNtCsgTXWXfwjzne_17intervals_icu_mcp7intents8handlers16analyze_trainingNtBb_22AnalyzeTrainingHandler14analyze_period0s0_00Bh_
FNDA:7,_RNCNCNCNvMs0_NtNtNtCsgTXWXfwjzne_17intervals_icu_mcp7intents8handlers16analyze_trainingNtBb_22AnalyzeTrainingHandler14analyze_period0s4_00Bh_
FNDA:6,_RNCNCNCNvMs0_NtNtNtCsgTXWXfwjzne_17intervals_icu_mcp7intents8handlers16analyze_trainingNtBb_22AnalyzeTrainingHandler14analyze_period0s4_0s0_0Bh_
FNDA:6,_RNCNCNCNvMs0_NtNtNtCsgTXWXfwjzne_17intervals_icu_mcp7intents8handlers16analyze_trainingNtBb_22AnalyzeTrainingHandler14analyze_period0s4_0s1_0Bh_
FNDA:0,_RNCNCNCNvMs0_NtNtNtCsgTXWXfwjzne_17intervals_icu_mcp7intents8handlers16analyze_trainingNtBb_22AnalyzeTrainingHandler14analyze_period0s5_00Bh_
FNDA:0,_RNCNCNCNvMs0_NtNtNtCsgTXWXfwjzne_17intervals_icu_mcp7intents8handlers16analyze_trainingNtBb_22AnalyzeTrainingHandler14analyze_period0sb_00Bh_
FNDA:0,_RNCNCNCNvMs0_NtNtNtCsgTXWXfwjzne_17intervals_icu_mcp7intents8handlers16analyze_trainingNtBb_22AnalyzeTrainingHandler14analyze_period0sb_0s0_0Bh_
FNDA:0,_RNCNCNCNvMs0_NtNtNtCsgTXWXfwjzne_17intervals_icu_mcp7intents8handlers16analyze_trainingNtBb_22AnalyzeTrainingHandler14analyze_period0sb_0s1_0Bh_
FNDA:0,_RNCNCNCNvMs0_NtNtNtCsgTXWXfwjzne_17intervals_icu_mcp7intents8handlers16analyze_trainingNtBb_22AnalyzeTrainingHandler14analyze_period0sb_0s2_0Bh_
FNDA:0,_RNCNCNCNvMs0_NtNtNtCsgTXWXfwjzne_17intervals_icu_mcp7intents8handlers16analyze_trainingNtBb_22AnalyzeTrainingHandler14analyze_period0sb_0s3_0Bh_
FNDA:0,_RNCNCNCNvMs0_NtNtNtCsgTXWXfwjzne_17intervals_icu_mcp7intents8handlers16analyze_trainingNtBb_22AnalyzeTrainingHandler14analyze_period0sb_0s4_0Bh_
FNDA:0,_RNCNCNCNvMs0_NtNtNtCsgTXWXfwjzne_17intervals_icu_mcp7intents8handlers16analyze_trainingNtBb_22AnalyzeTrainingHandler14analyze_period0sb_0s5_0Bh_
FNDA:0,_RNCNCNCNvMs0_NtNtNtCsgTXWXfwjzne_17intervals_icu_mcp7intents8handlers16analyze_trainingNtBb_22AnalyzeTrainingHandler14analyze_period0sb_0s6_0Bh_
FNDA:0,_RNCNCNCNvMs0_NtNtNtCsgTXWXfwjzne_17intervals_icu_mcp7intents8handlers16analyze_trainingNtBb_22AnalyzeTrainingHandler14analyze_period0sb_0s_0Bh_
FNDA:1,_RNCNCNCNvMs0_NtNtNtCsgTXWXfwjzne_17intervals_icu_mcp7intents8handlers16analyze_trainingNtBb_22AnalyzeTrainingHandler14analyze_period0sg_00Bh_
FNDA:0,_RNCNCNCNvMs0_NtNtNtCsgTXWXfwjzne_17intervals_icu_mcp7intents8handlers16analyze_trainingNtBb_22AnalyzeTrainingHandler14analyze_period0sh_00Bh_
FNDA:2,_RNCNCNCNvMs0_NtNtNtCsgTXWXfwjzne_17intervals_icu_mcp7intents8handlers16analyze_trainingNtBb_22AnalyzeTrainingHandler14analyze_single0s0_00Bh_
FNDA:1,_RNCNCNvMs0_NtNtNtCsgTXWXfwjzne_17intervals_icu_mcp7intents8handlers16analyze_trainingNtB9_22AnalyzeTrainingHandler14analyze_period00Bf_
FNDA:2,_RNCNCNvMs0_NtNtNtCsgTXWXfwjzne_17intervals_icu_mcp7intents8handlers16analyze_trainingNtB9_22AnalyzeTrainingHandler14analyze_period0s0_0Bf_
FNDA:8,_RNCNCNvMs0_NtNtNtCsgTXWXfwjzne_17intervals_icu_mcp7intents8handlers16analyze_trainingNtB9_22AnalyzeTrainingHandler14analyze_period0s1_0Bf_
FNDA:6,_RNCNCNvMs0_NtNtNtCsgTXWXfwjzne_17intervals_icu_mcp7intents8handlers16analyze_trainingNtB9_22AnalyzeTrainingHandler14analyze_period0s2_0Bf_
FNDA:1,_RNCNCNvMs0_NtNtNtCsgTXWXfwjzne_17intervals_icu_mcp7intents8handlers16analyze_trainingNtB9_22AnalyzeTrainingHandler14analyze_period0s3_0Bf_
FNDA:6,_RNCNCNvMs0_NtNtNtCsgTXWXfwjzne_17intervals_icu_mcp7intents8handlers16analyze_trainingNtB9_22AnalyzeTrainingHandler14analyze_period0s4_0Bf_
FNDA:0,_RNCNCNvMs0_NtNtNtCsgTXWXfwjzne_17intervals_icu_mcp7intents8handlers16analyze_trainingNtB9_22AnalyzeTrainingHandler14analyze_period0s5_0Bf_
FNDA:7,_RNCNCNvMs0_NtNtNtCsgTXWXfwjzne_17intervals_icu_mcp7intents8handlers16analyze_trainingNtB9_22AnalyzeTrainingHandler14analyze_period0s8_0Bf_
FNDA:1,_RNCNCNvMs0_NtNtNtCsgTXWXfwjzne_17intervals_icu_mcp7intents8handlers16analyze_trainingNtB9_22AnalyzeTrainingHandler14analyze_period0s_0Bf_
FNDA:7,_RNCNCNvMs0_NtNtNtCsgTXWXfwjzne_17intervals_icu_mcp7intents8handlers16analyze_trainingNtB9_22AnalyzeTrainingHandler14analyze_period0sa_0Bf_
FNDA:0,_RNCNCNvMs0_NtNtNtCsgTXWXfwjzne_17intervals_icu_mcp7intents8handlers16analyze_trainingNtB9_22AnalyzeTrainingHandler14analyze_period0sb_0Bf_
FNDA:1,_RNCNCNvMs0_NtNtNtCsgTXWXfwjzne_17intervals_icu_mcp7intents8handlers16analyze_trainingNtB9_22AnalyzeTrainingHandler14analyze_period0sc_0Bf_
FNDA:7,_RNCNCNvMs0_NtNtNtCsgTXWXfwjzne_17intervals_icu_mcp7intents8handlers16analyze_trainingNtB9_22AnalyzeTrainingHandler14analyze_period0sd_0Bf_
FNDA:0,_RNCNCNvMs0_NtNtNtCsgTXWXfwjzne_17intervals_icu_mcp7intents8handlers16analyze_trainingNtB9_22AnalyzeTrainingHandler14analyze_period0se_0Bf_
FNDA:1,_RNCNCNvMs0_NtNtNtCsgTXWXfwjzne_17intervals_icu_mcp7intents8handlers16analyze_trainingNtB9_22AnalyzeTrainingHandler14analyze_period0sf_0Bf_
FNDA:1,_RNCNCNvMs0_NtNtNtCsgTXWXfwjzne_17intervals_icu_mcp7intents8handlers16analyze_trainingNtB9_22AnalyzeTrainingHandler14analyze_period0sg_0Bf_
FNDA:1,_RNCNCNvMs0_NtNtNtCsgTXWXfwjzne_17intervals_icu_mcp7intents8handlers16analyze_trainingNtB9_22AnalyzeTrainingHandler14analyze_period0sh_0Bf_
FNDA:6,_RNCNCNvMs0_NtNtNtCsgTXWXfwjzne_17intervals_icu_mcp7intents8handlers16analyze_trainingNtB9_22AnalyzeTrainingHandler14analyze_period0si_0Bf_
FNDA:0,_RNCNCNvMs0_NtNtNtCsgTXWXfwjzne_17intervals_icu_mcp7intents8handlers16analyze_trainingNtB9_22AnalyzeTrainingHandler14analyze_period0sj_0Bf_
FNDA:1,_RNCNCNvMs0_NtNtNtCsgTXWXfwjzne_17intervals_icu_mcp7intents8handlers16analyze_trainingNtB9_22AnalyzeTrainingHandler14analyze_single00Bf_
FNDA:2,_RNCNCNvMs0_NtNtNtCsgTXWXfwjzne_17intervals_icu_mcp7intents8handlers16analyze_trainingNtB9_22AnalyzeTrainingHandler14analyze_single0s0_0Bf_
FNDA:1,_RNCNCNvMs0_NtNtNtCsgTXWXfwjzne_17intervals_icu_mcp7intents8handlers16analyze_trainingNtB9_22AnalyzeTrainingHandler14analyze_single0s1_0Bf_
FNDA:1,_RNCNCNvMs0_NtNtNtCsgTXWXfwjzne_17intervals_icu_mcp7intents8handlers16analyze_trainingNtB9_22AnalyzeTrainingHandler14analyze_single0s2_0Bf_
FNDA:9,_RNCNCNvMs0_NtNtNtCsgTXWXfwjzne_17intervals_icu_mcp7intents8handlers16analyze_trainingNtB9_22AnalyzeTrainingHandler14analyze_single0s3_0Bf_
FNDA:9,_RNCNCNvMs0_NtNtNtCsgTXWXfwjzne_17intervals_icu_mcp7intents8handlers16analyze_trainingNtB9_22AnalyzeTrainingHandler14analyze_single0s4_0Bf_
FNDA:0,_RNCNCNvMs0_NtNtNtCsgTXWXfwjzne_17intervals_icu_mcp7intents8handlers16analyze_trainingNtB9_22AnalyzeTrainingHandler14analyze_single0s_0Bf_
FNDA:1,_RNCNCNvXs9_NtNtNtCsgTXWXfwjzne_17intervals_icu_mcp7intents8handlers16analyze_trainingNtB9_22AnalyzeTrainingHandlerNtNtBd_5types13IntentHandler7execute00Bf_
FNDA:14,_RNCNvMs0_NtNtNtCsgTXWXfwjzne_17intervals_icu_mcp7intents8handlers16analyze_trainingNtB7_22AnalyzeTrainingHandler14analyze_period0Bd_
FNDA:13,_RNCNvMs0_NtNtNtCsgTXWXfwjzne_17intervals_icu_mcp7intents8handlers16analyze_trainingNtB7_22AnalyzeTrainingHandler14analyze_single0Bd_
FNDA:0,_RNCNvNtNtNtCsgTXWXfwjzne_17intervals_icu_mcp7intents8handlers16analyze_training10format_pct0B9_
FNDA:18,_RNCNvNtNtNtCsgTXWXfwjzne_17intervals_icu_mcp7intents8handlers16analyze_training10format_pcts_0B9_
FNF:238
FNH:215
DA:34,53
DA:35,53
DA:36,53
DA:48,15
DA:49,15
DA:50,15
DA:51,12
DA:52,10
DA:53,8
DA:55,15
DA:57,13
DA:58,13
DA:59,6
DA:60,3
DA:61,2
DA:62,2
DA:64,13
DA:66,13
DA:67,13
DA:68,13
DA:70,22
DA:72,22
DA:73,22
DA:75,13
DA:76,13
DA:77,13
DA:79,13
DA:80,13
DA:81,13
DA:83,13
DA:84,13
DA:85,13
DA:87,13
DA:88,13
DA:89,13
DA:91,13
DA:92,13
DA:93,13
DA:95,13
DA:96,13
DA:97,13
DA:102,25
DA:103,25
DA:104,25
DA:106,10
DA:107,10
DA:108,10
DA:109,10
DA:110,10
DA:111,10
DA:112,10
DA:113,10
DA:115,11
DA:116,11
DA:117,11
DA:118,11
DA:119,11
DA:120,11
DA:121,11
DA:122,11
DA:124,11
DA:125,11
DA:126,11
DA:128,11
DA:129,11
DA:130,11
DA:132,11
DA:133,11
DA:134,11
DA:136,11
DA:137,11
DA:138,11
DA:140,11
DA:141,11
DA:142,11
DA:143,11
DA:144,11
DA:146,11
DA:147,11
DA:148,11
DA:149,11
DA:151,11
DA:152,11
DA:153,11
DA:154,11
DA:156,11
DA:157,11
DA:158,11
DA:159,11
DA:162,11
DA:163,11
DA:164,11
DA:165,11
DA:167,11
DA:168,11
DA:169,11
DA:172,11
DA:173,11
DA:174,11
DA:175,11
DA:179,11
DA:186,29
DA:190,1
DA:200,29
DA:202,1
DA:203,1
DA:204,1
DA:208,13
DA:209,13
DA:210,13
DA:211,13
DA:212,13
DA:213,13
DA:214,13
DA:215,13
DA:216,13
DA:217,12
DA:220,12
DA:223,11
DA:224,11
DA:225,11
DA:226,11
DA:229,11
DA:230,12
DA:231,12
DA:234,0
DA:240,11
DA:243,11
DA:244,1
DA:245,2
DA:246,2
DA:247,2
DA:248,2
DA:249,2
DA:250,2
DA:251,1
DA:254,0
DA:256,10
DA:258,11
DA:261,11
DA:262,1
DA:263,1
DA:268,1
DA:269,1
DA:270,1
DA:272,1
DA:273,0
DA:274,1
DA:276,1
DA:278,1
DA:279,1
DA:280,1
DA:281,1
DA:284,1
DA:285,1
DA:286,1
DA:289,1
DA:290,1
DA:291,1
DA:292,10
DA:295,10
DA:296,1
DA:297,1
DA:302,1
DA:304,1
DA:307,1
DA:308,0
DA:309,0
DA:310,0
DA:311,0
DA:312,0
DA:313,1
DA:314,1
DA:317,1
DA:318,2
DA:319,2
DA:320,2
DA:321,2
DA:322,2
DA:323,2
DA:324,2
DA:325,2
DA:326,1
DA:329,1
DA:330,2
DA:331,2
DA:332,2
DA:333,2
DA:334,2
DA:335,2
DA:336,2
DA:337,2
DA:338,2
DA:339,2
DA:340,2
DA:341,2
DA:342,2
DA:343,2
DA:344,1
DA:346,1
DA:347,1
DA:348,1
DA:349,1
DA:352,1
DA:353,1
DA:354,1
DA:355,1
DA:356,1
DA:357,1
DA:358,1
DA:359,1
DA:361,1
DA:362,1
DA:366,1
DA:370,1
DA:371,1
DA:372,1
DA:373,1
DA:374,1
DA:375,1
DA:377,1
DA:378,1
DA:379,1
DA:380,9
DA:382,9
DA:383,9
DA:384,9
DA:385,9
DA:386,9
DA:387,9
DA:388,9
DA:391,9
DA:392,9
DA:393,9
DA:394,9
DA:395,9
DA:396,9
DA:397,9
DA:398,9
DA:399,9
DA:400,9
DA:401,9
DA:403,9
DA:404,9
DA:405,9
DA:406,9
DA:407,9
DA:408,9
DA:409,9
DA:410,9
DA:411,9
DA:412,9
DA:413,9
DA:414,9
DA:415,9
DA:416,9
DA:417,9
DA:419,9
DA:420,9
DA:421,9
DA:423,9
DA:424,9
DA:426,9
DA:427,9
DA:428,9
DA:429,9
DA:430,9
DA:431,9
DA:432,9
DA:433,9
DA:434,9
DA:435,9
DA:436,9
DA:437,9
DA:438,9
DA:439,9
DA:440,9
DA:441,9
DA:442,9
DA:443,9
DA:444,9
DA:445,9
DA:446,9
DA:447,1
DA:448,1
DA:449,1
DA:450,1
DA:451,1
DA:452,1
DA:453,8
DA:454,9
DA:455,4
DA:456,2
DA:457,2
DA:458,2
DA:459,2
DA:460,5
DA:461,9
DA:462,9
DA:463,9
DA:464,9
DA:465,9
DA:466,9
DA:467,9
DA:468,9
DA:469,9
DA:470,9
DA:473,9
DA:474,9
DA:475,9
DA:476,9
DA:477,9
DA:478,9
DA:480,9
DA:481,9
DA:482,9
DA:483,9
DA:485,9
DA:486,9
DA:487,9
DA:489,9
DA:490,9
DA:495,9
DA:499,9
DA:500,9
DA:501,8
DA:502,8
DA:503,8
DA:504,8
DA:505,8
DA:507,9
DA:508,1
DA:509,1
DA:510,1
DA:511,1
DA:512,1
DA:513,1
DA:514,1
DA:515,1
DA:516,1
DA:517,8
DA:519,9
DA:520,2
DA:521,2
DA:522,2
DA:523,2
DA:524,2
DA:525,2
DA:526,2
DA:527,2
DA:528,7
DA:530,9
DA:531,9
DA:532,1
DA:533,1
DA:534,1
DA:535,1
DA:536,1
DA:537,1
DA:538,1
DA:539,1
DA:540,1
DA:541,1
DA:542,8
DA:544,9
DA:545,3
DA:546,3
DA:547,0
DA:548,0
DA:550,3
DA:551,3
DA:552,2
DA:553,2
DA:554,3
DA:555,1
DA:556,1
DA:557,1
DA:558,1
DA:559,2
DA:560,3
DA:562,3
DA:564,6
DA:566,9
DA:567,9
DA:568,9
DA:569,9
DA:570,0
DA:571,9
DA:572,9
DA:573,0
DA:574,9
DA:575,9
DA:576,9
DA:577,1
DA:578,1
DA:579,8
DA:582,9
DA:583,1
DA:584,1
DA:585,1
DA:587,1
DA:588,1
DA:589,1
DA:590,1
DA:591,0
DA:594,1
DA:595,1
DA:598,1
DA:599,1
DA:600,1
DA:601,1
DA:603,1
DA:604,1
DA:605,1
DA:606,1
DA:607,1
DA:608,1
DA:610,1
DA:612,0
DA:613,0
DA:614,0
DA:615,0
DA:616,0
DA:617,0
DA:618,8
DA:620,9
DA:621,9
DA:622,9
DA:623,9
DA:624,9
DA:625,9
DA:626,9
DA:630,9
DA:631,0
DA:632,0
DA:633,0
DA:634,9
DA:635,9
DA:636,9
DA:637,9
DA:638,9
DA:639,9
DA:640,9
DA:641,9
DA:642,9
DA:643,9
DA:645,9
DA:646,9
DA:647,9
DA:648,9
DA:649,9
DA:650,9
DA:651,9
DA:655,9
DA:656,1
DA:657,8
DA:659,9
DA:660,1
DA:661,8
DA:663,9
DA:664,3
DA:666,3
DA:667,3
DA:668,0
DA:669,3
DA:670,3
DA:671,3
DA:672,3
DA:673,2
DA:674,3
DA:675,2
DA:676,2
DA:677,2
DA:678,3
DA:679,3
DA:680,3
DA:681,3
DA:682,3
DA:683,3
DA:684,6
DA:686,9
DA:687,3
DA:688,3
DA:689,3
DA:690,3
DA:691,3
DA:692,3
DA:693,6
DA:696,9
DA:698,9
DA:699,9
DA:700,9
DA:701,9
DA:703,9
DA:704,9
DA:705,9
DA:706,9
DA:709,9
DA:710,9
DA:711,9
DA:712,13
DA:714,14
DA:715,14
DA:716,14
DA:717,14
DA:718,14
DA:719,14
DA:720,14
DA:721,14
DA:722,14
DA:723,13
DA:724,13
DA:725,13
DA:726,13
DA:727,12
DA:728,12
DA:729,12
DA:730,12
DA:731,12
DA:732,12
DA:733,12
DA:734,12
DA:735,12
DA:737,12
DA:738,2
DA:739,2
DA:740,2
DA:741,10
DA:743,10
DA:744,9
DA:746,8
DA:747,1
DA:748,1
DA:749,1
DA:750,7
DA:752,7
DA:753,7
DA:754,7
DA:755,7
DA:756,7
DA:757,7
DA:759,7
DA:760,7
DA:761,7
DA:762,7
DA:763,7
DA:764,7
DA:765,7
DA:766,7
DA:767,7
DA:768,7
DA:770,7
DA:771,7
DA:772,7
DA:773,7
DA:774,7
DA:775,7
DA:777,7
DA:778,7
DA:779,7
DA:780,7
DA:784,7
DA:785,7
DA:786,1
DA:787,1
DA:788,1
DA:789,2
DA:790,2
DA:791,2
DA:792,2
DA:793,2
DA:794,2
DA:795,1
DA:797,6
DA:801,7
DA:802,1
DA:803,1
DA:808,1
DA:809,1
DA:813,1
DA:814,1
DA:816,0
DA:818,0
DA:821,1
DA:822,1
DA:823,1
DA:824,1
DA:825,1
DA:827,1
DA:829,1
DA:831,1
DA:832,0
DA:833,0
DA:834,0
DA:835,0
DA:836,0
DA:837,0
DA:838,0
DA:839,0
DA:840,0
DA:841,0
DA:842,0
DA:843,0
DA:844,0
DA:845,1
DA:847,1
DA:848,1
DA:849,1
DA:850,1
DA:851,1
DA:854,1
DA:855,1
DA:856,1
DA:859,1
DA:860,1
DA:861,1
DA:862,6
DA:864,6
DA:865,6
DA:867,6
DA:868,6
DA:870,6
DA:871,6
DA:872,6
DA:873,6
DA:874,6
DA:875,6
DA:876,6
DA:877,6
DA:878,6
DA:879,6
DA:881,6
DA:882,6
DA:883,6
DA:885,6
DA:886,6
DA:887,6
DA:888,8
DA:889,6
DA:890,6
DA:891,6
DA:892,6
DA:894,6
DA:895,6
DA:896,6
DA:897,6
DA:898,6
DA:899,6
DA:900,7
DA:901,7
DA:902,7
DA:903,6
DA:904,6
DA:905,6
DA:906,6
DA:908,6
DA:909,0
DA:910,0
DA:911,0
DA:912,0
DA:913,0
DA:914,0
DA:915,0
DA:916,0
DA:917,0
DA:918,0
DA:919,0
DA:920,0
DA:921,0
DA:922,0
DA:923,0
DA:924,0
DA:925,0
DA:926,0
DA:927,0
DA:928,0
DA:929,0
DA:930,0
DA:931,6
DA:933,6
DA:934,0
DA:935,0
DA:936,0
DA:937,0
DA:938,0
DA:939,6
DA:941,7
DA:942,6
DA:943,6
DA:945,6
DA:946,6
DA:948,6
DA:949,6
DA:950,6
DA:951,6
DA:952,6
DA:953,6
DA:955,6
DA:956,6
DA:961,6
DA:962,6
DA:963,6
DA:964,6
DA:967,6
DA:968,6
DA:969,7
DA:970,6
DA:972,6
DA:973,0
DA:974,0
DA:975,0
DA:976,0
DA:977,0
DA:978,0
DA:979,0
DA:980,0
DA:981,0
DA:982,0
DA:983,0
DA:984,0
DA:985,0
DA:986,0
DA:987,0
DA:988,0
DA:989,0
DA:991,0
DA:992,0
DA:993,0
DA:994,0
DA:995,0
DA:996,0
DA:997,0
DA:998,0
DA:999,0
DA:1000,0
DA:1001,0
DA:1002,0
DA:1003,0
DA:1005,0
DA:1006,0
DA:1007,0
DA:1008,0
DA:1009,0
DA:1010,0
DA:1011,0
DA:1012,0
DA:1014,0
DA:1015,0
DA:1017,0
DA:1018,0
DA:1019,0
DA:1020,0
DA:1021,0
DA:1022,0
DA:1023,0
DA:1025,0
DA:1027,6
DA:1029,6
DA:1030,6
DA:1031,6
DA:1032,6
DA:1033,6
DA:1035,6
DA:1036,1
DA:1037,1
DA:1038,1
DA:1039,1
DA:1040,1
DA:1041,1
DA:1042,1
DA:1043,1
DA:1044,1
DA:1045,1
DA:1046,1
DA:1047,1
DA:1048,1
DA:1049,5
DA:1051,6
DA:1052,1
DA:1053,1
DA:1054,1
DA:1055,1
DA:1056,1
DA:1057,1
DA:1058,1
DA:1059,1
DA:1060,1
DA:1061,1
DA:1062,1
DA:1063,5
DA:1065,6
DA:1066,6
DA:1067,6
DA:1068,6
DA:1070,6
DA:1071,6
DA:1072,6
DA:1073,6
DA:1074,6
DA:1075,6
DA:1076,6
DA:1078,0
DA:1080,6
DA:1081,6
DA:1084,6
DA:1085,6
DA:1086,6
DA:1088,6
DA:1089,6
DA:1090,6
DA:1091,6
DA:1092,5
DA:1093,5
DA:1094,0
DA:1096,6
DA:1097,1
DA:1098,1
DA:1099,1
DA:1100,1
DA:1101,1
DA:1102,1
DA:1103,1
DA:1104,1
DA:1105,7
DA:1106,1
DA:1107,1
DA:1108,1
DA:1109,1
DA:1110,1
DA:1112,5
DA:1113,1
DA:1114,1
DA:1115,1
DA:1116,1
DA:1117,1
DA:1118,1
DA:1119,1
DA:1120,1
DA:1121,1
DA:1122,1
DA:1123,1
DA:1124,1
DA:1125,1
DA:1126,1
DA:1127,1
DA:1128,1
DA:1129,1
DA:1130,1
DA:1131,1
DA:1132,1
DA:1133,1
DA:1134,1
DA:1135,1
DA:1136,1
DA:1138,1
DA:1139,1
DA:1140,1
DA:1141,1
DA:1142,1
DA:1143,1
DA:1144,1
DA:1145,1
DA:1146,1
DA:1147,4
DA:1149,6
DA:1150,6
DA:1151,0
DA:1152,0
DA:1153,0
DA:1154,0
DA:1156,0
DA:1158,6
DA:1160,6
DA:1161,6
DA:1162,6
DA:1164,6
DA:1165,6
DA:1166,6
DA:1167,6
DA:1170,6
DA:1171,6
DA:1172,6
DA:1173,6
DA:1174,6
DA:1175,6
DA:1176,6
DA:1177,14
DA:1180,18
DA:1181,18
DA:1182,18
DA:1183,18
DA:1184,18
DA:1187,0
DA:1188,0
DA:1189,0
DA:1204,1
DA:1205,1
DA:1206,1
DA:1207,1
DA:1210,1
DA:1211,1
DA:1212,1
DA:1219,1
DA:1220,1
DA:1221,1
DA:1222,1
DA:1225,1
DA:1226,1
DA:1227,1
DA:1228,1
DA:1229,1
DA:1230,1
DA:1231,1
DA:1234,1
DA:1235,1
DA:1236,1
DA:1238,1
DA:1239,1
DA:1241,1
DA:1242,1
DA:1243,1
DA:1244,1
DA:1245,1
DA:1246,1
DA:1247,1
DA:1248,1
DA:1251,1
DA:1252,1
DA:1255,1
DA:1256,1
DA:1257,1
DA:1260,1
DA:1261,1
DA:1262,1
DA:1263,1
DA:1270,1
DA:1271,1
DA:1272,1
DA:1274,1
DA:1275,1
DA:1278,1
DA:1279,1
DA:1280,1
DA:1282,1
DA:1283,1
DA:1284,1
DA:1285,1
DA:1288,1
DA:1290,1
DA:1291,1
DA:1294,1
DA:1295,1
DA:1296,1
DA:1299,1
DA:1300,1
DA:1301,1
DA:1304,1
DA:1307,1
DA:1308,1
DA:1315,1
DA:1316,1
DA:1317,4
DA:1318,4
DA:1320,1
DA:1323,1
DA:1324,1
DA:1325,1
DA:1326,1
DA:1328,1
DA:1329,1
DA:1330,1
DA:1331,1
DA:1332,1
DA:1333,1
DA:1336,1
DA:1337,1
DA:1338,1
DA:1339,1
DA:1342,1
DA:1343,1
DA:1344,1
DA:1345,1
DA:1346,1
DA:1348,1
DA:1349,1
DA:1350,1
DA:1351,1
DA:1352,1
DA:1353,1
DA:1360,1
DA:1361,1
DA:1364,1
DA:1365,1
DA:1367,1
DA:1368,1
DA:1369,1
DA:1372,1
DA:1373,1
DA:1374,1
DA:1376,1
DA:1377,1
DA:1378,1
DA:1385,1
DA:1386,1
DA:1388,3
DA:1389,3
DA:1390,3
DA:1392,1
DA:1395,1
DA:1396,1
DA:1398,5
DA:1399,5
DA:1400,5
DA:1402,1
DA:1409,1
DA:1410,1
DA:1411,1
DA:1412,1
DA:1413,1
DA:1414,1
DA:1417,1
DA:1418,1
DA:1419,1
DA:1420,1
DA:1421,1
DA:1422,1
DA:1429,1
DA:1431,1
DA:1432,1
DA:1433,1
DA:1434,1
DA:1441,1
DA:1443,1
DA:1444,1
DA:1445,1
DA:1446,1
DA:1449,1
DA:1450,1
DA:1451,1
DA:1452,1
DA:1453,1
DA:1454,1
DA:1457,1
DA:1458,1
DA:1459,1
DA:1460,1
DA:1461,1
DA:1462,1
DA:1463,1
DA:1464,1
DA:1465,1
DA:1466,1
DA:1467,1
DA:1468,1
DA:1469,1
DA:1470,1
DA:1472,1
DA:1473,1
DA:1474,1
DA:1475,1
DA:1478,1
DA:1479,1
DA:1481,1
DA:1482,1
DA:1483,1
DA:1486,1
DA:1487,1
DA:1488,1
DA:1489,1
DA:1490,1
DA:1491,1
DA:1492,1
DA:1493,1
DA:1495,1
DA:1497,1
DA:1498,1
DA:1499,1
DA:1500,1
DA:1501,1
DA:1502,1
DA:1505,1
DA:1508,1
DA:1509,1
DA:1510,1
DA:1511,1
DA:1512,1
DA:1513,1
DA:1514,1
DA:1515,1
DA:1516,1
DA:1517,1
DA:1518,1
DA:1519,1
DA:1520,1
DA:1521,1
DA:1522,1
DA:1523,1
DA:1526,1
DA:1528,1
DA:1529,1
DA:1530,1
DA:1531,1
DA:1532,1
DA:1533,1
DA:1535,1
DA:1536,1
DA:1537,1
DA:1538,1
DA:1539,1
DA:1543,1
DA:1546,1
DA:1547,1
DA:1548,1
DA:1549,1
DA:1550,1
DA:1551,1
DA:1552,1
DA:1553,1
DA:1554,1
DA:1555,1
DA:1556,1
DA:1557,1
DA:1558,1
DA:1559,1
DA:1560,1
DA:1561,1
DA:1562,1
DA:1563,1
DA:1564,1
DA:1565,1
DA:1566,1
DA:1567,1
DA:1570,1
DA:1572,1
DA:1573,1
DA:1574,1
DA:1575,1
DA:1576,1
DA:1577,1
DA:1579,1
DA:1580,1
DA:1581,1
DA:1582,1
DA:1583,1
DA:1587,1
DA:1590,1
DA:1591,1
DA:1593,1
DA:1594,1
DA:1595,1
DA:1596,1
DA:1597,1
DA:1598,1
DA:1602,1
DA:1604,1
DA:1605,1
DA:1606,1
DA:1607,1
DA:1608,1
DA:1611,1
DA:1618,1
DA:1619,1
DA:1620,1
DA:1621,1
DA:1624,1
DA:1626,1
DA:1628,1
DA:1629,1
DA:1630,1
DA:1631,1
DA:1632,1
DA:1633,1
DA:1634,1
DA:1635,1
DA:1636,1
DA:1637,1
DA:1638,1
DA:1639,1
DA:1640,1
DA:1641,1
DA:1642,1
DA:1645,1
DA:1647,1
DA:1648,1
DA:1652,1
DA:1655,1
DA:1657,1
DA:1658,1
DA:1659,1
DA:1660,1
DA:1661,1
DA:1662,1
DA:1665,1
DA:1666,1
DA:1667,1
DA:1670,1
DA:1672,1
DA:1673,1
DA:1674,1
DA:1675,1
DA:1676,1
DA:1677,1
DA:1680,1
DA:1681,1
DA:1682,1
DA:1685,1
DA:1686,1
DA:1687,1
DA:1689,1
DA:1690,1
DA:1692,1
DA:1693,1
DA:1695,1
DA:1696,1
DA:1697,1
DA:1704,1
DA:1706,1
DA:1707,1
DA:1708,1
DA:1709,1
DA:1712,1
DA:1714,1
DA:1715,1
DA:1716,1
DA:1717,1
DA:1720,1
DA:1721,1
DA:1722,1
DA:1723,1
DA:1724,1
DA:1727,1
DA:1728,1
DA:1729,1
DA:1730,1
DA:1731,1
DA:1734,1
DA:1735,1
DA:1736,1
DA:1737,1
DA:1738,1
DA:1741,1
DA:1743,1
DA:1744,1
DA:1745,1
DA:1746,1
DA:1753,1
DA:1754,1
DA:1755,1
DA:1756,1
DA:1759,1
DA:1760,1
DA:1763,1
DA:1766,1
DA:1767,1
DA:1768,1
DA:1771,1
DA:1774,1
DA:1775,1
DA:1776,1
DA:1779,1
DA:1782,1
DA:1783,1
DA:1784,1
DA:1787,1
DA:1790,1
DA:1791,1
DA:1792,1
DA:1793,1
DA:1794,1
DA:1795,1
DA:1798,1
DA:1799,1
DA:1800,1
DA:1801,1
DA:1802,1
DA:1803,1
DA:1806,1
DA:1807,1
DA:1808,1
DA:1809,1
DA:1810,1
DA:1811,1
DA:1814,1
DA:1816,1
DA:1817,1
DA:1818,1
DA:1819,1
DA:1820,1
DA:1821,1
DA:1824,1
DA:1825,1
DA:1826,1
DA:1827,1
DA:1828,1
DA:1829,1
DA:1832,1
DA:1833,1
DA:1834,1
DA:1835,1
DA:1836,1
DA:1837,1
DA:1840,1
DA:1841,1
DA:1842,1
DA:1843,1
DA:1844,1
DA:1845,1
DA:1846,1
DA:1853,1
DA:1854,1
DA:1855,1
DA:1856,1
DA:1857,1
DA:1858,1
DA:1860,1
DA:1863,1
DA:1864,1
DA:1865,1
DA:1866,1
DA:1867,1
DA:1868,1
DA:1870,1
DA:1873,1
DA:1874,1
DA:1875,1
DA:1876,1
DA:1883,1
DA:1884,1
DA:1885,1
DA:1886,1
DA:1887,1
DA:1890,1
DA:1891,1
DA:1892,1
DA:1894,1
DA:1895,1
DA:1896,1
DA:1899,1
DA:1900,1
DA:1901,1
DA:1903,1
DA:1904,1
DA:1905,1
DA:1912,1
DA:1913,1
DA:1914,1
DA:1915,1
DA:1916,1
DA:1917,1
DA:1920,1
DA:1921,1
DA:1922,1
DA:1923,1
DA:1924,1
DA:1927,1
DA:1929,1
DA:1930,1
DA:1931,1
DA:1932,1
DA:1939,1
DA:1940,1
DA:1941,1
DA:1942,1
DA:1945,1
DA:1946,1
DA:1947,1
DA:1948,1
DA:1949,1
DA:1956,1
DA:1957,1
DA:1958,1
DA:1959,1
DA:1960,1
DA:1963,1
DA:1964,1
DA:1965,1
DA:1966,1
DA:1967,1
DA:1968,1
DA:1969,1
DA:1970,1
DA:1971,1
DA:1972,1
DA:1973,1
DA:1974,1
DA:1975,1
DA:1976,1
DA:1977,1
DA:1978,1
DA:1979,1
DA:1980,1
DA:1981,1
DA:1982,1
DA:1983,1
DA:1985,1
DA:1986,1
DA:1987,1
DA:1988,1
DA:1989,1
DA:1990,1
DA:1991,1
DA:1998,1
DA:1999,1
DA:2000,1
DA:2002,1
DA:2003,1
DA:2004,1
DA:2007,1
DA:2008,1
DA:2009,1
DA:2010,1
DA:2013,1
DA:2014,1
DA:2015,1
DA:2016,1
DA:2017,1
DA:2020,1
DA:2021,1
DA:2022,1
DA:2023,1
DA:2030,1
DA:2031,1
DA:2032,1
DA:2033,1
DA:2034,1
DA:2037,1
DA:2038,1
DA:2039,1
DA:2040,1
DA:2041,1
DA:2044,1
DA:2045,1
DA:2046,1
DA:2047,1
DA:2048,1
DA:2051,1
DA:2052,1
DA:2053,1
DA:2054,1
DA:2055,1
DA:2062,1
DA:2063,1
DA:2064,1
DA:2065,1
DA:2068,1
DA:2069,1
DA:2070,1
DA:2071,1
DA:2074,1
DA:2075,1
DA:2076,1
DA:2077,1
DA:2078,1
DA:2081,1
DA:2082,1
DA:2083,1
DA:2084,1
DA:2086,1
DA:2088,1
DA:2089,1
DA:2090,1
DA:2091,1
DA:2092,1
DA:2093,1
DA:2096,1
DA:2097,1
DA:2098,1
DA:2099,1
DA:2100,1
DA:2103,1
DA:2104,1
DA:2105,1
DA:2106,1
DA:2108,1
DA:2110,1
DA:2111,1
DA:2112,1
DA:2113,1
DA:2114,1
DA:2115,1
DA:2118,1
DA:2119,1
DA:2120,1
DA:2122,1
DA:2123,1
DA:2126,1
DA:2127,1
DA:2128,1
DA:2129,1
DA:2130,1
DA:2131,1
DA:2134,1
DA:2135,1
DA:2136,1
DA:2137,1
DA:2138,1
DA:2140,1
DA:2141,1
DA:2143,1
DA:2148,1
DA:2149,1
DA:2150,1
DA:2151,1
DA:2158,1
DA:2159,1
DA:2160,1
DA:2161,1
DA:2162,1
DA:2163,1
DA:2166,1
DA:2167,1
DA:2168,1
DA:2169,1
DA:2170,1
DA:2171,1
DA:2174,1
DA:2175,1
DA:2176,1
DA:2177,1
DA:2178,1
DA:2179,1
DA:2182,1
DA:2183,1
DA:2184,1
DA:2186,1
DA:2187,1
DA:2188,1
DA:2191,1
DA:2192,1
DA:2193,1
DA:2194,1
DA:2197,1
DA:2198,1
DA:2199,1
DA:2200,1
DA:2201,1
DA:2204,1
DA:2205,1
DA:2206,1
DA:2207,1
DA:2210,1
